EXPORTS
    .refptr._ZTIPKc @1 DATA
    .refptr._ZTIa @2 DATA
    .refptr._ZTId @3 DATA
    .refptr._ZTIi @4 DATA
    .refptr._ZTIj @5 DATA
    .refptr._ZTIl @6 DATA
    .refptr._ZTIm @7 DATA
    .refptr._ZTIt @8 DATA
    .refptr._ZTIx @9 DATA
    .refptr._ZTIy @10 DATA
    _ZN15PacketDrillInfo11setLiveTimeEN7omnetpp7SimTimeE @11
    _ZN15PacketDrillInfo11setTimeTypeEt @12
    _ZN15PacketDrillInfo12parsimUnpackEPN7omnetpp11cCommBufferE @13
    _ZN15PacketDrillInfo13setScriptTimeEN7omnetpp7SimTimeE @14
    _ZN15PacketDrillInfo16setScriptTimeEndEN7omnetpp7SimTimeE @15
    _ZN15PacketDrillInfo4copyERKS_ @16
    _ZN15PacketDrillInfo9setOffsetEN7omnetpp7SimTimeE @17
    _ZN15PacketDrillInfoC1EPKcs @18
    _ZN15PacketDrillInfoC1ERKS_ @19
    _ZN15PacketDrillInfoC2EPKcs @20
    _ZN15PacketDrillInfoC2ERKS_ @21
    _ZN15PacketDrillInfoD0Ev @22
    _ZN15PacketDrillInfoD1Ev @23
    _ZN15PacketDrillInfoD2Ev @24
    _ZN15PacketDrillInfoaSERKS_ @25
    _ZN4inet10BytesChunk12convertChunkERKSt9type_infoRKNS_12IntrusivePtrINS_5ChunkEEENS_5units5valueIxNS9_5units1bEEESD_i @26
    _ZN4inet10BytesChunk14copyFromBufferEPKhy @27
    _ZN4inet10BytesChunk14doInsertAtBackERKNS_12IntrusivePtrIKNS_5ChunkEEE @28
    _ZN4inet10BytesChunk14doRemoveAtBackENS_5units5valueIxNS1_5units1bEEE @29
    _ZN4inet10BytesChunk15doInsertAtFrontERKNS_12IntrusivePtrIKNS_5ChunkEEE @30
    _ZN4inet10BytesChunk15doRemoveAtFrontENS_5units5valueIxNS1_5units1bEEE @31
    _ZN4inet10BytesChunk7setByteEih @32
    _ZN4inet10BytesChunk8setBytesERKSt6vectorIhSaIhEE @33
    _ZN4inet10BytesChunkC1ERKS0_ @34
    _ZN4inet10BytesChunkC1ERKSt6vectorIhSaIhEE @35
    _ZN4inet10BytesChunkC1Ev @36
    _ZN4inet10BytesChunkC2ERKS0_ @37
    _ZN4inet10BytesChunkC2ERKSt6vectorIhSaIhEE @38
    _ZN4inet10BytesChunkC2Ev @39
    _ZN4inet10CareOfTest12parsimUnpackEPN7omnetpp11cCommBufferE @40
    _ZN4inet10CareOfTest19setCareOfInitCookieEj @41
    _ZN4inet10CareOfTest20setCareOfKeyGenTokenEj @42
    _ZN4inet10CareOfTest4copyERKS0_ @43
    _ZN4inet10CareOfTestC1ERKS0_ @44
    _ZN4inet10CareOfTestC1Ev @45
    _ZN4inet10CareOfTestC2ERKS0_ @46
    _ZN4inet10CareOfTestC2Ev @47
    _ZN4inet10CareOfTestD0Ev @48
    _ZN4inet10CareOfTestD1Ev @49
    _ZN4inet10CareOfTestD2Ev @50
    _ZN4inet10CareOfTestaSERKS0_ @51
    _ZN4inet10ChunkQueue20moveIteratorOrRemoveENS_5units5valueIxNS1_5units1bEEE @52
    _ZN4inet10ChunkQueue3popENS_5units5valueIxNS1_5units1bEEEi @53
    _ZN4inet10ChunkQueue4pushERKNS_12IntrusivePtrIKNS_5ChunkEEE @54
    _ZN4inet10ChunkQueue5clearEv @55
    _ZN4inet10ChunkQueue6removeENS_5units5valueIxNS1_5units1bEEE @56
    _ZN4inet10ChunkQueueC1EPKcRKNS_12IntrusivePtrIKNS_5ChunkEEE @57
    _ZN4inet10ChunkQueueC1ERKS0_ @58
    _ZN4inet10ChunkQueueC2EPKcRKNS_12IntrusivePtrIKNS_5ChunkEEE @59
    _ZN4inet10ChunkQueueC2ERKS0_ @60
    _ZN4inet10DhcpClient10initClientEv @61
    _ZN4inet10DhcpClient10initializeEi @62
    _ZN4inet10DhcpClient10openSocketEv @63
    _ZN4inet10DhcpClient11handleTimerEPN7omnetpp8cMessageE @64
    _ZN4inet10DhcpClient11recordLeaseERKNS_12IntrusivePtrIKNS_11DhcpMessageEEE @65
    _ZN4inet10DhcpClient11recordOfferERKNS_12IntrusivePtrIKNS_11DhcpMessageEEE @66
    _ZN4inet10DhcpClient11sendDeclineENS_11Ipv4AddressE @67
    _ZN4inet10DhcpClient11sendRequestEv @68
    _ZN4inet10DhcpClient11unbindLeaseEv @69
    _ZN4inet10DhcpClient12getStateNameENS0_11ClientStateE @70
    _ZN4inet10DhcpClient12sendDiscoverEv @71
    _ZN4inet10DhcpClient12socketClosedEPNS_9UdpSocketE @72
    _ZN4inet10DhcpClient13handleDhcpAckERKNS_12IntrusivePtrIKNS_11DhcpMessageEEE @73
    _ZN4inet10DhcpClient13receiveSignalEPN7omnetpp10cComponentEiPNS1_7cObjectES5_ @74
    _ZN4inet10DhcpClient15chooseInterfaceEv @75
    _ZN4inet10DhcpClient15scheduleTimerT1Ev @76
    _ZN4inet10DhcpClient15scheduleTimerT2Ev @77
    _ZN4inet10DhcpClient15scheduleTimerTOENS_13DhcpTimerTypeE @78
    _ZN4inet10DhcpClient17handleDhcpMessageEPNS_6PacketE @79
    _ZN4inet10DhcpClient17socketDataArrivedEPNS_9UdpSocketEPNS_6PacketE @80
    _ZN4inet10DhcpClient18initRebootedClientEv @81
    _ZN4inet10DhcpClient18socketErrorArrivedEPNS_9UdpSocketEPNS_10IndicationE @82
    _ZN4inet10DhcpClient19handleMessageWhenUpEPN7omnetpp8cMessageE @83
    _ZN4inet10DhcpClient19handleStopOperationEPNS_18LifecycleOperationE @84
    _ZN4inet10DhcpClient20handleCrashOperationEPNS_18LifecycleOperationE @85
    _ZN4inet10DhcpClient20handleStartOperationEPNS_18LifecycleOperationE @86
    _ZN4inet10DhcpClient26getAndCheckMessageTypeNameENS_15DhcpMessageTypeE @87
    _ZN4inet10DhcpClient6finishEv @88
    _ZN4inet10DhcpClient9bindLeaseEv @89
    _ZN4inet10DhcpClient9sendToUdpEPNS_6PacketEiRKNS_9L3AddressEi @90
    _ZN4inet10DhcpClientD0Ev @91
    _ZN4inet10DhcpClientD1Ev @92
    _ZN4inet10DhcpClientD2Ev @93
    _ZN4inet10DhcpServer10initializeEi @94
    _ZN4inet10DhcpServer10openSocketEv @95
    _ZN4inet10DhcpServer12socketClosedEPNS_9UdpSocketE @96
    _ZN4inet10DhcpServer13getLeaseByMacENS_10MacAddressE @97
    _ZN4inet10DhcpServer13receiveSignalEPN7omnetpp10cComponentEiPNS1_7cObjectES5_ @98
    _ZN4inet10DhcpServer15chooseInterfaceEv @99
    _ZN4inet10DhcpServer17getAvailableLeaseENS_11Ipv4AddressERKNS_10MacAddressE @100
    _ZN4inet10DhcpServer17socketDataArrivedEPNS_9UdpSocketEPNS_6PacketE @101
    _ZN4inet10DhcpServer18handleSelfMessagesEPN7omnetpp8cMessageE @102
    _ZN4inet10DhcpServer18processDhcpMessageEPNS_6PacketE @103
    _ZN4inet10DhcpServer18socketErrorArrivedEPNS_9UdpSocketEPNS_10IndicationE @104
    _ZN4inet10DhcpServer19handleMessageWhenUpEPN7omnetpp8cMessageE @105
    _ZN4inet10DhcpServer19handleStopOperationEPNS_18LifecycleOperationE @106
    _ZN4inet10DhcpServer20handleCrashOperationEPNS_18LifecycleOperationE @107
    _ZN4inet10DhcpServer20handleStartOperationEPNS_18LifecycleOperationE @108
    _ZN4inet10DhcpServer7sendAckEPNS_9DhcpLeaseERKNS_12IntrusivePtrIKNS_11DhcpMessageEEE @109
    _ZN4inet10DhcpServer7sendNakERKNS_12IntrusivePtrIKNS_11DhcpMessageEEE @110
    _ZN4inet10DhcpServer9sendOfferEPNS_9DhcpLeaseERKNS_12IntrusivePtrIKNS_11DhcpMessageEEE @111
    _ZN4inet10DhcpServer9sendToUDPEPNS_6PacketEiRKNS_9L3AddressEi @112
    _ZN4inet10DhcpServerC1Ev @113
    _ZN4inet10DhcpServerC2Ev @114
    _ZN4inet10DhcpServerD0Ev @115
    _ZN4inet10DhcpServerD1Ev @116
    _ZN4inet10DhcpServerD2Ev @117
    _ZN4inet10DscpMarker10initializeEi @118
    _ZN4inet10DscpMarker10markPacketEPNS_6PacketEi @119
    _ZN4inet10DscpMarker10pushPacketEPNS_6PacketEPN7omnetpp5cGateE @120
    _ZN4inet10DscpMarker13handleMessageEPN7omnetpp8cMessageE @121
    _ZN4inet10DscpMarker18packetMarkedSignalE @122 DATA
    _ZN4inet10EchoPacket12parsimUnpackEPN7omnetpp11cCommBufferE @123
    _ZN4inet10EchoPacket12setSeqNumberEi @124
    _ZN4inet10EchoPacket13setIdentifierEi @125
    _ZN4inet10EchoPacket4copyERKS0_ @126
    _ZN4inet10EchoPacket7setTypeENS_16EchoProtocolTypeE @127
    _ZN4inet10EchoPacketC1ERKS0_ @128
    _ZN4inet10EchoPacketC1Ev @129
    _ZN4inet10EchoPacketC2ERKS0_ @130
    _ZN4inet10EchoPacketC2Ev @131
    _ZN4inet10EchoPacketD0Ev @132
    _ZN4inet10EchoPacketD1Ev @133
    _ZN4inet10EchoPacketD2Ev @134
    _ZN4inet10EchoPacketaSERKS0_ @135
    _ZN4inet10EcnTagBase12parsimUnpackEPN7omnetpp11cCommBufferE @136
    _ZN4inet10EcnTagBase33setExplicitCongestionNotificationEi @137
    _ZN4inet10EcnTagBase4copyERKS0_ @138
    _ZN4inet10EcnTagBaseC1ERKS0_ @139
    _ZN4inet10EcnTagBaseC1Ev @140
    _ZN4inet10EcnTagBaseC2ERKS0_ @141
    _ZN4inet10EcnTagBaseC2Ev @142
    _ZN4inet10EcnTagBaseD0Ev @143
    _ZN4inet10EcnTagBaseD1Ev @144
    _ZN4inet10EcnTagBaseD2Ev @145
    _ZN4inet10EcnTagBaseaSERKS0_ @146
    _ZN4inet10EmptyChunk12convertChunkERKSt9type_infoRKNS_12IntrusivePtrINS_5ChunkEEENS_5units5valueIxNS9_5units1bEEESD_i @147
    _ZN4inet10EmptyChunk9singletonE @148 DATA
    _ZN4inet10EmptyChunkC1ERKS0_ @149
    _ZN4inet10EmptyChunkC1Ev @150
    _ZN4inet10EmptyChunkC2ERKS0_ @151
    _ZN4inet10EmptyChunkC2Ev @152
    _ZN4inet10EtherEncap10initializeEi @153
    _ZN4inet10EtherEncap13decapPkSignalE @154 DATA
    _ZN4inet10EtherEncap13encapPkSignalE @155 DATA
    _ZN4inet10EtherEncap15handleSendPauseEPN7omnetpp8cMessageE @156
    _ZN4inet10EtherEncap15pauseSentSignalE @157 DATA
    _ZN4inet10EtherEncap20decapsulateMacHeaderEPNS_6PacketE @158
    _ZN4inet10EtherEncap20processPacketFromMacEPNS_6PacketE @159
    _ZN4inet10EtherEncap28processPacketFromHigherLayerEPNS_6PacketE @160
    _ZN4inet10EtherEncap29processCommandFromHigherLayerEPNS_7RequestE @161
    _ZN4inet10EtherEncapD0Ev @162
    _ZN4inet10EtherEncapD1Ev @163
    _ZN4inet10EtherEncapD2Ev @164
    _ZN4inet10GpsrBeacon10setAddressERKNS_9L3AddressE @165
    _ZN4inet10GpsrBeacon11setPositionERKNS_5CoordE @166
    _ZN4inet10GpsrBeacon12parsimUnpackEPN7omnetpp11cCommBufferE @167
    _ZN4inet10GpsrBeacon4copyERKS0_ @168
    _ZN4inet10GpsrBeaconC1ERKS0_ @169
    _ZN4inet10GpsrBeaconC1Ev @170
    _ZN4inet10GpsrBeaconC2ERKS0_ @171
    _ZN4inet10GpsrBeaconC2Ev @172
    _ZN4inet10GpsrBeaconD0Ev @173
    _ZN4inet10GpsrBeaconD1Ev @174
    _ZN4inet10GpsrBeaconD2Ev @175
    _ZN4inet10GpsrBeaconaSERKS0_ @176
    _ZN4inet10GpsrOption12parsimUnpackEPN7omnetpp11cCommBufferE @177
    _ZN4inet10GpsrOption14setRoutingModeENS_18GpsrForwardingModeE @178
    _ZN4inet10GpsrOption16setSenderAddressERKNS_9L3AddressE @179
    _ZN4inet10GpsrOption22setDestinationPositionERKNS_5CoordE @180
    _ZN4inet10GpsrOption32setCurrentFaceFirstSenderAddressERKNS_9L3AddressE @181
    _ZN4inet10GpsrOption32setPerimeterRoutingStartPositionERKNS_5CoordE @182
    _ZN4inet10GpsrOption34setCurrentFaceFirstReceiverAddressERKNS_9L3AddressE @183
    _ZN4inet10GpsrOption34setPerimeterRoutingForwardPositionERKNS_5CoordE @184
    _ZN4inet10GpsrOption4copyERKS0_ @185
    _ZN4inet10GpsrOptionC1ERKS0_ @186
    _ZN4inet10GpsrOptionC1Ev @187
    _ZN4inet10GpsrOptionC2ERKS0_ @188
    _ZN4inet10GpsrOptionC2Ev @189
    _ZN4inet10GpsrOptionD0Ev @190
    _ZN4inet10GpsrOptionD1Ev @191
    _ZN4inet10GpsrOptionD2Ev @192
    _ZN4inet10GpsrOptionaSERKS0_ @193
    _ZN4inet10IcmpHeader10setCrcModeENS_7CrcModeE @194
    _ZN4inet10IcmpHeader12parsimUnpackEPN7omnetpp11cCommBufferE @195
    _ZN4inet10IcmpHeader4copyERKS0_ @196
    _ZN4inet10IcmpHeader7setCodeEi @197
    _ZN4inet10IcmpHeader7setTypeENS_8IcmpTypeE @198
    _ZN4inet10IcmpHeader9setChksumEi @199
    _ZN4inet10IcmpHeaderC1ERKS0_ @200
    _ZN4inet10IcmpHeaderC1Ev @201
    _ZN4inet10IcmpHeaderC2ERKS0_ @202
    _ZN4inet10IcmpHeaderC2Ev @203
    _ZN4inet10IcmpHeaderD0Ev @204
    _ZN4inet10IcmpHeaderD1Ev @205
    _ZN4inet10IcmpHeaderD2Ev @206
    _ZN4inet10IcmpHeaderaSERKS0_ @207
    _ZN4inet10IndicationC1EPKcs @208
    _ZN4inet10IndicationC1ERKS0_ @209
    _ZN4inet10IndicationC2EPKcs @210
    _ZN4inet10IndicationC2ERKS0_ @211
    _ZN4inet10Ipv4Header10setCrcModeENS_7CrcModeE @212
    _ZN4inet10Ipv4Header10setOptionsERKNS_10TlvOptionsE @213
    _ZN4inet10Ipv4Header10setVersionEs @214
    _ZN4inet10Ipv4Header12parsimUnpackEPN7omnetpp11cCommBufferE @215
    _ZN4inet10Ipv4Header13setProtocolIdENS_12IpProtocolIdE @216
    _ZN4inet10Ipv4Header13setSrcAddressERKNS_11Ipv4AddressE @217
    _ZN4inet10Ipv4Header13setTimeToLiveEs @218
    _ZN4inet10Ipv4Header14setDestAddressERKNS_11Ipv4AddressE @219
    _ZN4inet10Ipv4Header14setReservedBitEb @220
    _ZN4inet10Ipv4Header15setDontFragmentEb @221
    _ZN4inet10Ipv4Header15setHeaderLengthENS_5units5valueIxNS1_8intscaleINS1_5units1bELi1ELi8EEEEE @222
    _ZN4inet10Ipv4Header16setMoreFragmentsEb @223
    _ZN4inet10Ipv4Header16setTypeOfServiceEs @224
    _ZN4inet10Ipv4Header17setFragmentOffsetEt @225
    _ZN4inet10Ipv4Header17setIdentificationEt @226
    _ZN4inet10Ipv4Header19setTotalLengthFieldENS_5units5valueIxNS1_8intscaleINS1_5units1bELi1ELi8EEEEE @227
    _ZN4inet10Ipv4Header23findMutableOptionByTypeEsi @228
    _ZN4inet10Ipv4Header4copyERKS0_ @229
    _ZN4inet10Ipv4Header6setCrcEt @230
    _ZN4inet10Ipv4Header6setEcnEs @231
    _ZN4inet10Ipv4Header7setDscpEs @232
    _ZN4inet10Ipv4Header9addOptionEPNS_13TlvOptionBaseE @233
    _ZN4inet10Ipv4Header9addOptionEPNS_13TlvOptionBaseEi @234
    _ZN4inet10Ipv4HeaderC1ERKS0_ @235
    _ZN4inet10Ipv4HeaderC1Ev @236
    _ZN4inet10Ipv4HeaderC2ERKS0_ @237
    _ZN4inet10Ipv4HeaderC2Ev @238
    _ZN4inet10Ipv4HeaderD0Ev @239
    _ZN4inet10Ipv4HeaderD1Ev @240
    _ZN4inet10Ipv4HeaderD2Ev @241
    _ZN4inet10Ipv4HeaderaSERKS0_ @242
    _ZN4inet10Ipv4Option12parsimUnpackEPN7omnetpp11cCommBufferE @243
    _ZN4inet10Ipv4Option4copyERKS0_ @244
    _ZN4inet10Ipv4OptionC1ERKS0_ @245
    _ZN4inet10Ipv4OptionC1Ev @246
    _ZN4inet10Ipv4OptionC2ERKS0_ @247
    _ZN4inet10Ipv4OptionC2Ev @248
    _ZN4inet10Ipv4OptionD0Ev @249
    _ZN4inet10Ipv4OptionD1Ev @250
    _ZN4inet10Ipv4OptionD2Ev @251
    _ZN4inet10Ipv4OptionaSERKS0_ @252
    _ZN4inet10Ipv4Socket11setCallbackEPNS_14INetworkSocket9ICallbackE @253
    _ZN4inet10Ipv4Socket12sendToOutputEPN7omnetpp8cMessageE @254
    _ZN4inet10Ipv4Socket14processMessageEPN7omnetpp8cMessageE @255
    _ZN4inet10Ipv4Socket4bindEPKNS_8ProtocolENS_11Ipv4AddressE @256
    _ZN4inet10Ipv4Socket4sendEPNS_6PacketE @257
    _ZN4inet10Ipv4Socket5closeEv @258
    _ZN4inet10Ipv4Socket6sendToEPNS_6PacketENS_11Ipv4AddressE @259
    _ZN4inet10Ipv4Socket7connectENS_11Ipv4AddressE @260
    _ZN4inet10Ipv4Socket7destroyEv @261
    _ZN4inet10Ipv4SocketC1EPN7omnetpp5cGateE @262
    _ZN4inet10Ipv4SocketC2EPN7omnetpp5cGateE @263
    _ZN4inet10Ipv6Header11setHopLimitEs @264
    _ZN4inet10Ipv6Header12parsimUnpackEPN7omnetpp11cCommBufferE @265
    _ZN4inet10Ipv6Header12setFlowLabelEj @266
    _ZN4inet10Ipv6Header13setProtocolIdENS_12IpProtocolIdE @267
    _ZN4inet10Ipv6Header13setSrcAddressERKNS_11Ipv6AddressE @268
    _ZN4inet10Ipv6Header14setDestAddressERKNS_11Ipv6AddressE @269
    _ZN4inet10Ipv6Header15setTrafficClassEs @270
    _ZN4inet10Ipv6Header16setPayloadLengthENS_5units5valueIxNS1_8intscaleINS1_5units1bELi1ELi8EEEEE @271
    _ZN4inet10Ipv6Header18addExtensionHeaderEPNS_19Ipv6ExtensionHeaderE @272
    _ZN4inet10Ipv6Header18setExtensionHeaderEyPNS_19Ipv6ExtensionHeaderE @273
    _ZN4inet10Ipv6Header19dropExtensionHeaderEy @274
    _ZN4inet10Ipv6Header20eraseExtensionHeaderEy @275
    _ZN4inet10Ipv6Header21insertExtensionHeaderEPNS_19Ipv6ExtensionHeaderE @276
    _ZN4inet10Ipv6Header21insertExtensionHeaderEyPNS_19Ipv6ExtensionHeaderE @277
    _ZN4inet10Ipv6Header21removeExtensionHeaderENS_12IpProtocolIdE @278
    _ZN4inet10Ipv6Header26removeFirstExtensionHeaderEv @279
    _ZN4inet10Ipv6Header27setExtensionHeaderArraySizeEy @280
    _ZN4inet10Ipv6Header34findExtensionHeaderByTypeForUpdateENS_12IpProtocolIdEi @281
    _ZN4inet10Ipv6Header4copyERKS0_ @282
    _ZN4inet10Ipv6Header6setEcnEs @283
    _ZN4inet10Ipv6Header7setDscpEs @284
    _ZN4inet10Ipv6HeaderC1ERKS0_ @285
    _ZN4inet10Ipv6HeaderC1Ev @286
    _ZN4inet10Ipv6HeaderC2ERKS0_ @287
    _ZN4inet10Ipv6HeaderC2Ev @288
    _ZN4inet10Ipv6HeaderD0Ev @289
    _ZN4inet10Ipv6HeaderD1Ev @290
    _ZN4inet10Ipv6HeaderD2Ev @291
    _ZN4inet10Ipv6HeaderaSERKS0_ @292
    _ZN4inet10Ipv6Socket11setCallbackEPNS_14INetworkSocket9ICallbackE @293
    _ZN4inet10Ipv6Socket12sendToOutputEPN7omnetpp8cMessageE @294
    _ZN4inet10Ipv6Socket14processMessageEPN7omnetpp8cMessageE @295
    _ZN4inet10Ipv6Socket4bindEPKNS_8ProtocolENS_11Ipv6AddressE @296
    _ZN4inet10Ipv6Socket4sendEPNS_6PacketE @297
    _ZN4inet10Ipv6Socket5closeEv @298
    _ZN4inet10Ipv6Socket6sendToEPNS_6PacketENS_11Ipv6AddressE @299
    _ZN4inet10Ipv6Socket7connectENS_11Ipv6AddressE @300
    _ZN4inet10Ipv6Socket7destroyEv @301
    _ZN4inet10Ipv6SocketC1EPN7omnetpp5cGateE @302
    _ZN4inet10Ipv6SocketC2EPN7omnetpp5cGateE @303
    _ZN4inet10LdpAddress12parsimUnpackEPN7omnetpp11cCommBufferE @304
    _ZN4inet10LdpAddress12setAddressesEyPKc @305
    _ZN4inet10LdpAddress13setIsWithdrawEb @306
    _ZN4inet10LdpAddress14eraseAddressesEy @307
    _ZN4inet10LdpAddress15insertAddressesEPKc @308
    _ZN4inet10LdpAddress15insertAddressesEyPKc @309
    _ZN4inet10LdpAddress21setAddressesArraySizeEy @310
    _ZN4inet10LdpAddress4copyERKS0_ @311
    _ZN4inet10LdpAddress9setFamilyEPKc @312
    _ZN4inet10LdpAddressC1ERKS0_ @313
    _ZN4inet10LdpAddressC1Ev @314
    _ZN4inet10LdpAddressC2ERKS0_ @315
    _ZN4inet10LdpAddressC2Ev @316
    _ZN4inet10LdpAddressD0Ev @317
    _ZN4inet10LdpAddressD1Ev @318
    _ZN4inet10LdpAddressD2Ev @319
    _ZN4inet10LdpAddressaSERKS0_ @320
    _ZN4inet10MacAddress10setAddressEPKc @321
    _ZN4inet10MacAddress14autoAddressCtrE @322 DATA
    _ZN4inet10MacAddress14setAddressByteEjh @323
    _ZN4inet10MacAddress15setAddressBytesEPh @324
    _ZN4inet10MacAddress17BROADCAST_ADDRESSE @325 DATA
    _ZN4inet10MacAddress19UNSPECIFIED_ADDRESSE @326 DATA
    _ZN4inet10MacAddress19generateAutoAddressEv @327
    _ZN4inet10MacAddress20makeMulticastAddressENS_11Ipv4AddressE @328
    _ZN4inet10MacAddress21CDP_MULTICAST_ADDRESSE @329 DATA
    _ZN4inet10MacAddress21STP_MULTICAST_ADDRESSE @330 DATA
    _ZN4inet10MacAddress22LLDP_MULTICAST_ADDRESSE @331 DATA
    _ZN4inet10MacAddress23MULTICAST_PAUSE_ADDRESSE @332 DATA
    _ZN4inet10MacAddress32simulationLifecycleListenerAddedE @333 DATA
    _ZN4inet10MacAddress8tryParseEPKc @334
    _ZN4inet10MoBanLocal10initializeEi @335
    _ZN4inet10MoBanLocal15computeMaxSpeedEv @336
    _ZN4inet10MoBanLocal17setTargetPositionEv @337
    _ZN4inet10MoBanLocal18getCurrentPositionEv @338
    _ZN4inet10MoBanLocal18getCurrentVelocityEv @339
    _ZN4inet10MoBanLocal18setInitialPositionEv @340
    _ZN4inet10MoBanLocal18setMoBANParametersENS_5CoordEdd @341
    _ZN4inet10MoBanLocalC1Ev @342
    _ZN4inet10MoBanLocalC2Ev @343
    _ZN4inet10MplsHeader12parsimUnpackEPN7omnetpp11cCommBufferE @344
    _ZN4inet10MplsHeader4copyERKS0_ @345
    _ZN4inet10MplsHeader4setSEb @346
    _ZN4inet10MplsHeader5setTcEh @347
    _ZN4inet10MplsHeader6setTtlEh @348
    _ZN4inet10MplsHeader8setLabelEj @349
    _ZN4inet10MplsHeaderC1ERKS0_ @350
    _ZN4inet10MplsHeaderC1Ev @351
    _ZN4inet10MplsHeaderC2ERKS0_ @352
    _ZN4inet10MplsHeaderC2Ev @353
    _ZN4inet10MplsHeaderD0Ev @354
    _ZN4inet10MplsHeaderD1Ev @355
    _ZN4inet10MplsHeaderD2Ev @356
    _ZN4inet10MplsHeaderaSERKS0_ @357
    _ZN4inet10NodeStatus10initializeEi @358
    _ZN4inet10NodeStatus14getStateByNameEPKc @359
    _ZN4inet10NodeStatus20handleOperationStageEPNS_18LifecycleOperationEPNS_13IDoneCallbackE @360
    _ZN4inet10NodeStatus23nodeStatusChangedSignalE @361 DATA
    _ZN4inet10NodeStatus8setStateENS0_5StateE @362
    _ZN4inet10PacketDump10dumpPacketEbPKN7omnetpp7cPacketE @363
    _ZN4inet10PacketDump4dumpEPKcS2_ @364
    _ZN4inet10PacketDump7dumpArpEbPKcRKNS_12IntrusivePtrIKNS_9ArpPacketEEES2_ @365
    _ZN4inet10PacketDump7tcpDumpEbPKcRKNS_12IntrusivePtrIKNS_3tcp9TcpHeaderEEEiRKNSt7__cxx1112basic_stringIcSt11char_traitsIcESaIcEEESH_S2_ @366
    _ZN4inet10PacketDump7udpDumpEbPKcRKNS_12IntrusivePtrIKNS_9UdpHeaderEEERKNSt7__cxx1112basic_stringIcSt11char_traitsIcESaIcEEESG_S2_ @367
    _ZN4inet10PacketDump8dumpIpv4EbPKcRKNS_12IntrusivePtrIKNS_10Ipv4HeaderEEES2_ @368
    _ZN4inet10PacketDump8dumpIpv6EbPKcRKNS_12IntrusivePtrIKNS_10Ipv6HeaderEEES2_ @369
    _ZN4inet10PacketDump8sctpDumpEPKcPNS_6PacketERKNS_12IntrusivePtrIKNS_4sctp10SctpHeaderEEERKNSt7__cxx1112basic_stringIcSt11char_traitsIcESaIcEEESJ_S2_ @370
    _ZN4inet10PacketDumpC1Ev @371
    _ZN4inet10PacketDumpC2Ev @372
    _ZN4inet10PacketDumpD1Ev @373
    _ZN4inet10PacketDumpD2Ev @374
    _ZN4inet10PcapReader10readPacketEv @375
    _ZN4inet10PcapReader8openPcapEPKcS2_ @376
    _ZN4inet10PcapReader9closePcapEv @377
    _ZN4inet10PcapWriter11writePacketEN7omnetpp7SimTimeEPKNS_6PacketE @378
    _ZN4inet10PcapWriter8openPcapEPKcjj @379
    _ZN4inet10PcapWriter9closePcapEv @380
    _ZN4inet10PcapWriterD1Ev @381
    _ZN4inet10PcapWriterD2Ev @382
    _ZN4inet10PlotFigure11addChildrenEv @383
    _ZN4inet10PlotFigure11setPlotSizeERKN7omnetpp7cFigure5PointE @384
    _ZN4inet10PlotFigure12redrawXTicksEv @385
    _ZN4inet10PlotFigure12redrawYTicksEv @386
    _ZN4inet10PlotFigure12setLabelFontERKN7omnetpp7cFigure4FontE @387
    _ZN4inet10PlotFigure12setLineColorEiRKN7omnetpp7cFigure5ColorE @388
    _ZN4inet10PlotFigure12setNumSeriesEi @389
    _ZN4inet10PlotFigure12setXTickSizeEd @390
    _ZN4inet10PlotFigure12setYTickSizeEd @391
    _ZN4inet10PlotFigure13setLabelColorERKN7omnetpp7cFigure5ColorE @392
    _ZN4inet10PlotFigure13setTimeWindowEd @393
    _ZN4inet10PlotFigure13setXTickCountEi @394
    _ZN4inet10PlotFigure13setYTickCountEi @395
    _ZN4inet10PlotFigure14refreshDisplayEv @396
    _ZN4inet10PlotFigure14setLabelOffsetEi @397
    _ZN4inet10PlotFigure18setBackgroundColorERKN7omnetpp7cFigure5ColorE @398
    _ZN4inet10PlotFigure4plotEv @399
    _ZN4inet10PlotFigure5parseEPN7omnetpp9cPropertyE @400
    _ZN4inet10PlotFigure6layoutEv @401
    _ZN4inet10PlotFigure7setMaxXEd @402
    _ZN4inet10PlotFigure7setMaxYEd @403
    _ZN4inet10PlotFigure7setMinXEd @404
    _ZN4inet10PlotFigure7setMinYEd @405
    _ZN4inet10PlotFigure8setValueEidd @406
    _ZN4inet10PlotFigure9setBoundsERKN7omnetpp7cFigure9RectangleE @407
    _ZN4inet10PlotFigureC1EPKc @408
    _ZN4inet10PlotFigureC2EPKc @409
    _ZN4inet10Polyhedron10mergeFacesEPNS_14PolyhedronFaceES2_PNS_15PolyhedronPointE @410
    _ZN4inet10Polyhedron12connectFacesEPNS_14PolyhedronFaceE @411
    _ZN4inet10Polyhedron15buildConvexHullEv @412
    _ZN4inet10Polyhedron17purgeWrappedFacesEv @413
    _ZN4inet10Polyhedron18cleanConflictGraphERKSt6vectorIPNS_14PolyhedronFaceESaIS3_EE @414
    _ZN4inet10Polyhedron18purgeConflictFacesERKSt6vectorIPNS_14PolyhedronFaceESaIS3_EE @415
    _ZN4inet10Polyhedron23initializeConflictGraphEv @416
    _ZN4inet10Polyhedron24createInitialTetrahedronEv @417
    _ZN4inet10Polyhedron25setContlictListForNewFaceEPNS_14PolyhedronFaceEPKS1_S4_ @418
    _ZN4inet10Polyhedron30generateAndAddTetrahedronFacesERKSt6vectorIPNS_15PolyhedronPointESaIS3_EE @419
    _ZN4inet10Polyhedron7addFaceEPNS_14PolyhedronFaceE @420
    _ZN4inet10PolyhedronC1ERKSt6vectorINS_5CoordESaIS2_EE @421
    _ZN4inet10PolyhedronC2ERKSt6vectorINS_5CoordESaIS2_EE @422
    _ZN4inet10PolyhedronD0Ev @423
    _ZN4inet10PolyhedronD1Ev @424
    _ZN4inet10PolyhedronD2Ev @425
    _ZN4inet10PppTrailer12parsimUnpackEPN7omnetpp11cCommBufferE @426
    _ZN4inet10PppTrailer4copyERKS0_ @427
    _ZN4inet10PppTrailer6setFcsEs @428
    _ZN4inet10PppTrailer7setFlagEs @429
    _ZN4inet10PppTrailerC1ERKS0_ @430
    _ZN4inet10PppTrailerC1Ev @431
    _ZN4inet10PppTrailerC2ERKS0_ @432
    _ZN4inet10PppTrailerC2Ev @433
    _ZN4inet10PppTrailerD0Ev @434
    _ZN4inet10PppTrailerD1Ev @435
    _ZN4inet10PppTrailerD2Ev @436
    _ZN4inet10PppTraileraSERKS0_ @437
    _ZN4inet10Quaternion14rotationFromToERKNS_5CoordES3_ @438
    _ZN4inet10Quaternion3NILE @439 DATA
    _ZN4inet10Quaternion5slerpERKS0_S2_d @440
    _ZN4inet10Quaternion8IDENTITYE @441 DATA
    _ZN4inet10QuaternionC1ERKNS_11EulerAnglesE @442
    _ZN4inet10QuaternionC1ERKNS_5CoordEd @443
    _ZN4inet10QuaternionC2ERKNS_11EulerAnglesE @444
    _ZN4inet10QuaternionC2ERKNS_5CoordEd @445
    _ZN4inet10QuaternionmLERKS0_ @446
    _ZN4inet10RsvpHopObjC1Ev @447
    _ZN4inet10RsvpHopObjC2Ev @448
    _ZN4inet10RsvpPacket10setSessionERKNS_10SessionObjE @449
    _ZN4inet10RsvpPacket12parsimUnpackEPN7omnetpp11cCommBufferE @450
    _ZN4inet10RsvpPacket16setChecksumValidEb @451
    _ZN4inet10RsvpPacket4copyERKS0_ @452
    _ZN4inet10RsvpPacketC1ERKS0_ @453
    _ZN4inet10RsvpPacketC1Ev @454
    _ZN4inet10RsvpPacketC2ERKS0_ @455
    _ZN4inet10RsvpPacketC2Ev @456
    _ZN4inet10RsvpPacketD0Ev @457
    _ZN4inet10RsvpPacketD1Ev @458
    _ZN4inet10RsvpPacketD2Ev @459
    _ZN4inet10RsvpPacketaSERKS0_ @460
    _ZN4inet10SctpClient10initializeEi @461
    _ZN4inet10SctpClient11handleTimerEPN7omnetpp8cMessageE @462
    _ZN4inet10SctpClient11sendRequestEb @463
    _ZN4inet10SctpClient12socketClosedEPNS_10SctpSocketE @464
    _ZN4inet10SctpClient13handleMessageEPN7omnetpp8cMessageE @465
    _ZN4inet10SctpClient13socketFailureEPNS_10SctpSocketEi @466
    _ZN4inet10SctpClient14echoedPkSignalE @467 DATA
    _ZN4inet10SctpClient14setPrimaryPathEPKc @468
    _ZN4inet10SctpClient16sendQueueRequestEv @469
    _ZN4inet10SctpClient16socketPeerClosedEPNS_10SctpSocketE @470
    _ZN4inet10SctpClient17socketDataArrivedEPNS_10SctpSocketEPNS_6PacketEb @471
    _ZN4inet10SctpClient17socketEstablishedEPNS_10SctpSocketEm @472
    _ZN4inet10SctpClient18sendRequestArrivedEPNS_10SctpSocketE @473
    _ZN4inet10SctpClient19msgAbandonedArrivedEPNS_10SctpSocketE @474
    _ZN4inet10SctpClient19socketStatusArrivedEPNS_10SctpSocketEPNS_13SctpStatusReqE @475
    _ZN4inet10SctpClient22sendqueueAbatedArrivedEPNS_10SctpSocketEm @476
    _ZN4inet10SctpClient23shutdownReceivedArrivedEPNS_10SctpSocketE @477
    _ZN4inet10SctpClient27sendStreamResetNotificationEv @478
    _ZN4inet10SctpClient29socketDataNotificationArrivedEPNS_10SctpSocketEPNS_7MessageE @479
    _ZN4inet10SctpClient5closeEv @480
    _ZN4inet10SctpClient6finishEv @481
    _ZN4inet10SctpClient7connectEv @482
    _ZN4inet10SctpClientC1Ev @483
    _ZN4inet10SctpClientC2Ev @484
    _ZN4inet10SctpClientD0Ev @485
    _ZN4inet10SctpClientD1Ev @486
    _ZN4inet10SctpClientD2Ev @487
    _ZN4inet10SctpRcvReq12parsimUnpackEPN7omnetpp11cCommBufferE @488
    _ZN4inet10SctpRcvReq4copyERKS0_ @489
    _ZN4inet10SctpRcvReq6setTsnEj @490
    _ZN4inet10SctpRcvReq7setPpidEj @491
    _ZN4inet10SctpRcvReq9setCumTsnEj @492
    _ZN4inet10SctpRcvReqC1ERKS0_ @493
    _ZN4inet10SctpRcvReqC1Ev @494
    _ZN4inet10SctpRcvReqC2ERKS0_ @495
    _ZN4inet10SctpRcvReqC2Ev @496
    _ZN4inet10SctpRcvReqD0Ev @497
    _ZN4inet10SctpRcvReqD1Ev @498
    _ZN4inet10SctpRcvReqD2Ev @499
    _ZN4inet10SctpRcvReqaSERKS0_ @500
    _ZN4inet10SctpRtoReq12parsimUnpackEPN7omnetpp11cCommBufferE @501
    _ZN4inet10SctpRtoReq13setRtoInitialEd @502
    _ZN4inet10SctpRtoReq4copyERKS0_ @503
    _ZN4inet10SctpRtoReq9setRtoMaxEd @504
    _ZN4inet10SctpRtoReq9setRtoMinEd @505
    _ZN4inet10SctpRtoReqC1ERKS0_ @506
    _ZN4inet10SctpRtoReqC1Ev @507
    _ZN4inet10SctpRtoReqC2ERKS0_ @508
    _ZN4inet10SctpRtoReqC2Ev @509
    _ZN4inet10SctpRtoReqD0Ev @510
    _ZN4inet10SctpRtoReqD1Ev @511
    _ZN4inet10SctpRtoReqD2Ev @512
    _ZN4inet10SctpRtoReqaSERKS0_ @513
    _ZN4inet10SctpServer10initializeEi @514
    _ZN4inet10SctpServer11handleTimerEPN7omnetpp8cMessageE @515
    _ZN4inet10SctpServer13handleMessageEPN7omnetpp8cMessageE @516
    _ZN4inet10SctpServer14sendOrScheduleEPN7omnetpp8cMessageE @517
    _ZN4inet10SctpServer14sendOrScheduleEPNS_6PacketE @518
    _ZN4inet10SctpServer14sendOrScheduleEPNS_7MessageE @519
    _ZN4inet10SctpServer15generateAndSendEv @520
    _ZN4inet10SctpServer18makeDefaultReceiveEv @521
    _ZN4inet10SctpServer18makeReceiveRequestEPN7omnetpp8cMessageE @522
    _ZN4inet10SctpServer21makeAbortNotificationEPNS_14SctpCommandReqE @523
    _ZN4inet10SctpServer6finishEv @524
    _ZN4inet10SctpServerC1Ev @525
    _ZN4inet10SctpServerC2Ev @526
    _ZN4inet10SctpServerD0Ev @527
    _ZN4inet10SctpServerD1Ev @528
    _ZN4inet10SctpServerD2Ev @529
    _ZN4inet10SctpSocket10addAddressENS_9L3AddressE @530
    _ZN4inet10SctpSocket10sendToSctpEPN7omnetpp8cMessageE @531
    _ZN4inet10SctpSocket10setRtoInfoEddd @532
    _ZN4inet10SctpSocket11nextAssocIdE @533 DATA
    _ZN4inet10SctpSocket11sendRequestEPN7omnetpp8cMessageE @534
    _ZN4inet10SctpSocket11setCallbackEPNS0_9ICallbackE @535
    _ZN4inet10SctpSocket12acceptSocketEi @536
    _ZN4inet10SctpSocket13requestStatusEv @537
    _ZN4inet10SctpSocket14processMessageEPN7omnetpp8cMessageE @538
    _ZN4inet10SctpSocket16getSocketOptionsEv @539
    _ZN4inet10SctpSocket16sendNotificationEPN7omnetpp8cMessageE @540
    _ZN4inet10SctpSocket17setStreamPriorityEjj @541
    _ZN4inet10SctpSocket4bindENS_9L3AddressEi @542
    _ZN4inet10SctpSocket4bindEi @543
    _ZN4inet10SctpSocket4sendEPNS_6PacketE @544
    _ZN4inet10SctpSocket5abortEv @545
    _ZN4inet10SctpSocket5bindxESt6vectorINS_9L3AddressESaIS2_EEi @546
    _ZN4inet10SctpSocket5closeEi @547
    _ZN4inet10SctpSocket6acceptEii @548
    _ZN4inet10SctpSocket6listenEbbjj @549
    _ZN4inet10SctpSocket6listenEjbjbi @550
    _ZN4inet10SctpSocket7connectENS_9L3AddressEibij @551
    _ZN4inet10SctpSocket7connectEiNS_9L3AddressEijb @552
    _ZN4inet10SctpSocket7destroyEv @553
    _ZN4inet10SctpSocket8connectxESt6vectorINS_9L3AddressESaIS2_EEibij @554
    _ZN4inet10SctpSocket8shutdownEi @555
    _ZN4inet10SctpSocket9stateNameEi @556
    _ZN4inet10SctpSocketC1EPN7omnetpp8cMessageE @557
    _ZN4inet10SctpSocketC1Eb @558
    _ZN4inet10SctpSocketC2EPN7omnetpp8cMessageE @559
    _ZN4inet10SctpSocketC2Eb @560
    _ZN4inet10SctpSocketD0Ev @561
    _ZN4inet10SctpSocketD1Ev @562
    _ZN4inet10SctpSocketD2Ev @563
    _ZN4inet10SessionObjC1Ev @564
    _ZN4inet10SessionObjC2Ev @565
    _ZN4inet10SliceChunk12convertChunkERKSt9type_infoRKNS_12IntrusivePtrINS_5ChunkEEENS_5units5valueIxNS9_5units1bEEESD_i @566
    _ZN4inet10SliceChunk12forEachChildEPN7omnetpp8cVisitorE @567
    _ZN4inet10SliceChunk14doInsertAtBackERKNS_12IntrusivePtrIKNS_5ChunkEEE @568
    _ZN4inet10SliceChunk14doRemoveAtBackENS_5units5valueIxNS1_5units1bEEE @569
    _ZN4inet10SliceChunk15doInsertAtFrontERKNS_12IntrusivePtrIKNS_5ChunkEEE @570
    _ZN4inet10SliceChunk15doRemoveAtFrontENS_5units5valueIxNS1_5units1bEEE @571
    _ZN4inet10SliceChunk9setLengthENS_5units5valueIxNS1_5units1bEEE @572
    _ZN4inet10SliceChunk9setOffsetENS_5units5valueIxNS1_5units1bEEE @573
    _ZN4inet10SliceChunkC1ERKNS_12IntrusivePtrINS_5ChunkEEENS_5units5valueIxNS6_5units1bEEESA_ @574
    _ZN4inet10SliceChunkC1ERKS0_ @575
    _ZN4inet10SliceChunkC1Ev @576
    _ZN4inet10SliceChunkC2ERKNS_12IntrusivePtrINS_5ChunkEEENS_5units5valueIxNS6_5units1bEEESA_ @577
    _ZN4inet10SliceChunkC2ERKS0_ @578
    _ZN4inet10SliceChunkC2Ev @579
    _ZN4inet10TcpAppBase10initializeEi @580
    _ZN4inet10TcpAppBase10sendPacketEPNS_6PacketE @581
    _ZN4inet10TcpAppBase12socketClosedEPNS_9TcpSocketE @582
    _ZN4inet10TcpAppBase13connectSignalE @583 DATA
    _ZN4inet10TcpAppBase13socketFailureEPNS_9TcpSocketEi @584
    _ZN4inet10TcpAppBase16socketPeerClosedEPNS_9TcpSocketE @585
    _ZN4inet10TcpAppBase17socketDataArrivedEPNS_9TcpSocketEPNS_6PacketEb @586
    _ZN4inet10TcpAppBase17socketEstablishedEPNS_9TcpSocketE @587
    _ZN4inet10TcpAppBase19handleMessageWhenUpEPN7omnetpp8cMessageE @588
    _ZN4inet10TcpAppBase5closeEv @589
    _ZN4inet10TcpAppBase6finishEv @590
    _ZN4inet10TcpAppBase7connectEv @591
    _ZN4inet10TcpCommand12parsimUnpackEPN7omnetpp11cCommBufferE @592
    _ZN4inet10TcpCommand4copyERKS0_ @593
    _ZN4inet10TcpCommand9setUserIdEi @594
    _ZN4inet10TcpCommandC1ERKS0_ @595
    _ZN4inet10TcpCommandC1Ev @596
    _ZN4inet10TcpCommandC2ERKS0_ @597
    _ZN4inet10TcpCommandC2Ev @598
    _ZN4inet10TcpCommandD0Ev @599
    _ZN4inet10TcpCommandD1Ev @600
    _ZN4inet10TcpCommandD2Ev @601
    _ZN4inet10TcpCommandaSERKS0_ @602
    _ZN4inet10TcpEchoApp10initializeEi @603
    _ZN4inet10TcpEchoApp6finishEv @604
    _ZN4inet10TcpEchoApp8sendDownEPNS_6PacketE @605
    _ZN4inet10TcpEchoAppC1Ev @606
    _ZN4inet10TcpEchoAppC2Ev @607
    _ZN4inet10TcpEchoAppD0Ev @608
    _ZN4inet10TcpEchoAppD1Ev @609
    _ZN4inet10TcpEchoAppD2Ev @610
    _ZN4inet10TcpSinkApp10initializeEi @611
    _ZN4inet10TcpSinkApp6finishEv @612
    _ZN4inet10TcpSinkAppC1Ev @613
    _ZN4inet10TcpSinkAppC2Ev @614
    _ZN4inet10TcpSinkAppD0Ev @615
    _ZN4inet10TcpSinkAppD1Ev @616
    _ZN4inet10TcpSinkAppD2Ev @617
    _ZN4inet10TlvOptions12parsimUnpackEPN7omnetpp11cCommBufferE @618
    _ZN4inet10TlvOptions12setTlvOptionEyPNS_13TlvOptionBaseE @619
    _ZN4inet10TlvOptions13dropTlvOptionEPNS_13TlvOptionBaseE @620
    _ZN4inet10TlvOptions13dropTlvOptionEy @621
    _ZN4inet10TlvOptions14eraseTlvOptionEy @622
    _ZN4inet10TlvOptions15insertTlvOptionEPNS_13TlvOptionBaseE @623
    _ZN4inet10TlvOptions15insertTlvOptionEyPNS_13TlvOptionBaseE @624
    _ZN4inet10TlvOptions18deleteOptionByTypeEib @625
    _ZN4inet10TlvOptions21setTlvOptionArraySizeEy @626
    _ZN4inet10TlvOptions4copyERKS0_ @627
    _ZN4inet10TlvOptionsC1ERKS0_ @628
    _ZN4inet10TlvOptionsC1Ev @629
    _ZN4inet10TlvOptionsC2ERKS0_ @630
    _ZN4inet10TlvOptionsC2Ev @631
    _ZN4inet10TlvOptionsD0Ev @632
    _ZN4inet10TlvOptionsD1Ev @633
    _ZN4inet10TlvOptionsD2Ev @634
    _ZN4inet10TlvOptionsaSERKS0_ @635
    _ZN4inet10TosTagBase12parsimUnpackEPN7omnetpp11cCommBufferE @636
    _ZN4inet10TosTagBase4copyERKS0_ @637
    _ZN4inet10TosTagBase6setTosEi @638
    _ZN4inet10TosTagBaseC1ERKS0_ @639
    _ZN4inet10TosTagBaseC1Ev @640
    _ZN4inet10TosTagBaseC2ERKS0_ @641
    _ZN4inet10TosTagBaseC2Ev @642
    _ZN4inet10TosTagBaseD0Ev @643
    _ZN4inet10TosTagBaseD1Ev @644
    _ZN4inet10TosTagBaseD2Ev @645
    _ZN4inet10TosTagBaseaSERKS0_ @646
    _ZN4inet10UdpEchoApp10initializeEi @647
    _ZN4inet10UdpEchoApp12socketClosedEPNS_9UdpSocketE @648
    _ZN4inet10UdpEchoApp17socketDataArrivedEPNS_9UdpSocketEPNS_6PacketE @649
    _ZN4inet10UdpEchoApp18socketErrorArrivedEPNS_9UdpSocketEPNS_10IndicationE @650
    _ZN4inet10UdpEchoApp19handleMessageWhenUpEPN7omnetpp8cMessageE @651
    _ZN4inet10UdpEchoApp19handleStopOperationEPNS_18LifecycleOperationE @652
    _ZN4inet10UdpEchoApp20handleCrashOperationEPNS_18LifecycleOperationE @653
    _ZN4inet10UdpEchoApp20handleStartOperationEPNS_18LifecycleOperationE @654
    _ZN4inet10UdpEchoApp6finishEv @655
    _ZN4inet10visualizer10PacketDropC1ENS_16PacketDropReasonEPKN7omnetpp7cPacketEiRKNS_5CoordE @656
    _ZN4inet10visualizer10PacketDropC2ENS_16PacketDropReasonEPKN7omnetpp7cPacketEiRKNS_5CoordE @657
    _ZN4inet10visualizer10PacketDropD0Ev @658
    _ZN4inet10visualizer10PacketDropD1Ev @659
    _ZN4inet10visualizer10PacketDropD2Ev @660
    _ZN4inet10visualizer10PortFilter10setPatternEPKc @661
    _ZN4inet10visualizer11LineManager12getLineShiftEiiRKNS_5CoordES4_PKci @662
    _ZN4inet10visualizer11LineManager13addModuleLineEPKNS1_10ModuleLineE @663
    _ZN4inet10visualizer11LineManager13addModulePathEPKNS1_10ModulePathE @664
    _ZN4inet10visualizer11LineManager13updateOffsetsEPKNS1_10ModuleLineE @665
    _ZN4inet10visualizer11LineManager13updateOffsetsEPKNS1_10ModulePathE @666
    _ZN4inet10visualizer11LineManager13updateOffsetsEii @667
    _ZN4inet10visualizer11LineManager15osgLineManagersE @668 DATA
    _ZN4inet10visualizer11LineManager16removeModuleLineEPKNS1_10ModuleLineE @669
    _ZN4inet10visualizer11LineManager16removeModulePathEPKNS1_10ModulePathE @670
    _ZN4inet10visualizer11LineManager17getOsgLineManagerEPKN7omnetpp7cCanvasE @671
    _ZN4inet10visualizer11LineManager18canvasLineManagersE @672 DATA
    _ZN4inet10visualizer11LineManager18compareModuleLinesEPKNS1_10ModuleLineES4_ @673
    _ZN4inet10visualizer11LineManager18compareModulePathsESt4pairIPKNS1_10ModulePathEiES6_ @674
    _ZN4inet10visualizer11LineManager20getCanvasLineManagerEPKN7omnetpp7cCanvasE @675
    _ZN4inet10visualizer11QueueFilter10setPatternEPKc @676
    _ZN4inet10visualizer12ModuleFilter10setPatternEPKc @677
    _ZN4inet10visualizer14VisualizerBase10initializeEi @678
    _ZN4inet10visualizer15InterfaceFilter10setPatternEPKc @679
    _ZN4inet10visualizer17AnimationPositionC1EN7omnetpp7SimTimeEdd @680
    _ZN4inet10visualizer17AnimationPositionC1Ev @681
    _ZN4inet10visualizer17AnimationPositionC2EN7omnetpp7SimTimeEdd @682
    _ZN4inet10visualizer17AnimationPositionC2Ev @683
    _ZN4inet10visualizer17AnimationPositionaSERKS1_ @684
    _ZN4inet10visualizer17InfoOsgVisualizer10initializeEi @685
    _ZN4inet10visualizer17InfoOsgVisualizer20InfoOsgVisualizationC1EPNS0_27NetworkNodeOsgVisualizationEPN3osg5GeodeEi @686
    _ZN4inet10visualizer17InfoOsgVisualizer20InfoOsgVisualizationC2EPNS0_27NetworkNodeOsgVisualizationEPN3osg5GeodeEi @687
    _ZN4inet10visualizer17InfoOsgVisualizerD0Ev @688
    _ZN4inet10visualizer17InfoOsgVisualizerD1Ev @689
    _ZN4inet10visualizer17InfoOsgVisualizerD2Ev @690
    _ZN4inet10visualizer17NetworkNodeFilter10setPatternEPKc @691
    _ZN4inet10visualizer18InfoVisualizerBase10initializeEi @692
    _ZN4inet10visualizer18InfoVisualizerBase17InfoVisualizationC1Ei @693
    _ZN4inet10visualizer18InfoVisualizerBase17InfoVisualizationC2Ei @694
    _ZN4inet10visualizer18InfoVisualizerBase20addInfoVisualizationEPKNS1_17InfoVisualizationE @695
    _ZN4inet10visualizer18InfoVisualizerBase21addInfoVisualizationsEv @696
    _ZN4inet10visualizer18InfoVisualizerBase21handleParameterChangeEPKc @697
    _ZN4inet10visualizer18InfoVisualizerBase23removeInfoVisualizationEPKNS1_17InfoVisualizationE @698
    _ZN4inet10visualizer18InfoVisualizerBase27removeAllInfoVisualizationsEv @699
    _ZN4inet10visualizer18LinkVisualizerBase10initializeEi @700
    _ZN4inet10visualizer18LinkVisualizerBase11unsubscribeEv @701
    _ZN4inet10visualizer18LinkVisualizerBase13getLastModuleEi @702
    _ZN4inet10visualizer18LinkVisualizerBase13receiveSignalEPN7omnetpp10cComponentEiPNS2_7cObjectES6_ @703
    _ZN4inet10visualizer18LinkVisualizerBase13setLastModuleEiPN7omnetpp7cModuleE @704
    _ZN4inet10visualizer18LinkVisualizerBase16removeLastModuleEi @705
    _ZN4inet10visualizer18LinkVisualizerBase17LinkVisualizationC1Eii @706
    _ZN4inet10visualizer18LinkVisualizerBase17LinkVisualizationC2Eii @707
    _ZN4inet10visualizer18LinkVisualizerBase20addLinkVisualizationESt4pairIiiEPKNS1_17LinkVisualizationE @708
    _ZN4inet10visualizer18LinkVisualizerBase20getLinkVisualizationESt4pairIiiE @709
    _ZN4inet10visualizer18LinkVisualizerBase21handleParameterChangeEPKc @710
    _ZN4inet10visualizer18LinkVisualizerBase23removeLinkVisualizationEPKNS1_17LinkVisualizationE @711
    _ZN4inet10visualizer18LinkVisualizerBase23updateLinkVisualizationEPN7omnetpp7cModuleES4_PNS2_7cPacketE @712
    _ZN4inet10visualizer18LinkVisualizerBase24refreshLinkVisualizationEPKNS1_17LinkVisualizationEPN7omnetpp7cPacketE @713
    _ZN4inet10visualizer18LinkVisualizerBase27removeAllLinkVisualizationsEv @714
    _ZN4inet10visualizer18LinkVisualizerBase9subscribeEv @715
    _ZN4inet10visualizer18LinkVisualizerBaseD0Ev @716
    _ZN4inet10visualizer18LinkVisualizerBaseD1Ev @717
    _ZN4inet10visualizer18LinkVisualizerBaseD2Ev @718
    _ZN4inet10visualizer18PathVisualizerBase10initializeEi @719
    _ZN4inet10visualizer18PathVisualizerBase11unsubscribeEv @720
    _ZN4inet10visualizer18PathVisualizerBase13receiveSignalEPN7omnetpp10cComponentEiPNS2_7cObjectES6_ @721
    _ZN4inet10visualizer18PathVisualizerBase17PathVisualizationC1ERKSt6vectorIiSaIiEE @722
    _ZN4inet10visualizer18PathVisualizerBase17PathVisualizationC2ERKSt6vectorIiSaIiEE @723
    _ZN4inet10visualizer18PathVisualizerBase17getIncompletePathEi @724
    _ZN4inet10visualizer18PathVisualizerBase19addToIncompletePathEiPN7omnetpp7cModuleE @725
    _ZN4inet10visualizer18PathVisualizerBase20addPathVisualizationEPKNS1_17PathVisualizationE @726
    _ZN4inet10visualizer18PathVisualizerBase20getPathVisualizationERKSt6vectorIiSaIiEE @727
    _ZN4inet10visualizer18PathVisualizerBase20removeIncompletePathEi @728
    _ZN4inet10visualizer18PathVisualizerBase21handleParameterChangeEPKc @729
    _ZN4inet10visualizer18PathVisualizerBase23removePathVisualizationEPKNS1_17PathVisualizationE @730
    _ZN4inet10visualizer18PathVisualizerBase23updatePathVisualizationERKSt6vectorIiSaIiEEPN7omnetpp7cPacketE @731
    _ZN4inet10visualizer18PathVisualizerBase24refreshPathVisualizationEPKNS1_17PathVisualizationEPN7omnetpp7cPacketE @732
    _ZN4inet10visualizer18PathVisualizerBase27removeAllPathVisualizationsEv @733
    _ZN4inet10visualizer18PathVisualizerBase9subscribeEv @734
    _ZN4inet10visualizer18PathVisualizerBaseD0Ev @735
    _ZN4inet10visualizer18PathVisualizerBaseD1Ev @736
    _ZN4inet10visualizer18PathVisualizerBaseD2Ev @737
    _ZN4inet10visualizer18QueueOsgVisualizer10initializeEi @738
    _ZN4inet10visualizer18QueueOsgVisualizer21QueueOsgVisualizationC1EPNS0_27NetworkNodeOsgVisualizationEPN3osg5GeodeEPNS_8queueing12IPacketQueueE @739
    _ZN4inet10visualizer18QueueOsgVisualizer21QueueOsgVisualizationC2EPNS0_27NetworkNodeOsgVisualizationEPN3osg5GeodeEPNS_8queueing12IPacketQueueE @740
    _ZN4inet10visualizer18QueueOsgVisualizerD0Ev @741
    _ZN4inet10visualizer18QueueOsgVisualizerD1Ev @742
    _ZN4inet10visualizer18QueueOsgVisualizerD2Ev @743
    _ZN4inet10visualizer18RadioOsgVisualizer10initializeEi @744
    _ZN4inet10visualizer18RadioOsgVisualizer21RadioOsgVisualizationC1EPNS0_27NetworkNodeOsgVisualizationEPN3osg5GeodeEi @745
    _ZN4inet10visualizer18RadioOsgVisualizer21RadioOsgVisualizationC2EPNS0_27NetworkNodeOsgVisualizationEPN3osg5GeodeEi @746
    _ZN4inet10visualizer18SceneOsgVisualizer10initializeEi @747
    _ZN4inet10visualizer18SceneOsgVisualizer15initializeSceneEv @748
    _ZN4inet10visualizer18SceneOsgVisualizer19initializeViewpointEv @749
    _ZN4inet10visualizer19MediumOsgVisualizer10initializeEi @750
    _ZN4inet10visualizer19MediumOsgVisualizer15setRadioOsgNodeEPKNS_13physicallayer6IRadioEPN3osg4NodeE @751
    _ZN4inet10visualizer19MediumOsgVisualizer16handleRadioAddedEPKNS_13physicallayer6IRadioE @752
    _ZN4inet10visualizer19MediumOsgVisualizer16setSignalOsgNodeEPKNS_13physicallayer13ITransmissionEPN3osg4NodeE @753
    _ZN4inet10visualizer19MediumOsgVisualizer17handleSignalAddedEPKNS_13physicallayer13ITransmissionE @754
    _ZN4inet10visualizer19MediumOsgVisualizer18handleRadioRemovedEPKNS_13physicallayer6IRadioE @755
    _ZN4inet10visualizer19MediumOsgVisualizer18removeRadioOsgNodeEPKNS_13physicallayer6IRadioE @756
    _ZN4inet10visualizer19MediumOsgVisualizer19handleSignalRemovedEPKNS_13physicallayer13ITransmissionE @757
    _ZN4inet10visualizer19MediumOsgVisualizer19removeSignalOsgNodeEPKNS_13physicallayer13ITransmissionE @758
    _ZN4inet10visualizer19MediumOsgVisualizer24handleSignalArrivalEndedEPKNS_13physicallayer10IReceptionE @759
    _ZN4inet10visualizer19MediumOsgVisualizer26handleSignalArrivalStartedEPKNS_13physicallayer10IReceptionE @760
    _ZN4inet10visualizer19MediumOsgVisualizer26handleSignalDepartureEndedEPKNS_13physicallayer13ITransmissionE @761
    _ZN4inet10visualizer19MediumOsgVisualizer28handleSignalDepartureStartedEPKNS_13physicallayer13ITransmissionE @762
    _ZN4inet10visualizer19QueueVisualizerBase10initializeEi @763
    _ZN4inet10visualizer19QueueVisualizerBase12QueueVisitor5visitEPN7omnetpp7cObjectE @764
    _ZN4inet10visualizer19QueueVisualizerBase18QueueVisualizationC1EPNS_8queueing12IPacketQueueE @765
    _ZN4inet10visualizer19QueueVisualizerBase18QueueVisualizationC2EPNS_8queueing12IPacketQueueE @766
    _ZN4inet10visualizer19QueueVisualizerBase21addQueueVisualizationEPKNS1_18QueueVisualizationE @767
    _ZN4inet10visualizer19QueueVisualizerBase21handleParameterChangeEPKc @768
    _ZN4inet10visualizer19QueueVisualizerBase22addQueueVisualizationsEv @769
    _ZN4inet10visualizer19QueueVisualizerBase24removeQueueVisualizationEPKNS1_18QueueVisualizationE @770
    _ZN4inet10visualizer19QueueVisualizerBase28removeAllQueueVisualizationsEv @771
    _ZN4inet10visualizer19RadioVisualizerBase10initializeEi @772
    _ZN4inet10visualizer19RadioVisualizerBase11unsubscribeEv @773
    _ZN4inet10visualizer19RadioVisualizerBase13receiveSignalEPN7omnetpp10cComponentEilPNS2_7cObjectE @774
    _ZN4inet10visualizer19RadioVisualizerBase18RadioVisualizationC1Ei @775
    _ZN4inet10visualizer19RadioVisualizerBase18RadioVisualizationC2Ei @776
    _ZN4inet10visualizer19RadioVisualizerBase21addRadioVisualizationEPKNS1_18RadioVisualizationE @777
    _ZN4inet10visualizer19RadioVisualizerBase21getRadioVisualizationEi @778
    _ZN4inet10visualizer19RadioVisualizerBase21handleParameterChangeEPKc @779
    _ZN4inet10visualizer19RadioVisualizerBase24removeRadioVisualizationEPKNS1_18RadioVisualizationE @780
    _ZN4inet10visualizer19RadioVisualizerBase9subscribeEv @781
    _ZN4inet10visualizer19RadioVisualizerBaseD0Ev @782
    _ZN4inet10visualizer19RadioVisualizerBaseD1Ev @783
    _ZN4inet10visualizer19RadioVisualizerBaseD2Ev @784
    _ZN4inet10visualizer19SceneVisualizerBase10initializeEi @785
    _ZN4inet10visualizer19SceneVisualizerBase14getSceneBoundsEv @786
    _ZN4inet10visualizer20InfoCanvasVisualizer10initializeEi @787
    _ZN4inet10visualizer20InfoCanvasVisualizer20addInfoVisualizationEPKNS0_18InfoVisualizerBase17InfoVisualizationE @788
    _ZN4inet10visualizer20InfoCanvasVisualizer23InfoCanvasVisualizationC1EPNS0_30NetworkNodeCanvasVisualizationEPNS_16BoxedLabelFigureEi @789
    _ZN4inet10visualizer20InfoCanvasVisualizer23InfoCanvasVisualizationC2EPNS0_30NetworkNodeCanvasVisualizationEPNS_16BoxedLabelFigureEi @790
    _ZN4inet10visualizer20InfoCanvasVisualizer23InfoCanvasVisualizationD0Ev @791
    _ZN4inet10visualizer20InfoCanvasVisualizer23InfoCanvasVisualizationD1Ev @792
    _ZN4inet10visualizer20InfoCanvasVisualizer23InfoCanvasVisualizationD2Ev @793
    _ZN4inet10visualizer20InfoCanvasVisualizer23removeInfoVisualizationEPKNS0_18InfoVisualizerBase17InfoVisualizationE @794
    _ZN4inet10visualizer20InfoCanvasVisualizerD0Ev @795
    _ZN4inet10visualizer20InfoCanvasVisualizerD1Ev @796
    _ZN4inet10visualizer20InfoCanvasVisualizerD2Ev @797
    _ZN4inet10visualizer20MediumVisualizerBase10initializeEi @798
    _ZN4inet10visualizer20MediumVisualizerBase13receiveSignalEPN7omnetpp10cComponentEiPNS2_7cObjectES6_ @799
    _ZN4inet10visualizer20MediumVisualizerBase17handleSignalAddedEPKNS_13physicallayer13ITransmissionE @800
    _ZN4inet10visualizer20MediumVisualizerBase19handleSignalRemovedEPKNS_13physicallayer13ITransmissionE @801
    _ZN4inet10visualizer20MediumVisualizerBase21handleParameterChangeEPKc @802
    _ZN4inet10visualizer20MediumVisualizerBase26handleSignalArrivalStartedEPKNS_13physicallayer10IReceptionE @803
    _ZN4inet10visualizer20MediumVisualizerBaseD0Ev @804
    _ZN4inet10visualizer20MediumVisualizerBaseD1Ev @805
    _ZN4inet10visualizer20MediumVisualizerBaseD2Ev @806
    _ZN4inet10visualizer21LinkOsgVisualizerBase10initializeEi @807
    _ZN4inet10visualizer21LinkOsgVisualizerBase20LinkOsgVisualizationC1EPNS_3osg8LineNodeEii @808
    _ZN4inet10visualizer21LinkOsgVisualizerBase20LinkOsgVisualizationC2EPNS_3osg8LineNodeEii @809
    _ZN4inet10visualizer21LinkOsgVisualizerBase20LinkOsgVisualizationD0Ev @810
    _ZN4inet10visualizer21LinkOsgVisualizerBase20LinkOsgVisualizationD1Ev @811
    _ZN4inet10visualizer21LinkOsgVisualizerBase20LinkOsgVisualizationD2Ev @812
    _ZN4inet10visualizer21LinkOsgVisualizerBase20addLinkVisualizationESt4pairIiiEPKNS0_18LinkVisualizerBase17LinkVisualizationE @813
    _ZN4inet10visualizer21LinkOsgVisualizerBase23removeLinkVisualizationEPKNS0_18LinkVisualizerBase17LinkVisualizationE @814
    _ZN4inet10visualizer21LinkOsgVisualizerBaseD0Ev @815
    _ZN4inet10visualizer21LinkOsgVisualizerBaseD1Ev @816
    _ZN4inet10visualizer21LinkOsgVisualizerBaseD2Ev @817
    _ZN4inet10visualizer21MobilityOsgVisualizer10initializeEi @818
    _ZN4inet10visualizer21MobilityOsgVisualizer13receiveSignalEPN7omnetpp10cComponentEiPNS2_7cObjectES6_ @819
    _ZN4inet10visualizer21MobilityOsgVisualizer24MobilityOsgVisualizationC1EPN3osg5GeodeEPNS_9IMobilityE @820
    _ZN4inet10visualizer21MobilityOsgVisualizer24MobilityOsgVisualizationC2EPN3osg5GeodeEPNS_9IMobilityE @821
    _ZN4inet10visualizer21MobilityOsgVisualizer24setMobilityVisualizationEPKNS_9IMobilityEPNS1_24MobilityOsgVisualizationE @822
    _ZN4inet10visualizer21MobilityOsgVisualizer27ensureMobilityVisualizationEPNS_9IMobilityE @823
    _ZN4inet10visualizer21MobilityOsgVisualizer27removeMobilityVisualizationEPKNS_9IMobilityE @824
    _ZN4inet10visualizer21PathOsgVisualizerBase10initializeEi @825
    _ZN4inet10visualizer21PathOsgVisualizerBase20PathOsgVisualizationC1ERKSt6vectorIiSaIiEEPN3osg4NodeE @826
    _ZN4inet10visualizer21PathOsgVisualizerBase20PathOsgVisualizationC2ERKSt6vectorIiSaIiEEPN3osg4NodeE @827
    _ZN4inet10visualizer21PathOsgVisualizerBase20PathOsgVisualizationD0Ev @828
    _ZN4inet10visualizer21PathOsgVisualizerBase20PathOsgVisualizationD1Ev @829
    _ZN4inet10visualizer21PathOsgVisualizerBase20PathOsgVisualizationD2Ev @830
    _ZN4inet10visualizer21PathOsgVisualizerBase20addPathVisualizationEPKNS0_18PathVisualizerBase17PathVisualizationE @831
    _ZN4inet10visualizer21PathOsgVisualizerBase23removePathVisualizationEPKNS0_18PathVisualizerBase17PathVisualizationE @832
    _ZN4inet10visualizer21PathOsgVisualizerBaseD0Ev @833
    _ZN4inet10visualizer21PathOsgVisualizerBaseD1Ev @834
    _ZN4inet10visualizer21PathOsgVisualizerBaseD2Ev @835
    _ZN4inet10visualizer21QueueCanvasVisualizer10initializeEi @836
    _ZN4inet10visualizer21QueueCanvasVisualizer21addQueueVisualizationEPKNS0_19QueueVisualizerBase18QueueVisualizationE @837
    _ZN4inet10visualizer21QueueCanvasVisualizer24QueueCanvasVisualizationC1EPNS0_30NetworkNodeCanvasVisualizationEPNS_11QueueFigureEPNS_8queueing12IPacketQueueE @838
    _ZN4inet10visualizer21QueueCanvasVisualizer24QueueCanvasVisualizationC2EPNS0_30NetworkNodeCanvasVisualizationEPNS_11QueueFigureEPNS_8queueing12IPacketQueueE @839
    _ZN4inet10visualizer21QueueCanvasVisualizer24QueueCanvasVisualizationD0Ev @840
    _ZN4inet10visualizer21QueueCanvasVisualizer24QueueCanvasVisualizationD1Ev @841
    _ZN4inet10visualizer21QueueCanvasVisualizer24QueueCanvasVisualizationD2Ev @842
    _ZN4inet10visualizer21QueueCanvasVisualizer24removeQueueVisualizationEPKNS0_19QueueVisualizerBase18QueueVisualizationE @843
    _ZN4inet10visualizer21QueueCanvasVisualizerD0Ev @844
    _ZN4inet10visualizer21QueueCanvasVisualizerD1Ev @845
    _ZN4inet10visualizer21QueueCanvasVisualizerD2Ev @846
    _ZN4inet10visualizer21RadioCanvasVisualizer10initializeEi @847
    _ZN4inet10visualizer21RadioCanvasVisualizer21addRadioVisualizationEPKNS0_19RadioVisualizerBase18RadioVisualizationE @848
    _ZN4inet10visualizer21RadioCanvasVisualizer24RadioCanvasVisualizationC1EPNS0_30NetworkNodeCanvasVisualizationEPNS_18IndexedImageFigureES6_S6_PN7omnetpp14cPolygonFigureEPNS7_11cOvalFigureESB_i @849
    _ZN4inet10visualizer21RadioCanvasVisualizer24RadioCanvasVisualizationC2EPNS0_30NetworkNodeCanvasVisualizationEPNS_18IndexedImageFigureES6_S6_PN7omnetpp14cPolygonFigureEPNS7_11cOvalFigureESB_i @850
    _ZN4inet10visualizer21RadioCanvasVisualizer24RadioCanvasVisualizationD0Ev @851
    _ZN4inet10visualizer21RadioCanvasVisualizer24RadioCanvasVisualizationD1Ev @852
    _ZN4inet10visualizer21RadioCanvasVisualizer24RadioCanvasVisualizationD2Ev @853
    _ZN4inet10visualizer21RadioCanvasVisualizer24removeRadioVisualizationEPKNS0_19RadioVisualizerBase18RadioVisualizationE @854
    _ZN4inet10visualizer21SceneCanvasVisualizer10initializeEi @855
    _ZN4inet10visualizer21SceneCanvasVisualizer11refreshAxisEd @856
    _ZN4inet10visualizer21SceneCanvasVisualizer14initializeAxisEd @857
    _ZN4inet10visualizer21SceneCanvasVisualizer14parseViewAngleEPKcRb @858
    _ZN4inet10visualizer21SceneCanvasVisualizer18displayDescriptionEPKc @859
    _ZN4inet10visualizer21SceneCanvasVisualizer21handleParameterChangeEPKc @860
    _ZN4inet10visualizer21SceneCanvasVisualizer7parse2DEPKcb @861
    _ZN4inet10visualizer22Ieee80211OsgVisualizer10initializeEi @862
    _ZN4inet10visualizer22Ieee80211OsgVisualizer25Ieee80211OsgVisualizationC1EPNS0_27NetworkNodeOsgVisualizationEPN3osg4NodeEii @863
    _ZN4inet10visualizer22Ieee80211OsgVisualizer25Ieee80211OsgVisualizationC2EPNS0_27NetworkNodeOsgVisualizationEPN3osg4NodeEii @864
    _ZN4inet10visualizer22Ieee80211OsgVisualizer25addIeee80211VisualizationEPKNS0_23Ieee80211VisualizerBase22Ieee80211VisualizationE @865
    _ZN4inet10visualizer22Ieee80211OsgVisualizer28createIeee80211VisualizationEPN7omnetpp7cModuleEPNS_14InterfaceEntryENSt7__cxx1112basic_stringIcSt11char_traitsIcESaIcEEENS_5units5valueIdNSD_7composeINSF_INSF_INSD_5units1mENSF_INSG_2kgENSD_3powINSG_1sELin2ELi1EEEEEEESH_EENSJ_ISK_Lin1ELi1EEEEEEE @866
    _ZN4inet10visualizer22Ieee80211OsgVisualizer28removeIeee80211VisualizationEPKNS0_23Ieee80211VisualizerBase22Ieee80211VisualizationE @867
    _ZN4inet10visualizer22Ieee80211OsgVisualizerD0Ev @868
    _ZN4inet10visualizer22Ieee80211OsgVisualizerD1Ev @869
    _ZN4inet10visualizer22Ieee80211OsgVisualizerD2Ev @870
    _ZN4inet10visualizer22LinkBreakOsgVisualizer25LinkBreakOsgVisualizationC1EPN3osg4NodeEii @871
    _ZN4inet10visualizer22LinkBreakOsgVisualizer25LinkBreakOsgVisualizationC2EPN3osg4NodeEii @872
    _ZN4inet10visualizer22LinkBreakOsgVisualizer25LinkBreakOsgVisualizationD0Ev @873
    _ZN4inet10visualizer22LinkBreakOsgVisualizer25LinkBreakOsgVisualizationD1Ev @874
    _ZN4inet10visualizer22LinkBreakOsgVisualizer25LinkBreakOsgVisualizationD2Ev @875
    _ZN4inet10visualizer22LinkBreakOsgVisualizer25addLinkBreakVisualizationEPKNS0_23LinkBreakVisualizerBase22LinkBreakVisualizationE @876
    _ZN4inet10visualizer22LinkBreakOsgVisualizer28removeLinkBreakVisualizationEPKNS0_23LinkBreakVisualizerBase22LinkBreakVisualizationE @877
    _ZN4inet10visualizer22LinkBreakOsgVisualizerD0Ev @878
    _ZN4inet10visualizer22LinkBreakOsgVisualizerD1Ev @879
    _ZN4inet10visualizer22LinkBreakOsgVisualizerD2Ev @880
    _ZN4inet10visualizer22MediumCanvasVisualizer10initializeEi @881
    _ZN4inet10visualizer22MediumCanvasVisualizer13receiveSignalEPN7omnetpp10cComponentEiPNS2_7cObjectES6_ @882
    _ZN4inet10visualizer22MediumCanvasVisualizer15setSignalFigureEPKNS_13physicallayer13ITransmissionEPN7omnetpp7cFigureE @883
    _ZN4inet10visualizer22MediumCanvasVisualizer16handleRadioAddedEPKNS_13physicallayer6IRadioE @884
    _ZN4inet10visualizer22MediumCanvasVisualizer17handleSignalAddedEPKNS_13physicallayer13ITransmissionE @885
    _ZN4inet10visualizer22MediumCanvasVisualizer17setAnimationSpeedEv @886
    _ZN4inet10visualizer22MediumCanvasVisualizer18handleRadioRemovedEPKNS_13physicallayer6IRadioE @887
    _ZN4inet10visualizer22MediumCanvasVisualizer18removeSignalFigureEPKNS_13physicallayer13ITransmissionE @888
    _ZN4inet10visualizer22MediumCanvasVisualizer19handleSignalRemovedEPKNS_13physicallayer13ITransmissionE @889
    _ZN4inet10visualizer22MediumCanvasVisualizer22setSignalArrivalFigureEPKNS_13physicallayer6IRadioEPN7omnetpp7cFigureE @890
    _ZN4inet10visualizer22MediumCanvasVisualizer24handleSignalArrivalEndedEPKNS_13physicallayer10IReceptionE @891
    _ZN4inet10visualizer22MediumCanvasVisualizer24setSignalDepartureFigureEPKNS_13physicallayer6IRadioEPN7omnetpp7cFigureE @892
    _ZN4inet10visualizer22MediumCanvasVisualizer25removeSignalArrivalFigureEPKNS_13physicallayer6IRadioE @893
    _ZN4inet10visualizer22MediumCanvasVisualizer26handleSignalArrivalStartedEPKNS_13physicallayer10IReceptionE @894
    _ZN4inet10visualizer22MediumCanvasVisualizer26handleSignalDepartureEndedEPKNS_13physicallayer13ITransmissionE @895
    _ZN4inet10visualizer22MediumCanvasVisualizer27removeSignalDepartureFigureEPKNS_13physicallayer6IRadioE @896
    _ZN4inet10visualizer22MediumCanvasVisualizer28handleSignalDepartureStartedEPKNS_13physicallayer13ITransmissionE @897
    _ZN4inet10visualizer22MobilityVisualizerBase10initializeEi @898
    _ZN4inet10visualizer22MobilityVisualizerBase11unsubscribeEv @899
    _ZN4inet10visualizer22MobilityVisualizerBase21MobilityVisualizationC1EPNS_9IMobilityE @900
    _ZN4inet10visualizer22MobilityVisualizerBase21MobilityVisualizationC2EPNS_9IMobilityE @901
    _ZN4inet10visualizer22MobilityVisualizerBase21handleParameterChangeEPKc @902
    _ZN4inet10visualizer22MobilityVisualizerBase9subscribeEv @903
    _ZN4inet10visualizer22MobilityVisualizerBaseD0Ev @904
    _ZN4inet10visualizer22MobilityVisualizerBaseD1Ev @905
    _ZN4inet10visualizer22MobilityVisualizerBaseD2Ev @906
    _ZN4inet10visualizer22SceneOsgVisualizerBase14initializeAxisEd @907
    _ZN4inet10visualizer22SceneOsgVisualizerBase15initializeSceneEv @908
    _ZN4inet10visualizer22SceneOsgVisualizerBase20initializeSceneFloorEv @909
    _ZN4inet10visualizer22SceneOsgVisualizerBase24getNetworkBoundingSphereEv @910
    _ZN4inet10visualizer22StatisticOsgVisualizer10initializeEi @911
    _ZN4inet10visualizer22StatisticOsgVisualizer25addStatisticVisualizationEPKNS0_23StatisticVisualizerBase22StatisticVisualizationE @912
    _ZN4inet10visualizer22StatisticOsgVisualizer28createStatisticVisualizationEPN7omnetpp10cComponentEi @913
    _ZN4inet10visualizer22StatisticOsgVisualizer28removeStatisticVisualizationEPKNS0_23StatisticVisualizerBase22StatisticVisualizationE @914
    _ZN4inet10visualizer22StatisticOsgVisualizer29refreshStatisticVisualizationEPKNS0_23StatisticVisualizerBase22StatisticVisualizationE @915
    _ZN4inet10visualizer22StatisticOsgVisualizerD0Ev @916
    _ZN4inet10visualizer22StatisticOsgVisualizerD1Ev @917
    _ZN4inet10visualizer22StatisticOsgVisualizerD2Ev @918
    _ZN4inet10visualizer23Ieee80211VisualizerBase10initializeEi @919
    _ZN4inet10visualizer23Ieee80211VisualizerBase11unsubscribeEv @920
    _ZN4inet10visualizer23Ieee80211VisualizerBase13receiveSignalEPN7omnetpp10cComponentEiPNS2_7cObjectES6_ @921
    _ZN4inet10visualizer23Ieee80211VisualizerBase21handleParameterChangeEPKc @922
    _ZN4inet10visualizer23Ieee80211VisualizerBase22Ieee80211VisualizationC1Eii @923
    _ZN4inet10visualizer23Ieee80211VisualizerBase22Ieee80211VisualizationC2Eii @924
    _ZN4inet10visualizer23Ieee80211VisualizerBase25addIeee80211VisualizationEPKNS1_22Ieee80211VisualizationE @925
    _ZN4inet10visualizer23Ieee80211VisualizerBase25getIeee80211VisualizationEPN7omnetpp7cModuleEPNS_14InterfaceEntryE @926
    _ZN4inet10visualizer23Ieee80211VisualizerBase28removeIeee80211VisualizationEPKNS1_22Ieee80211VisualizationE @927
    _ZN4inet10visualizer23Ieee80211VisualizerBase32removeAllIeee80211VisualizationsEv @928
    _ZN4inet10visualizer23Ieee80211VisualizerBase9subscribeEv @929
    _ZN4inet10visualizer23Ieee80211VisualizerBaseD0Ev @930
    _ZN4inet10visualizer23Ieee80211VisualizerBaseD1Ev @931
    _ZN4inet10visualizer23Ieee80211VisualizerBaseD2Ev @932
    _ZN4inet10visualizer23LinkBreakVisualizerBase10initializeEi @933
    _ZN4inet10visualizer23LinkBreakVisualizerBase11unsubscribeEv @934
    _ZN4inet10visualizer23LinkBreakVisualizerBase13receiveSignalEPN7omnetpp10cComponentEiPNS2_7cObjectES6_ @935
    _ZN4inet10visualizer23LinkBreakVisualizerBase21handleParameterChangeEPKc @936
    _ZN4inet10visualizer23LinkBreakVisualizerBase22LinkBreakVisualizationC1Eii @937
    _ZN4inet10visualizer23LinkBreakVisualizerBase22LinkBreakVisualizationC2Eii @938
    _ZN4inet10visualizer23LinkBreakVisualizerBase25addLinkBreakVisualizationEPKNS1_22LinkBreakVisualizationE @939
    _ZN4inet10visualizer23LinkBreakVisualizerBase28removeLinkBreakVisualizationEPKNS1_22LinkBreakVisualizationE @940
    _ZN4inet10visualizer23LinkBreakVisualizerBase32removeAllLinkBreakVisualizationsEv @941
    _ZN4inet10visualizer23LinkBreakVisualizerBase8findNodeENS_10MacAddressE @942
    _ZN4inet10visualizer23LinkBreakVisualizerBase9subscribeEv @943
    _ZN4inet10visualizer23LinkBreakVisualizerBaseD0Ev @944
    _ZN4inet10visualizer23LinkBreakVisualizerBaseD1Ev @945
    _ZN4inet10visualizer23LinkBreakVisualizerBaseD2Ev @946
    _ZN4inet10visualizer23PacketDropOsgVisualizer26PacketDropOsgVisualizationC1EPN3osg4NodeEPKNS0_10PacketDropE @947
    _ZN4inet10visualizer23PacketDropOsgVisualizer26PacketDropOsgVisualizationC2EPN3osg4NodeEPKNS0_10PacketDropE @948
    _ZN4inet10visualizer23PacketDropOsgVisualizer26PacketDropOsgVisualizationD0Ev @949
    _ZN4inet10visualizer23PacketDropOsgVisualizer26PacketDropOsgVisualizationD1Ev @950
    _ZN4inet10visualizer23PacketDropOsgVisualizer26PacketDropOsgVisualizationD2Ev @951
    _ZN4inet10visualizer23PacketDropOsgVisualizer26addPacketDropVisualizationEPKNS0_24PacketDropVisualizerBase23PacketDropVisualizationE @952
    _ZN4inet10visualizer23PacketDropOsgVisualizer29removePacketDropVisualizationEPKNS0_24PacketDropVisualizerBase23PacketDropVisualizationE @953
    _ZN4inet10visualizer23PacketDropOsgVisualizerD0Ev @954
    _ZN4inet10visualizer23PacketDropOsgVisualizerD1Ev @955
    _ZN4inet10visualizer23PacketDropOsgVisualizerD2Ev @956
    _ZN4inet10visualizer23SceneOsgEarthVisualizer10initializeEi @957
    _ZN4inet10visualizer23SceneOsgEarthVisualizer15initializeSceneEv @958
    _ZN4inet10visualizer23SceneOsgEarthVisualizer17initializeLocatorEv @959
    _ZN4inet10visualizer23SceneOsgEarthVisualizer19initializeViewpointEv @960
    _ZN4inet10visualizer23StatisticVisualizerBase10initializeEi @961
    _ZN4inet10visualizer23StatisticVisualizerBase11unsubscribeEv @962
    _ZN4inet10visualizer23StatisticVisualizerBase13processSignalEPN7omnetpp10cComponentEiSt8functionIFvPNS2_10cIListenerEEE @963
    _ZN4inet10visualizer23StatisticVisualizerBase17addResultRecorderEPN7omnetpp10cComponentEi @964
    _ZN4inet10visualizer23StatisticVisualizerBase17getResultRecorderEPN7omnetpp10cComponentEi @965
    _ZN4inet10visualizer23StatisticVisualizerBase18findResultRecorderEPN7omnetpp15cResultListenerE @966
    _ZN4inet10visualizer23StatisticVisualizerBase21handleParameterChangeEPKc @967
    _ZN4inet10visualizer23StatisticVisualizerBase25addStatisticVisualizationEPKNS1_22StatisticVisualizationE @968
    _ZN4inet10visualizer23StatisticVisualizerBase25getStatisticVisualizationEPN7omnetpp10cComponentEi @969
    _ZN4inet10visualizer23StatisticVisualizerBase28removeStatisticVisualizationEPKNS1_22StatisticVisualizationE @970
    _ZN4inet10visualizer23StatisticVisualizerBase29refreshStatisticVisualizationEPKNS1_22StatisticVisualizationE @971
    _ZN4inet10visualizer23StatisticVisualizerBase32removeAllStatisticVisualizationsEv @972
    _ZN4inet10visualizer23StatisticVisualizerBase7getTextB5cxx11EPKNS1_22StatisticVisualizationE @973
    _ZN4inet10visualizer23StatisticVisualizerBase7getUnitEPN7omnetpp10cComponentE @974
    _ZN4inet10visualizer23StatisticVisualizerBase9subscribeEv @975
    _ZN4inet10visualizer23StatisticVisualizerBaseD0Ev @976
    _ZN4inet10visualizer23StatisticVisualizerBaseD1Ev @977
    _ZN4inet10visualizer23StatisticVisualizerBaseD2Ev @978
    _ZN4inet10visualizer24LinkCanvasVisualizerBase10initializeEi @979
    _ZN4inet10visualizer24LinkCanvasVisualizerBase20addLinkVisualizationESt4pairIiiEPKNS0_18LinkVisualizerBase17LinkVisualizationE @980
    _ZN4inet10visualizer24LinkCanvasVisualizerBase23LinkCanvasVisualizationC1EPNS_17LabeledLineFigureEii @981
    _ZN4inet10visualizer24LinkCanvasVisualizerBase23LinkCanvasVisualizationC2EPNS_17LabeledLineFigureEii @982
    _ZN4inet10visualizer24LinkCanvasVisualizerBase23LinkCanvasVisualizationD0Ev @983
    _ZN4inet10visualizer24LinkCanvasVisualizerBase23LinkCanvasVisualizationD1Ev @984
    _ZN4inet10visualizer24LinkCanvasVisualizerBase23LinkCanvasVisualizationD2Ev @985
    _ZN4inet10visualizer24LinkCanvasVisualizerBase23removeLinkVisualizationEPKNS0_18LinkVisualizerBase17LinkVisualizationE @986
    _ZN4inet10visualizer24LinkCanvasVisualizerBase24refreshLinkVisualizationEPKNS0_18LinkVisualizerBase17LinkVisualizationEPN7omnetpp7cPacketE @987
    _ZN4inet10visualizer24LinkCanvasVisualizerBaseD0Ev @988
    _ZN4inet10visualizer24LinkCanvasVisualizerBaseD1Ev @989
    _ZN4inet10visualizer24LinkCanvasVisualizerBaseD2Ev @990
    _ZN4inet10visualizer24MobilityCanvasVisualizer10initializeEi @991
    _ZN4inet10visualizer24MobilityCanvasVisualizer13receiveSignalEPN7omnetpp10cComponentEiPNS2_7cObjectES6_ @992
    _ZN4inet10visualizer24MobilityCanvasVisualizer24setMobilityVisualizationEPKNS_9IMobilityEPNS1_27MobilityCanvasVisualizationE @993
    _ZN4inet10visualizer24MobilityCanvasVisualizer27MobilityCanvasVisualizationC1EPN7omnetpp11cOvalFigureEPNS3_15cPieSliceFigureEPNS3_11cLineFigureEPNS_11TrailFigureEPNS_9IMobilityE @994
    _ZN4inet10visualizer24MobilityCanvasVisualizer27MobilityCanvasVisualizationC2EPN7omnetpp11cOvalFigureEPNS3_15cPieSliceFigureEPNS3_11cLineFigureEPNS_11TrailFigureEPNS_9IMobilityE @995
    _ZN4inet10visualizer24MobilityCanvasVisualizer27ensureMobilityVisualizationEPNS_9IMobilityE @996
    _ZN4inet10visualizer24MobilityCanvasVisualizer27removeMobilityVisualizationEPKNS_9IMobilityE @997
    _ZN4inet10visualizer24MobilityCanvasVisualizerD0Ev @998
    _ZN4inet10visualizer24MobilityCanvasVisualizerD1Ev @999
    _ZN4inet10visualizer24MobilityCanvasVisualizerD2Ev @1000
    _ZN4inet10visualizer24NetworkNodeOsgVisualizer10initializeEi @1001
    _ZN4inet10visualizer24NetworkNodeOsgVisualizer27addNetworkNodeVisualizationEPNS0_25NetworkNodeVisualizerBase24NetworkNodeVisualizationE @1002
    _ZN4inet10visualizer24NetworkNodeOsgVisualizer30removeNetworkNodeVisualizationEPNS0_25NetworkNodeVisualizerBase24NetworkNodeVisualizationE @1003
    _ZN4inet10visualizer24PacketDropVisualizerBase10initializeEi @1004
    _ZN4inet10visualizer24PacketDropVisualizerBase11unsubscribeEv @1005
    _ZN4inet10visualizer24PacketDropVisualizerBase13DetailsFilter10setPatternEPKc @1006
    _ZN4inet10visualizer24PacketDropVisualizerBase13receiveSignalEPN7omnetpp10cComponentEiPNS2_7cObjectES6_ @1007
    _ZN4inet10visualizer24PacketDropVisualizerBase21handleParameterChangeEPKc @1008
    _ZN4inet10visualizer24PacketDropVisualizerBase23PacketDropVisualizationC1EPKNS0_10PacketDropE @1009
    _ZN4inet10visualizer24PacketDropVisualizerBase23PacketDropVisualizationC2EPKNS0_10PacketDropE @1010
    _ZN4inet10visualizer24PacketDropVisualizerBase23PacketDropVisualizationD0Ev @1011
    _ZN4inet10visualizer24PacketDropVisualizerBase23PacketDropVisualizationD1Ev @1012
    _ZN4inet10visualizer24PacketDropVisualizerBase23PacketDropVisualizationD2Ev @1013
    _ZN4inet10visualizer24PacketDropVisualizerBase26addPacketDropVisualizationEPKNS1_23PacketDropVisualizationE @1014
    _ZN4inet10visualizer24PacketDropVisualizerBase29removePacketDropVisualizationEPKNS1_23PacketDropVisualizationE @1015
    _ZN4inet10visualizer24PacketDropVisualizerBase33removeAllPacketDropVisualizationsEv @1016
    _ZN4inet10visualizer24PacketDropVisualizerBase9subscribeEv @1017
    _ZN4inet10visualizer24PacketDropVisualizerBaseD0Ev @1018
    _ZN4inet10visualizer24PacketDropVisualizerBaseD1Ev @1019
    _ZN4inet10visualizer24PacketDropVisualizerBaseD2Ev @1020
    _ZN4inet10visualizer24PathCanvasVisualizerBase10initializeEi @1021
    _ZN4inet10visualizer24PathCanvasVisualizerBase20addPathVisualizationEPKNS0_18PathVisualizerBase17PathVisualizationE @1022
    _ZN4inet10visualizer24PathCanvasVisualizerBase23PathCanvasVisualizationC1ERKSt6vectorIiSaIiEEPNS_21LabeledPolylineFigureE @1023
    _ZN4inet10visualizer24PathCanvasVisualizerBase23PathCanvasVisualizationC2ERKSt6vectorIiSaIiEEPNS_21LabeledPolylineFigureE @1024
    _ZN4inet10visualizer24PathCanvasVisualizerBase23PathCanvasVisualizationD0Ev @1025
    _ZN4inet10visualizer24PathCanvasVisualizerBase23PathCanvasVisualizationD1Ev @1026
    _ZN4inet10visualizer24PathCanvasVisualizerBase23PathCanvasVisualizationD2Ev @1027
    _ZN4inet10visualizer24PathCanvasVisualizerBase23removePathVisualizationEPKNS0_18PathVisualizerBase17PathVisualizationE @1028
    _ZN4inet10visualizer24PathCanvasVisualizerBase24refreshPathVisualizationEPKNS0_18PathVisualizerBase17PathVisualizationEPN7omnetpp7cPacketE @1029
    _ZN4inet10visualizer24PathCanvasVisualizerBaseD0Ev @1030
    _ZN4inet10visualizer24PathCanvasVisualizerBaseD1Ev @1031
    _ZN4inet10visualizer24PathCanvasVisualizerBaseD2Ev @1032
    _ZN4inet10visualizer25Ieee80211CanvasVisualizer10initializeEi @1033
    _ZN4inet10visualizer25Ieee80211CanvasVisualizer25addIeee80211VisualizationEPKNS0_23Ieee80211VisualizerBase22Ieee80211VisualizationE @1034
    _ZN4inet10visualizer25Ieee80211CanvasVisualizer28Ieee80211CanvasVisualizationC1EPNS0_30NetworkNodeCanvasVisualizationEPNS_17LabeledIconFigureEii @1035
    _ZN4inet10visualizer25Ieee80211CanvasVisualizer28Ieee80211CanvasVisualizationC2EPNS0_30NetworkNodeCanvasVisualizationEPNS_17LabeledIconFigureEii @1036
    _ZN4inet10visualizer25Ieee80211CanvasVisualizer28Ieee80211CanvasVisualizationD0Ev @1037
    _ZN4inet10visualizer25Ieee80211CanvasVisualizer28Ieee80211CanvasVisualizationD1Ev @1038
    _ZN4inet10visualizer25Ieee80211CanvasVisualizer28Ieee80211CanvasVisualizationD2Ev @1039
    _ZN4inet10visualizer25Ieee80211CanvasVisualizer28createIeee80211VisualizationEPN7omnetpp7cModuleEPNS_14InterfaceEntryENSt7__cxx1112basic_stringIcSt11char_traitsIcESaIcEEENS_5units5valueIdNSD_7composeINSF_INSF_INSD_5units1mENSF_INSG_2kgENSD_3powINSG_1sELin2ELi1EEEEEEESH_EENSJ_ISK_Lin1ELi1EEEEEEE @1040
    _ZN4inet10visualizer25Ieee80211CanvasVisualizer28removeIeee80211VisualizationEPKNS0_23Ieee80211VisualizerBase22Ieee80211VisualizationE @1041
    _ZN4inet10visualizer25Ieee80211CanvasVisualizerD0Ev @1042
    _ZN4inet10visualizer25Ieee80211CanvasVisualizerD1Ev @1043
    _ZN4inet10visualizer25Ieee80211CanvasVisualizerD2Ev @1044
    _ZN4inet10visualizer25LinkBreakCanvasVisualizer10initializeEi @1045
    _ZN4inet10visualizer25LinkBreakCanvasVisualizer25addLinkBreakVisualizationEPKNS0_23LinkBreakVisualizerBase22LinkBreakVisualizationE @1046
    _ZN4inet10visualizer25LinkBreakCanvasVisualizer28LinkBreakCanvasVisualizationC1EPN7omnetpp11cIconFigureEii @1047
    _ZN4inet10visualizer25LinkBreakCanvasVisualizer28LinkBreakCanvasVisualizationC2EPN7omnetpp11cIconFigureEii @1048
    _ZN4inet10visualizer25LinkBreakCanvasVisualizer28removeLinkBreakVisualizationEPKNS0_23LinkBreakVisualizerBase22LinkBreakVisualizationE @1049
    _ZN4inet10visualizer25LinkBreakCanvasVisualizerD0Ev @1050
    _ZN4inet10visualizer25LinkBreakCanvasVisualizerD1Ev @1051
    _ZN4inet10visualizer25LinkBreakCanvasVisualizerD2Ev @1052
    _ZN4inet10visualizer25NetworkNodeVisualizerBase10initializeEi @1053
    _ZN4inet10visualizer25NetworkNodeVisualizerBase13receiveSignalEPN7omnetpp10cComponentEiPNS2_7cObjectES6_ @1054
    _ZN4inet10visualizer25NetworkNodeVisualizerBase21handleParameterChangeEPKc @1055
    _ZN4inet10visualizer25RoutingTableOsgVisualizer10initializeEi @1056
    _ZN4inet10visualizer25RoutingTableOsgVisualizer21RouteOsgVisualizationC1EPN3osg4NodeEPKNS_9Ipv4RouteEii @1057
    _ZN4inet10visualizer25RoutingTableOsgVisualizer21RouteOsgVisualizationC2EPN3osg4NodeEPKNS_9Ipv4RouteEii @1058
    _ZN4inet10visualizer25RoutingTableOsgVisualizer21RouteOsgVisualizationD0Ev @1059
    _ZN4inet10visualizer25RoutingTableOsgVisualizer21RouteOsgVisualizationD1Ev @1060
    _ZN4inet10visualizer25RoutingTableOsgVisualizer21RouteOsgVisualizationD2Ev @1061
    _ZN4inet10visualizer25RoutingTableOsgVisualizer21addRouteVisualizationEPKNS0_26RoutingTableVisualizerBase18RouteVisualizationE @1062
    _ZN4inet10visualizer25RoutingTableOsgVisualizer24removeRouteVisualizationEPKNS0_26RoutingTableVisualizerBase18RouteVisualizationE @1063
    _ZN4inet10visualizer25StatisticCanvasVisualizer10initializeEi @1064
    _ZN4inet10visualizer25StatisticCanvasVisualizer25addStatisticVisualizationEPKNS0_23StatisticVisualizerBase22StatisticVisualizationE @1065
    _ZN4inet10visualizer25StatisticCanvasVisualizer28createStatisticVisualizationEPN7omnetpp10cComponentEi @1066
    _ZN4inet10visualizer25StatisticCanvasVisualizer28removeStatisticVisualizationEPKNS0_23StatisticVisualizerBase22StatisticVisualizationE @1067
    _ZN4inet10visualizer25StatisticCanvasVisualizer29refreshStatisticVisualizationEPKNS0_23StatisticVisualizerBase22StatisticVisualizationE @1068
    _ZN4inet10visualizer25StatisticCanvasVisualizerD0Ev @1069
    _ZN4inet10visualizer25StatisticCanvasVisualizerD1Ev @1070
    _ZN4inet10visualizer25StatisticCanvasVisualizerD2Ev @1071
    _ZN4inet10visualizer26AnimationSpeedInterpolator17setAnimationSpeedEd @1072
    _ZN4inet10visualizer26AnimationSpeedInterpolator23setTargetAnimationSpeedENS0_17AnimationPosition8TimeTypeEdd @1073
    _ZN4inet10visualizer26AnimationSpeedInterpolator24setCurrentAnimationSpeedEd @1074
    _ZN4inet10visualizer26EnergyStorageOsgVisualizer10initializeEi @1075
    _ZN4inet10visualizer26EnergyStorageOsgVisualizer29EnergyStorageOsgVisualizationC1EPNS0_27NetworkNodeOsgVisualizationEPN3osg5GeodeEPKNS_5power14IEnergyStorageE @1076
    _ZN4inet10visualizer26EnergyStorageOsgVisualizer29EnergyStorageOsgVisualizationC2EPNS0_27NetworkNodeOsgVisualizationEPN3osg5GeodeEPKNS_5power14IEnergyStorageE @1077
    _ZN4inet10visualizer26EnergyStorageOsgVisualizerD0Ev @1078
    _ZN4inet10visualizer26EnergyStorageOsgVisualizerD1Ev @1079
    _ZN4inet10visualizer26EnergyStorageOsgVisualizerD2Ev @1080
    _ZN4inet10visualizer26PacketDropCanvasVisualizer10initializeEi @1081
    _ZN4inet10visualizer26PacketDropCanvasVisualizer26addPacketDropVisualizationEPKNS0_24PacketDropVisualizerBase23PacketDropVisualizationE @1082
    _ZN4inet10visualizer26PacketDropCanvasVisualizer29PacketDropCanvasVisualizationC1EPNS_17LabeledIconFigureEPKNS0_10PacketDropE @1083
    _ZN4inet10visualizer26PacketDropCanvasVisualizer29PacketDropCanvasVisualizationC2EPNS_17LabeledIconFigureEPKNS0_10PacketDropE @1084
    _ZN4inet10visualizer26PacketDropCanvasVisualizer29PacketDropCanvasVisualizationD0Ev @1085
    _ZN4inet10visualizer26PacketDropCanvasVisualizer29PacketDropCanvasVisualizationD1Ev @1086
    _ZN4inet10visualizer26PacketDropCanvasVisualizer29PacketDropCanvasVisualizationD2Ev @1087
    _ZN4inet10visualizer26PacketDropCanvasVisualizer29removePacketDropVisualizationEPKNS0_24PacketDropVisualizerBase23PacketDropVisualizationE @1088
    _ZN4inet10visualizer26PacketDropCanvasVisualizerD0Ev @1089
    _ZN4inet10visualizer26PacketDropCanvasVisualizerD1Ev @1090
    _ZN4inet10visualizer26PacketDropCanvasVisualizerD2Ev @1091
    _ZN4inet10visualizer26RoutingTableVisualizerBase10initializeEi @1092
    _ZN4inet10visualizer26RoutingTableVisualizerBase11unsubscribeEv @1093
    _ZN4inet10visualizer26RoutingTableVisualizerBase13receiveSignalEPN7omnetpp10cComponentEiPNS2_7cObjectES6_ @1094
    _ZN4inet10visualizer26RoutingTableVisualizerBase15getDestinationsEv @1095
    _ZN4inet10visualizer26RoutingTableVisualizerBase18RouteVisualizationC1EPKNS_9Ipv4RouteEii @1096
    _ZN4inet10visualizer26RoutingTableVisualizerBase18RouteVisualizationC2EPKNS_9Ipv4RouteEii @1097
    _ZN4inet10visualizer26RoutingTableVisualizerBase21addRouteVisualizationEPKNS1_18RouteVisualizationE @1098
    _ZN4inet10visualizer26RoutingTableVisualizerBase21getRouteVisualizationEPNS_9Ipv4RouteEii @1099
    _ZN4inet10visualizer26RoutingTableVisualizerBase21handleParameterChangeEPKc @1100
    _ZN4inet10visualizer26RoutingTableVisualizerBase22addRouteVisualizationsEPNS_17IIpv4RoutingTableE @1101
    _ZN4inet10visualizer26RoutingTableVisualizerBase24removeRouteVisualizationEPKNS1_18RouteVisualizationE @1102
    _ZN4inet10visualizer26RoutingTableVisualizerBase25removeRouteVisualizationsEPNS_17IIpv4RoutingTableE @1103
    _ZN4inet10visualizer26RoutingTableVisualizerBase25updateRouteVisualizationsEPNS_17IIpv4RoutingTableE @1104
    _ZN4inet10visualizer26RoutingTableVisualizerBase28removeAllRouteVisualizationsEv @1105
    _ZN4inet10visualizer26RoutingTableVisualizerBase28updateAllRouteVisualizationsEv @1106
    _ZN4inet10visualizer26RoutingTableVisualizerBase9subscribeEv @1107
    _ZN4inet10visualizer26RoutingTableVisualizerBaseD0Ev @1108
    _ZN4inet10visualizer26RoutingTableVisualizerBaseD1Ev @1109
    _ZN4inet10visualizer26RoutingTableVisualizerBaseD2Ev @1110
    _ZN4inet10visualizer27EnergyStorageVisualizerBase10initializeEi @1111
    _ZN4inet10visualizer27EnergyStorageVisualizerBase21handleParameterChangeEPKc @1112
    _ZN4inet10visualizer27EnergyStorageVisualizerBase26EnergyStorageVisualizationC1EPKNS_5power14IEnergyStorageE @1113
    _ZN4inet10visualizer27EnergyStorageVisualizerBase26EnergyStorageVisualizationC2EPKNS_5power14IEnergyStorageE @1114
    _ZN4inet10visualizer27EnergyStorageVisualizerBase29addEnergyStorageVisualizationEPKNS1_26EnergyStorageVisualizationE @1115
    _ZN4inet10visualizer27EnergyStorageVisualizerBase30addEnergyStorageVisualizationsEv @1116
    _ZN4inet10visualizer27EnergyStorageVisualizerBase32removeEnergyStorageVisualizationEPKNS1_26EnergyStorageVisualizationE @1117
    _ZN4inet10visualizer27EnergyStorageVisualizerBase36removeAllEnergyStorageVisualizationsEv @1118
    _ZN4inet10visualizer27InterfaceTableOsgVisualizer10initializeEi @1119
    _ZN4inet10visualizer27InterfaceTableOsgVisualizer25InterfaceOsgVisualizationC1EPNS0_27NetworkNodeOsgVisualizationEPN3osg4NodeEiii @1120
    _ZN4inet10visualizer27InterfaceTableOsgVisualizer25InterfaceOsgVisualizationC2EPNS0_27NetworkNodeOsgVisualizationEPN3osg4NodeEiii @1121
    _ZN4inet10visualizer27InterfaceTableOsgVisualizer25addInterfaceVisualizationEPKNS0_28InterfaceTableVisualizerBase22InterfaceVisualizationE @1122
    _ZN4inet10visualizer27InterfaceTableOsgVisualizer28createInterfaceVisualizationEPN7omnetpp7cModuleEPNS_14InterfaceEntryE @1123
    _ZN4inet10visualizer27InterfaceTableOsgVisualizer28removeInterfaceVisualizationEPKNS0_28InterfaceTableVisualizerBase22InterfaceVisualizationE @1124
    _ZN4inet10visualizer27InterfaceTableOsgVisualizer29refreshInterfaceVisualizationEPKNS0_28InterfaceTableVisualizerBase22InterfaceVisualizationEPKNS_14InterfaceEntryE @1125
    _ZN4inet10visualizer27InterfaceTableOsgVisualizerD0Ev @1126
    _ZN4inet10visualizer27InterfaceTableOsgVisualizerD1Ev @1127
    _ZN4inet10visualizer27InterfaceTableOsgVisualizerD2Ev @1128
    _ZN4inet10visualizer27NetworkNodeCanvasVisualizer10initializeEi @1129
    _ZN4inet10visualizer27NetworkNodeCanvasVisualizer27addNetworkNodeVisualizationEPNS0_25NetworkNodeVisualizerBase24NetworkNodeVisualizationE @1130
    _ZN4inet10visualizer27NetworkNodeCanvasVisualizer30removeNetworkNodeVisualizationEPNS0_25NetworkNodeVisualizerBase24NetworkNodeVisualizationE @1131
    _ZN4inet10visualizer27NetworkNodeOsgVisualization10AnnotationC1EPN3osg4NodeENS3_5Vec3dEd @1132
    _ZN4inet10visualizer27NetworkNodeOsgVisualization10AnnotationC2EPN3osg4NodeENS3_5Vec3dEd @1133
    _ZN4inet10visualizer27NetworkNodeOsgVisualization13addAnnotationEPN3osg4NodeENS2_5Vec3dEd @1134
    _ZN4inet10visualizer27NetworkNodeOsgVisualization15getOsgModelPathB5cxx11EPN7omnetpp7cModuleE @1135
    _ZN4inet10visualizer27NetworkNodeOsgVisualization16removeAnnotationEPN3osg4NodeE @1136
    _ZN4inet10visualizer27NetworkNodeOsgVisualization25updateAnnotationPositionsEv @1137
    _ZN4inet10visualizer27NetworkNodeOsgVisualizationC1EPN7omnetpp7cModuleEb @1138
    _ZN4inet10visualizer27NetworkNodeOsgVisualizationC2EPN7omnetpp7cModuleEb @1139
    _ZN4inet10visualizer28InterfaceTableVisualizerBase10initializeEi @1140
    _ZN4inet10visualizer28InterfaceTableVisualizerBase11unsubscribeEv @1141
    _ZN4inet10visualizer28InterfaceTableVisualizerBase13getOutputGateEPKNS1_22InterfaceVisualizationE @1142
    _ZN4inet10visualizer28InterfaceTableVisualizerBase13getOutputGateEPN7omnetpp7cModuleEPNS_14InterfaceEntryE @1143
    _ZN4inet10visualizer28InterfaceTableVisualizerBase13receiveSignalEPN7omnetpp10cComponentEiPNS2_7cObjectES6_ @1144
    _ZN4inet10visualizer28InterfaceTableVisualizerBase14getNetworkNodeEPKNS1_22InterfaceVisualizationE @1145
    _ZN4inet10visualizer28InterfaceTableVisualizerBase20getVisualizationTextB5cxx11EPKNS_14InterfaceEntryE @1146
    _ZN4inet10visualizer28InterfaceTableVisualizerBase21handleParameterChangeEPKc @1147
    _ZN4inet10visualizer28InterfaceTableVisualizerBase22InterfaceVisualizationC1Eiii @1148
    _ZN4inet10visualizer28InterfaceTableVisualizerBase22InterfaceVisualizationC2Eiii @1149
    _ZN4inet10visualizer28InterfaceTableVisualizerBase25addInterfaceVisualizationEPKNS1_22InterfaceVisualizationE @1150
    _ZN4inet10visualizer28InterfaceTableVisualizerBase25getInterfaceVisualizationEPN7omnetpp7cModuleEPNS_14InterfaceEntryE @1151
    _ZN4inet10visualizer28InterfaceTableVisualizerBase28removeInterfaceVisualizationEPKNS1_22InterfaceVisualizationE @1152
    _ZN4inet10visualizer28InterfaceTableVisualizerBase29addAllInterfaceVisualizationsEv @1153
    _ZN4inet10visualizer28InterfaceTableVisualizerBase32removeAllInterfaceVisualizationsEv @1154
    _ZN4inet10visualizer28InterfaceTableVisualizerBase32updateAllInterfaceVisualizationsEv @1155
    _ZN4inet10visualizer28InterfaceTableVisualizerBase9subscribeEv @1156
    _ZN4inet10visualizer28InterfaceTableVisualizerBaseD0Ev @1157
    _ZN4inet10visualizer28InterfaceTableVisualizerBaseD1Ev @1158
    _ZN4inet10visualizer28InterfaceTableVisualizerBaseD2Ev @1159
    _ZN4inet10visualizer28RoutingTableCanvasVisualizer10initializeEi @1160
    _ZN4inet10visualizer28RoutingTableCanvasVisualizer21addRouteVisualizationEPKNS0_26RoutingTableVisualizerBase18RouteVisualizationE @1161
    _ZN4inet10visualizer28RoutingTableCanvasVisualizer24RouteCanvasVisualizationC1EPNS_17LabeledLineFigureEPKNS_9Ipv4RouteEii @1162
    _ZN4inet10visualizer28RoutingTableCanvasVisualizer24RouteCanvasVisualizationC2EPNS_17LabeledLineFigureEPKNS_9Ipv4RouteEii @1163
    _ZN4inet10visualizer28RoutingTableCanvasVisualizer24RouteCanvasVisualizationD0Ev @1164
    _ZN4inet10visualizer28RoutingTableCanvasVisualizer24RouteCanvasVisualizationD1Ev @1165
    _ZN4inet10visualizer28RoutingTableCanvasVisualizer24RouteCanvasVisualizationD2Ev @1166
    _ZN4inet10visualizer28RoutingTableCanvasVisualizer24removeRouteVisualizationEPKNS0_26RoutingTableVisualizerBase18RouteVisualizationE @1167
    _ZN4inet10visualizer29EnergyStorageCanvasVisualizer10initializeEi @1168
    _ZN4inet10visualizer29EnergyStorageCanvasVisualizer29addEnergyStorageVisualizationEPKNS0_27EnergyStorageVisualizerBase26EnergyStorageVisualizationE @1169
    _ZN4inet10visualizer29EnergyStorageCanvasVisualizer32EnergyStorageCanvasVisualizationC1EPNS0_30NetworkNodeCanvasVisualizationEPNS_9BarFigureEPKNS_5power14IEnergyStorageE @1170
    _ZN4inet10visualizer29EnergyStorageCanvasVisualizer32EnergyStorageCanvasVisualizationC2EPNS0_30NetworkNodeCanvasVisualizationEPNS_9BarFigureEPKNS_5power14IEnergyStorageE @1171
    _ZN4inet10visualizer29EnergyStorageCanvasVisualizer32EnergyStorageCanvasVisualizationD0Ev @1172
    _ZN4inet10visualizer29EnergyStorageCanvasVisualizer32EnergyStorageCanvasVisualizationD1Ev @1173
    _ZN4inet10visualizer29EnergyStorageCanvasVisualizer32EnergyStorageCanvasVisualizationD2Ev @1174
    _ZN4inet10visualizer29EnergyStorageCanvasVisualizer32removeEnergyStorageVisualizationEPKNS0_27EnergyStorageVisualizerBase26EnergyStorageVisualizationE @1175
    _ZN4inet10visualizer29EnergyStorageCanvasVisualizerD0Ev @1176
    _ZN4inet10visualizer29EnergyStorageCanvasVisualizerD1Ev @1177
    _ZN4inet10visualizer29EnergyStorageCanvasVisualizerD2Ev @1178
    _ZN4inet10visualizer30InterfaceTableCanvasVisualizer10initializeEi @1179
    _ZN4inet10visualizer30InterfaceTableCanvasVisualizer17getInterfaceEntryEPKNS0_28InterfaceTableVisualizerBase22InterfaceVisualizationE @1180
    _ZN4inet10visualizer30InterfaceTableCanvasVisualizer25addInterfaceVisualizationEPKNS0_28InterfaceTableVisualizerBase22InterfaceVisualizationE @1181
    _ZN4inet10visualizer30InterfaceTableCanvasVisualizer28InterfaceCanvasVisualizationC1EPNS0_30NetworkNodeCanvasVisualizationEPNS_16BoxedLabelFigureEiii @1182
    _ZN4inet10visualizer30InterfaceTableCanvasVisualizer28InterfaceCanvasVisualizationC2EPNS0_30NetworkNodeCanvasVisualizationEPNS_16BoxedLabelFigureEiii @1183
    _ZN4inet10visualizer30InterfaceTableCanvasVisualizer28InterfaceCanvasVisualizationD0Ev @1184
    _ZN4inet10visualizer30InterfaceTableCanvasVisualizer28InterfaceCanvasVisualizationD1Ev @1185
    _ZN4inet10visualizer30InterfaceTableCanvasVisualizer28InterfaceCanvasVisualizationD2Ev @1186
    _ZN4inet10visualizer30InterfaceTableCanvasVisualizer28createInterfaceVisualizationEPN7omnetpp7cModuleEPNS_14InterfaceEntryE @1187
    _ZN4inet10visualizer30InterfaceTableCanvasVisualizer28removeInterfaceVisualizationEPKNS0_28InterfaceTableVisualizerBase22InterfaceVisualizationE @1188
    _ZN4inet10visualizer30InterfaceTableCanvasVisualizer29refreshInterfaceVisualizationEPKNS0_28InterfaceTableVisualizerBase22InterfaceVisualizationEPKNS_14InterfaceEntryE @1189
    _ZN4inet10visualizer30InterfaceTableCanvasVisualizerD0Ev @1190
    _ZN4inet10visualizer30InterfaceTableCanvasVisualizerD1Ev @1191
    _ZN4inet10visualizer30InterfaceTableCanvasVisualizerD2Ev @1192
    _ZN4inet10visualizer30NetworkConnectionOsgVisualizer10initializeEi @1193
    _ZN4inet10visualizer30NetworkConnectionOsgVisualizer36createNetworkConnectionVisualizationEPN7omnetpp7cModuleES4_ @1194
    _ZN4inet10visualizer30NetworkNodeCanvasVisualization10Annotation24comparePlacementPriorityERKS2_S4_ @1195
    _ZN4inet10visualizer30NetworkNodeCanvasVisualization10AnnotationC1EPN7omnetpp7cFigureERKNS4_5PointENS0_9PlacementEd @1196
    _ZN4inet10visualizer30NetworkNodeCanvasVisualization10AnnotationC2EPN7omnetpp7cFigureERKNS4_5PointENS0_9PlacementEd @1197
    _ZN4inet10visualizer30NetworkNodeCanvasVisualization13addAnnotationEPN7omnetpp7cFigureENS3_5PointENS0_9PlacementEd @1198
    _ZN4inet10visualizer30NetworkNodeCanvasVisualization14refreshDisplayEv @1199
    _ZN4inet10visualizer30NetworkNodeCanvasVisualization16removeAnnotationEPN7omnetpp7cFigureE @1200
    _ZN4inet10visualizer30NetworkNodeCanvasVisualization17setAnnotationSizeEPN7omnetpp7cFigureENS3_5PointE @1201
    _ZN4inet10visualizer30NetworkNodeCanvasVisualization20setAnnotationVisibleEPN7omnetpp7cFigureEb @1202
    _ZN4inet10visualizer30NetworkNodeCanvasVisualization6layoutEv @1203
    _ZN4inet10visualizer30NetworkNodeCanvasVisualizationC1EPN7omnetpp7cModuleEdd @1204
    _ZN4inet10visualizer30NetworkNodeCanvasVisualizationC2EPN7omnetpp7cModuleEdd @1205
    _ZN4inet10visualizer31NetworkConnectionVisualizerBase10initializeEi @1206
    _ZN4inet10visualizer31NetworkConnectionVisualizerBase21handleParameterChangeEPKc @1207
    _ZN4inet10visualizer32PhysicalEnvironmentOsgVisualizer10initializeEi @1208
    _ZN4inet10visualizer32TracingObstacleLossOsgVisualizer10initializeEi @1209
    _ZN4inet10visualizer32TracingObstacleLossOsgVisualizer28addObstacleLossVisualizationEPKNS0_33TracingObstacleLossVisualizerBase25ObstacleLossVisualizationE @1210
    _ZN4inet10visualizer32TracingObstacleLossOsgVisualizer31removeObstacleLossVisualizationEPKNS0_33TracingObstacleLossVisualizerBase25ObstacleLossVisualizationE @1211
    _ZN4inet10visualizer32TracingObstacleLossOsgVisualizerD0Ev @1212
    _ZN4inet10visualizer32TracingObstacleLossOsgVisualizerD1Ev @1213
    _ZN4inet10visualizer32TracingObstacleLossOsgVisualizerD2Ev @1214
    _ZN4inet10visualizer32TransportConnectionOsgVisualizer10initializeEi @1215
    _ZN4inet10visualizer32TransportConnectionOsgVisualizer26addConnectionVisualizationEPKNS0_33TransportConnectionVisualizerBase32TransportConnectionVisualizationE @1216
    _ZN4inet10visualizer32TransportConnectionOsgVisualizer29removeConnectionVisualizationEPKNS0_33TransportConnectionVisualizerBase32TransportConnectionVisualizationE @1217
    _ZN4inet10visualizer32TransportConnectionOsgVisualizer35TransportConnectionOsgVisualizationC1EPN3osg4NodeES5_iii @1218
    _ZN4inet10visualizer32TransportConnectionOsgVisualizer35TransportConnectionOsgVisualizationC2EPN3osg4NodeES5_iii @1219
    _ZN4inet10visualizer32TransportConnectionOsgVisualizerD0Ev @1220
    _ZN4inet10visualizer32TransportConnectionOsgVisualizerD1Ev @1221
    _ZN4inet10visualizer32TransportConnectionOsgVisualizerD2Ev @1222
    _ZN4inet10visualizer33NetworkConnectionCanvasVisualizer10initializeEi @1223
    _ZN4inet10visualizer33NetworkConnectionCanvasVisualizer36createNetworkConnectionVisualizationEPN7omnetpp7cModuleES4_ @1224
    _ZN4inet10visualizer33PhysicalEnvironmentVisualizerBase10initializeEi @1225
    _ZN4inet10visualizer33TracingObstacleLossVisualizerBase10initializeEi @1226
    _ZN4inet10visualizer33TracingObstacleLossVisualizerBase11unsubscribeEv @1227
    _ZN4inet10visualizer33TracingObstacleLossVisualizerBase13receiveSignalEPN7omnetpp10cComponentEiPNS2_7cObjectES6_ @1228
    _ZN4inet10visualizer33TracingObstacleLossVisualizerBase28addObstacleLossVisualizationEPKNS1_25ObstacleLossVisualizationE @1229
    _ZN4inet10visualizer33TracingObstacleLossVisualizerBase31removeObstacleLossVisualizationEPKNS1_25ObstacleLossVisualizationE @1230
    _ZN4inet10visualizer33TracingObstacleLossVisualizerBase35removeAllObstacleLossVisualizationsEv @1231
    _ZN4inet10visualizer33TracingObstacleLossVisualizerBase9subscribeEv @1232
    _ZN4inet10visualizer33TracingObstacleLossVisualizerBaseD0Ev @1233
    _ZN4inet10visualizer33TracingObstacleLossVisualizerBaseD1Ev @1234
    _ZN4inet10visualizer33TracingObstacleLossVisualizerBaseD2Ev @1235
    _ZN4inet10visualizer33TransportConnectionVisualizerBase10initializeEi @1236
    _ZN4inet10visualizer33TransportConnectionVisualizerBase11unsubscribeEv @1237
    _ZN4inet10visualizer33TransportConnectionVisualizerBase13receiveSignalEPN7omnetpp10cComponentEiPNS2_7cObjectES6_ @1238
    _ZN4inet10visualizer33TransportConnectionVisualizerBase21handleParameterChangeEPKc @1239
    _ZN4inet10visualizer33TransportConnectionVisualizerBase26addConnectionVisualizationEPKNS1_32TransportConnectionVisualizationE @1240
    _ZN4inet10visualizer33TransportConnectionVisualizerBase29removeConnectionVisualizationEPKNS1_32TransportConnectionVisualizationE @1241
    _ZN4inet10visualizer33TransportConnectionVisualizerBase32TransportConnectionVisualizationC1Eiii @1242
    _ZN4inet10visualizer33TransportConnectionVisualizerBase32TransportConnectionVisualizationC2Eiii @1243
    _ZN4inet10visualizer33TransportConnectionVisualizerBase33removeAllConnectionVisualizationsEv @1244
    _ZN4inet10visualizer33TransportConnectionVisualizerBase9subscribeEv @1245
    _ZN4inet10visualizer33TransportConnectionVisualizerBaseD0Ev @1246
    _ZN4inet10visualizer33TransportConnectionVisualizerBaseD1Ev @1247
    _ZN4inet10visualizer33TransportConnectionVisualizerBaseD2Ev @1248
    _ZN4inet10visualizer34OpenStreetMapSceneCanvasVisualizer10initializeEi @1249
    _ZN4inet10visualizer34OpenStreetMapSceneCanvasVisualizer15createMapFigureERKNS_3osm13OpenStreetMapE @1250
    _ZN4inet10visualizer34OpenStreetMapSceneCanvasVisualizer8toCanvasERKNS_3osm13OpenStreetMapEdd @1251
    _ZN4inet10visualizer35PhysicalEnvironmentCanvasVisualizer10initializeEi @1252
    _ZN4inet10visualizer35TracingObstacleLossCanvasVisualizer10initializeEi @1253
    _ZN4inet10visualizer35TracingObstacleLossCanvasVisualizer28addObstacleLossVisualizationEPKNS0_33TracingObstacleLossVisualizerBase25ObstacleLossVisualizationE @1254
    _ZN4inet10visualizer35TracingObstacleLossCanvasVisualizer31ObstacleLossCanvasVisualizationC1EPNS_17LabeledLineFigureEPN7omnetpp11cLineFigureES7_ @1255
    _ZN4inet10visualizer35TracingObstacleLossCanvasVisualizer31ObstacleLossCanvasVisualizationC2EPNS_17LabeledLineFigureEPN7omnetpp11cLineFigureES7_ @1256
    _ZN4inet10visualizer35TracingObstacleLossCanvasVisualizer31ObstacleLossCanvasVisualizationD0Ev @1257
    _ZN4inet10visualizer35TracingObstacleLossCanvasVisualizer31ObstacleLossCanvasVisualizationD1Ev @1258
    _ZN4inet10visualizer35TracingObstacleLossCanvasVisualizer31ObstacleLossCanvasVisualizationD2Ev @1259
    _ZN4inet10visualizer35TracingObstacleLossCanvasVisualizer31removeObstacleLossVisualizationEPKNS0_33TracingObstacleLossVisualizerBase25ObstacleLossVisualizationE @1260
    _ZN4inet10visualizer35TracingObstacleLossCanvasVisualizerD0Ev @1261
    _ZN4inet10visualizer35TracingObstacleLossCanvasVisualizerD1Ev @1262
    _ZN4inet10visualizer35TracingObstacleLossCanvasVisualizerD2Ev @1263
    _ZN4inet10visualizer35TransportConnectionCanvasVisualizer10initializeEi @1264
    _ZN4inet10visualizer35TransportConnectionCanvasVisualizer26addConnectionVisualizationEPKNS0_33TransportConnectionVisualizerBase32TransportConnectionVisualizationE @1265
    _ZN4inet10visualizer35TransportConnectionCanvasVisualizer26setConnectionLabelsVisibleEb @1266
    _ZN4inet10visualizer35TransportConnectionCanvasVisualizer29removeConnectionVisualizationEPKNS0_33TransportConnectionVisualizerBase32TransportConnectionVisualizationE @1267
    _ZN4inet10visualizer35TransportConnectionCanvasVisualizer38TransportConnectionCanvasVisualizationC1EPNS_17LabeledIconFigureES4_iii @1268
    _ZN4inet10visualizer35TransportConnectionCanvasVisualizer38TransportConnectionCanvasVisualizationC2EPNS_17LabeledIconFigureES4_iii @1269
    _ZN4inet10visualizer35TransportConnectionCanvasVisualizerD0Ev @1270
    _ZN4inet10visualizer35TransportConnectionCanvasVisualizerD1Ev @1271
    _ZN4inet10visualizer35TransportConnectionCanvasVisualizerD2Ev @1272
    _ZN4inet10visualizer8ColorSet11parseColorsEPKc @1273
    _ZN4inet11ChunkBuffer12mergeRegionsERNS0_6RegionES2_ @1274
    _ZN4inet11ChunkBuffer12sliceRegionsERNS0_6RegionE @1275
    _ZN4inet11ChunkBuffer17eraseEmptyRegionsEN9__gnu_cxx17__normal_iteratorIPNS0_6RegionESt6vectorIS3_SaIS3_EEEES8_ @1276
    _ZN4inet11ChunkBuffer5clearENS_5units5valueIxNS1_5units1bEEES5_ @1277
    _ZN4inet11ChunkBuffer7replaceENS_5units5valueIxNS1_5units1bEEERKNS_12IntrusivePtrIKNS_5ChunkEEE @1278
    _ZN4inet11ChunkBufferC1EPKc @1279
    _ZN4inet11ChunkBufferC1ERKS0_ @1280
    _ZN4inet11ChunkBufferC2EPKc @1281
    _ZN4inet11ChunkBufferC2ERKS0_ @1282
    _ZN4inet11DhcpMessage10setOptionsERKNS_11DhcpOptionsE @1283
    _ZN4inet11DhcpMessage11setReservedEt @1284
    _ZN4inet11DhcpMessage12parsimUnpackEPN7omnetpp11cCommBufferE @1285
    _ZN4inet11DhcpMessage12setBroadcastEb @1286
    _ZN4inet11DhcpMessage4copyERKS0_ @1287
    _ZN4inet11DhcpMessage5setOpENS_10DhcpOpcodeE @1288
    _ZN4inet11DhcpMessage6setXidEj @1289
    _ZN4inet11DhcpMessage7setFileEPKc @1290
    _ZN4inet11DhcpMessage7setHlenEi @1291
    _ZN4inet11DhcpMessage7setHopsEi @1292
    _ZN4inet11DhcpMessage7setSecsEi @1293
    _ZN4inet11DhcpMessage8setHtypeEi @1294
    _ZN4inet11DhcpMessage8setSnameEPKc @1295
    _ZN4inet11DhcpMessage9setChaddrERKNS_10MacAddressE @1296
    _ZN4inet11DhcpMessage9setCiaddrERKNS_11Ipv4AddressE @1297
    _ZN4inet11DhcpMessage9setGiaddrERKNS_11Ipv4AddressE @1298
    _ZN4inet11DhcpMessage9setYiaddrERKNS_11Ipv4AddressE @1299
    _ZN4inet11DhcpMessageC1ERKS0_ @1300
    _ZN4inet11DhcpMessageC1Ev @1301
    _ZN4inet11DhcpMessageC2ERKS0_ @1302
    _ZN4inet11DhcpMessageC2Ev @1303
    _ZN4inet11DhcpMessageD0Ev @1304
    _ZN4inet11DhcpMessageD1Ev @1305
    _ZN4inet11DhcpMessageD2Ev @1306
    _ZN4inet11DhcpMessageaSERKS0_ @1307
    _ZN4inet11DhcpOptions11eraseRouterEy @1308
    _ZN4inet11DhcpOptions11setHostNameEPKc @1309
    _ZN4inet11DhcpOptions12insertRouterERKNS_11Ipv4AddressE @1310
    _ZN4inet11DhcpOptions12insertRouterEyRKNS_11Ipv4AddressE @1311
    _ZN4inet11DhcpOptions12parsimUnpackEPN7omnetpp11cCommBufferE @1312
    _ZN4inet11DhcpOptions12setLeaseTimeEN7omnetpp7SimTimeE @1313
    _ZN4inet11DhcpOptions13setSubnetMaskERKNS_11Ipv4AddressE @1314
    _ZN4inet11DhcpOptions14setMessageTypeENS_15DhcpMessageTypeE @1315
    _ZN4inet11DhcpOptions14setRenewalTimeEN7omnetpp7SimTimeE @1316
    _ZN4inet11DhcpOptions14setRequestedIpERKNS_11Ipv4AddressE @1317
    _ZN4inet11DhcpOptions15setDnsArraySizeEy @1318
    _ZN4inet11DhcpOptions15setNtpArraySizeEy @1319
    _ZN4inet11DhcpOptions16setRebindingTimeEN7omnetpp7SimTimeE @1320
    _ZN4inet11DhcpOptions18setRouterArraySizeEy @1321
    _ZN4inet11DhcpOptions19setClientIdentifierERKNS_10MacAddressE @1322
    _ZN4inet11DhcpOptions19setServerIdentifierERKNS_11Ipv4AddressE @1323
    _ZN4inet11DhcpOptions23setParameterRequestListEyNS_14DhcpOptionCodeE @1324
    _ZN4inet11DhcpOptions25eraseParameterRequestListEy @1325
    _ZN4inet11DhcpOptions26insertParameterRequestListENS_14DhcpOptionCodeE @1326
    _ZN4inet11DhcpOptions26insertParameterRequestListEyNS_14DhcpOptionCodeE @1327
    _ZN4inet11DhcpOptions32setParameterRequestListArraySizeEy @1328
    _ZN4inet11DhcpOptions4copyERKS0_ @1329
    _ZN4inet11DhcpOptions6setDnsEyRKNS_11Ipv4AddressE @1330
    _ZN4inet11DhcpOptions6setNtpEyRKNS_11Ipv4AddressE @1331
    _ZN4inet11DhcpOptions8eraseDnsEy @1332
    _ZN4inet11DhcpOptions8eraseNtpEy @1333
    _ZN4inet11DhcpOptions9insertDnsERKNS_11Ipv4AddressE @1334
    _ZN4inet11DhcpOptions9insertDnsEyRKNS_11Ipv4AddressE @1335
    _ZN4inet11DhcpOptions9insertNtpERKNS_11Ipv4AddressE @1336
    _ZN4inet11DhcpOptions9insertNtpEyRKNS_11Ipv4AddressE @1337
    _ZN4inet11DhcpOptions9setRouterEyRKNS_11Ipv4AddressE @1338
    _ZN4inet11DhcpOptionsC1ERKS0_ @1339
    _ZN4inet11DhcpOptionsC1Ev @1340
    _ZN4inet11DhcpOptionsC2ERKS0_ @1341
    _ZN4inet11DhcpOptionsC2Ev @1342
    _ZN4inet11DhcpOptionsD0Ev @1343
    _ZN4inet11DhcpOptionsD1Ev @1344
    _ZN4inet11DhcpOptionsD2Ev @1345
    _ZN4inet11DhcpOptionsaSERKS0_ @1346
    _ZN4inet11DscpTagBase12parsimUnpackEPN7omnetpp11cCommBufferE @1347
    _ZN4inet11DscpTagBase34setDifferentiatedServicesCodePointEi @1348
    _ZN4inet11DscpTagBase4copyERKS0_ @1349
    _ZN4inet11DscpTagBaseC1ERKS0_ @1350
    _ZN4inet11DscpTagBaseC1Ev @1351
    _ZN4inet11DscpTagBaseC2ERKS0_ @1352
    _ZN4inet11DscpTagBaseC2Ev @1353
    _ZN4inet11DscpTagBaseD0Ev @1354
    _ZN4inet11DscpTagBaseD1Ev @1355
    _ZN4inet11DscpTagBaseD2Ev @1356
    _ZN4inet11DscpTagBaseaSERKS0_ @1357
    _ZN4inet11EtherAppReq12parsimUnpackEPN7omnetpp11cCommBufferE @1358
    _ZN4inet11EtherAppReq12setRequestIdEl @1359
    _ZN4inet11EtherAppReq16setResponseBytesEl @1360
    _ZN4inet11EtherAppReq4copyERKS0_ @1361
    _ZN4inet11EtherAppReqC1ERKS0_ @1362
    _ZN4inet11EtherAppReqC1Ev @1363
    _ZN4inet11EtherAppReqC2ERKS0_ @1364
    _ZN4inet11EtherAppReqC2Ev @1365
    _ZN4inet11EtherAppReqD0Ev @1366
    _ZN4inet11EtherAppReqD1Ev @1367
    _ZN4inet11EtherAppReqD2Ev @1368
    _ZN4inet11EtherAppReqaSERKS0_ @1369
    _ZN4inet11EthernetFcs10setFcsModeENS_7FcsModeE @1370
    _ZN4inet11EthernetFcs12parsimUnpackEPN7omnetpp11cCommBufferE @1371
    _ZN4inet11EthernetFcs4copyERKS0_ @1372
    _ZN4inet11EthernetFcs6setFcsEj @1373
    _ZN4inet11EthernetFcsC1ERKS0_ @1374
    _ZN4inet11EthernetFcsC1Ev @1375
    _ZN4inet11EthernetFcsC2ERKS0_ @1376
    _ZN4inet11EthernetFcsC2Ev @1377
    _ZN4inet11EthernetFcsD0Ev @1378
    _ZN4inet11EthernetFcsD1Ev @1379
    _ZN4inet11EthernetFcsD2Ev @1380
    _ZN4inet11EthernetFcsaSERKS0_ @1381
    _ZN4inet11EulerAngles3NILE @1382 DATA
    _ZN4inet11EulerAngles4ZEROE @1383 DATA
    _ZN4inet11FieldsChunk12handleChangeEv @1384
    _ZN4inet11FieldsChunkC1ERKS0_ @1385
    _ZN4inet11FieldsChunkC1Ev @1386
    _ZN4inet11FieldsChunkC2ERKS0_ @1387
    _ZN4inet11FieldsChunkC2Ev @1388
    _ZN4inet11FieldsChunkD0Ev @1389
    _ZN4inet11FieldsChunkD1Ev @1390
    _ZN4inet11FieldsChunkD2Ev @1391
    _ZN4inet11FlowSpecObjC1Ev @1392
    _ZN4inet11FlowSpecObjC2Ev @1393
    _ZN4inet11GaugeFigure11addChildrenEv @1394
    _ZN4inet11GaugeFigure11redrawTicksEv @1395
    _ZN4inet11GaugeFigure11setMaxValueEd @1396
    _ZN4inet11GaugeFigure11setMinValueEd @1397
    _ZN4inet11GaugeFigure11setTickSizeEd @1398
    _ZN4inet11GaugeFigure12redrawCurvesEv @1399
    _ZN4inet11GaugeFigure12setLabelFontERKN7omnetpp7cFigure4FontE @1400
    _ZN4inet11GaugeFigure13setColorCurveERKN7omnetpp7cFigure5ColorEddPNS1_10cArcFigureE @1401
    _ZN4inet11GaugeFigure13setColorStripEPKc @1402
    _ZN4inet11GaugeFigure13setLabelColorERKN7omnetpp7cFigure5ColorE @1403
    _ZN4inet11GaugeFigure14setLabelOffsetEi @1404
    _ZN4inet11GaugeFigure14setNeedleColorERKN7omnetpp7cFigure5ColorE @1405
    _ZN4inet11GaugeFigure15setTickGeometryEPN7omnetpp11cLineFigureEi @1406
    _ZN4inet11GaugeFigure16setCurveGeometryEPN7omnetpp10cArcFigureE @1407
    _ZN4inet11GaugeFigure17setNeedleGeometryEv @1408
    _ZN4inet11GaugeFigure17setNumberGeometryEPN7omnetpp11cTextFigureEi @1409
    _ZN4inet11GaugeFigure18setBackgroundColorERKN7omnetpp7cFigure5ColorE @1410
    _ZN4inet11GaugeFigure18setNeedleTransformEv @1411
    _ZN4inet11GaugeFigure5parseEPN7omnetpp9cPropertyE @1412
    _ZN4inet11GaugeFigure6layoutEv @1413
    _ZN4inet11GaugeFigure7refreshEv @1414
    _ZN4inet11GaugeFigure8setLabelEPKc @1415
    _ZN4inet11GaugeFigure8setValueEiN7omnetpp7SimTimeEd @1416
    _ZN4inet11GaugeFigure9setBoundsERKN7omnetpp7cFigure9RectangleE @1417
    _ZN4inet11GaugeFigureC1EPKc @1418
    _ZN4inet11GaugeFigureC2EPKc @1419
    _ZN4inet11GaugeFigureD0Ev @1420
    _ZN4inet11GaugeFigureD1Ev @1421
    _ZN4inet11GaugeFigureD2Ev @1422
    _ZN4inet11GroupRecord10setAuxDataEyj @1423
    _ZN4inet11GroupRecord12eraseAuxDataEy @1424
    _ZN4inet11GroupRecord12parsimUnpackEPN7omnetpp11cCommBufferE @1425
    _ZN4inet11GroupRecord13insertAuxDataEj @1426
    _ZN4inet11GroupRecord13insertAuxDataEyj @1427
    _ZN4inet11GroupRecord13setRecordTypeEi @1428
    _ZN4inet11GroupRecord13setSourceListERKSt6vectorINS_11Ipv4AddressESaIS2_EE @1429
    _ZN4inet11GroupRecord15setGroupAddressERKNS_11Ipv4AddressE @1430
    _ZN4inet11GroupRecord19setAuxDataArraySizeEy @1431
    _ZN4inet11GroupRecord4copyERKS0_ @1432
    _ZN4inet11GroupRecordC1ERKS0_ @1433
    _ZN4inet11GroupRecordC1Ev @1434
    _ZN4inet11GroupRecordC2ERKS0_ @1435
    _ZN4inet11GroupRecordC2Ev @1436
    _ZN4inet11GroupRecordD0Ev @1437
    _ZN4inet11GroupRecordD1Ev @1438
    _ZN4inet11GroupRecordD2Ev @1439
    _ZN4inet11GroupRecordaSERKS0_ @1440
    _ZN4inet11HelloOption12parsimUnpackEPN7omnetpp11cCommBufferE @1441
    _ZN4inet11HelloOption4copyERKS0_ @1442
    _ZN4inet11HelloOption7setTypeENS_18PimHelloOptionTypeE @1443
    _ZN4inet11HelloOptionC1ERKS0_ @1444
    _ZN4inet11HelloOptionC1Ev @1445
    _ZN4inet11HelloOptionC2ERKS0_ @1446
    _ZN4inet11HelloOptionC2Ev @1447
    _ZN4inet11HelloOptionD0Ev @1448
    _ZN4inet11HelloOptionD1Ev @1449
    _ZN4inet11HelloOptionD2Ev @1450
    _ZN4inet11HelloOptionaSERKS0_ @1451
    _ZN4inet11HopLimitInd12parsimUnpackEPN7omnetpp11cCommBufferE @1452
    _ZN4inet11HopLimitInd4copyERKS0_ @1453
    _ZN4inet11HopLimitIndC1ERKS0_ @1454
    _ZN4inet11HopLimitIndC1Ev @1455
    _ZN4inet11HopLimitIndC2ERKS0_ @1456
    _ZN4inet11HopLimitIndC2Ev @1457
    _ZN4inet11HopLimitIndD0Ev @1458
    _ZN4inet11HopLimitIndD1Ev @1459
    _ZN4inet11HopLimitIndD2Ev @1460
    _ZN4inet11HopLimitIndaSERKS0_ @1461
    _ZN4inet11HopLimitReq12parsimUnpackEPN7omnetpp11cCommBufferE @1462
    _ZN4inet11HopLimitReq4copyERKS0_ @1463
    _ZN4inet11HopLimitReqC1ERKS0_ @1464
    _ZN4inet11HopLimitReqC1Ev @1465
    _ZN4inet11HopLimitReqC2ERKS0_ @1466
    _ZN4inet11HopLimitReqC2Ev @1467
    _ZN4inet11HopLimitReqD0Ev @1468
    _ZN4inet11HopLimitReqD1Ev @1469
    _ZN4inet11HopLimitReqD2Ev @1470
    _ZN4inet11HopLimitReqaSERKS0_ @1471
    _ZN4inet11Ieee8022Llc10initializeEi @1472
    _ZN4inet11Ieee8022Llc11decapsulateEPNS_6PacketE @1473
    _ZN4inet11Ieee8022Llc11encapsulateEPNS_6PacketE @1474
    _ZN4inet11Ieee8022Llc11getProtocolERKNS_12IntrusivePtrIKNS_17Ieee8022LlcHeaderEEE @1475
    _ZN4inet11Ieee8022Llc12clearSocketsEv @1476
    _ZN4inet11Ieee8022Llc19handleMessageWhenUpEPN7omnetpp8cMessageE @1477
    _ZN4inet11Ieee8022Llc19handleStopOperationEPNS_18LifecycleOperationE @1478
    _ZN4inet11Ieee8022Llc20handleCrashOperationEPNS_18LifecycleOperationE @1479
    _ZN4inet11Ieee8022Llc20handleStartOperationEPNS_18LifecycleOperationE @1480
    _ZN4inet11Ieee8022Llc20processPacketFromMacEPNS_6PacketE @1481
    _ZN4inet11Ieee8022Llc21handleRegisterServiceERKNS_8ProtocolEPN7omnetpp5cGateENS_16ServicePrimitiveE @1482
    _ZN4inet11Ieee8022Llc22handleRegisterProtocolERKNS_8ProtocolEPN7omnetpp5cGateENS_16ServicePrimitiveE @1483
    _ZN4inet11Ieee8022Llc28processPacketFromHigherLayerEPNS_6PacketE @1484
    _ZN4inet11Ieee8022Llc29processCommandFromHigherLayerEPNS_7RequestE @1485
    _ZN4inet11Ieee8022LlcD0Ev @1486
    _ZN4inet11Ieee8022LlcD1Ev @1487
    _ZN4inet11Ieee8022LlcD2Ev @1488
    _ZN4inet11IgmpMessage10setCrcModeENS_7CrcModeE @1489
    _ZN4inet11IgmpMessage12parsimUnpackEPN7omnetpp11cCommBufferE @1490
    _ZN4inet11IgmpMessage4copyERKS0_ @1491
    _ZN4inet11IgmpMessage6setCrcEt @1492
    _ZN4inet11IgmpMessage7setTypeENS_8IgmpTypeE @1493
    _ZN4inet11IgmpMessageC1ERKS0_ @1494
    _ZN4inet11IgmpMessageC1Ev @1495
    _ZN4inet11IgmpMessageC2ERKS0_ @1496
    _ZN4inet11IgmpMessageC2Ev @1497
    _ZN4inet11IgmpMessageD0Ev @1498
    _ZN4inet11IgmpMessageD1Ev @1499
    _ZN4inet11IgmpMessageD2Ev @1500
    _ZN4inet11IgmpMessageaSERKS0_ @1501
    _ZN4inet11Igmpv1Query12parsimUnpackEPN7omnetpp11cCommBufferE @1502
    _ZN4inet11Igmpv1Query4copyERKS0_ @1503
    _ZN4inet11Igmpv1Query9setUnusedEh @1504
    _ZN4inet11Igmpv1QueryC1ERKS0_ @1505
    _ZN4inet11Igmpv1QueryC1Ev @1506
    _ZN4inet11Igmpv1QueryC2ERKS0_ @1507
    _ZN4inet11Igmpv1QueryC2Ev @1508
    _ZN4inet11Igmpv1QueryD0Ev @1509
    _ZN4inet11Igmpv1QueryD1Ev @1510
    _ZN4inet11Igmpv1QueryD2Ev @1511
    _ZN4inet11Igmpv1QueryaSERKS0_ @1512
    _ZN4inet11Igmpv2Leave12parsimUnpackEPN7omnetpp11cCommBufferE @1513
    _ZN4inet11Igmpv2Leave14setMaxRespTimeEh @1514
    _ZN4inet11Igmpv2Leave15setGroupAddressERKNS_11Ipv4AddressE @1515
    _ZN4inet11Igmpv2Leave4copyERKS0_ @1516
    _ZN4inet11Igmpv2LeaveC1ERKS0_ @1517
    _ZN4inet11Igmpv2LeaveC1Ev @1518
    _ZN4inet11Igmpv2LeaveC2ERKS0_ @1519
    _ZN4inet11Igmpv2LeaveC2Ev @1520
    _ZN4inet11Igmpv2LeaveD0Ev @1521
    _ZN4inet11Igmpv2LeaveD1Ev @1522
    _ZN4inet11Igmpv2LeaveD2Ev @1523
    _ZN4inet11Igmpv2LeaveaSERKS0_ @1524
    _ZN4inet11Igmpv2Query12parsimUnpackEPN7omnetpp11cCommBufferE @1525
    _ZN4inet11Igmpv2Query18setMaxRespTimeCodeEh @1526
    _ZN4inet11Igmpv2Query4copyERKS0_ @1527
    _ZN4inet11Igmpv2QueryC1ERKS0_ @1528
    _ZN4inet11Igmpv2QueryC1Ev @1529
    _ZN4inet11Igmpv2QueryC2ERKS0_ @1530
    _ZN4inet11Igmpv2QueryC2Ev @1531
    _ZN4inet11Igmpv2QueryD0Ev @1532
    _ZN4inet11Igmpv2QueryD1Ev @1533
    _ZN4inet11Igmpv2QueryD2Ev @1534
    _ZN4inet11Igmpv2QueryaSERKS0_ @1535
    _ZN4inet11Igmpv3Query12parsimUnpackEPN7omnetpp11cCommBufferE @1536
    _ZN4inet11Igmpv3Query13setSourceListERKSt6vectorINS_11Ipv4AddressESaIS2_EE @1537
    _ZN4inet11Igmpv3Query20setQueryIntervalCodeEh @1538
    _ZN4inet11Igmpv3Query21setRobustnessVariableEh @1539
    _ZN4inet11Igmpv3Query21setSuppressRouterProcEb @1540
    _ZN4inet11Igmpv3Query4copyERKS0_ @1541
    _ZN4inet11Igmpv3Query7setResvEh @1542
    _ZN4inet11Igmpv3QueryC1ERKS0_ @1543
    _ZN4inet11Igmpv3QueryC1Ev @1544
    _ZN4inet11Igmpv3QueryC2ERKS0_ @1545
    _ZN4inet11Igmpv3QueryC2Ev @1546
    _ZN4inet11Igmpv3QueryD0Ev @1547
    _ZN4inet11Igmpv3QueryD1Ev @1548
    _ZN4inet11Igmpv3QueryD2Ev @1549
    _ZN4inet11Igmpv3QueryaSERKS0_ @1550
    _ZN4inet11Ipv4Address12isWellFormedEPKc @1551
    _ZN4inet11Ipv4Address14parseIPAddressEPKcPh @1552
    _ZN4inet11Ipv4Address15ALLONES_ADDRESSE @1553 DATA
    _ZN4inet11Ipv4Address15ALL_HOSTS_MCASTE @1554 DATA
    _ZN4inet11Ipv4Address16LL_MANET_ROUTERSE @1555 DATA
    _ZN4inet11Ipv4Address16LOOPBACK_ADDRESSE @1556 DATA
    _ZN4inet11Ipv4Address16LOOPBACK_NETMASKE @1557 DATA
    _ZN4inet11Ipv4Address17ALL_ROUTERS_MCASTE @1558 DATA
    _ZN4inet11Ipv4Address18maskedAddrAreEqualERKS0_S2_S2_ @1559
    _ZN4inet11Ipv4Address19UNSPECIFIED_ADDRESSE @1560 DATA
    _ZN4inet11Ipv4Address19_checkNetmaskLengthEi @1561
    _ZN4inet11Ipv4Address21ALL_RIP_ROUTERS_MCASTE @1562 DATA
    _ZN4inet11Ipv4Address22ALL_OSPF_ROUTERS_MCASTE @1563 DATA
    _ZN4inet11Ipv4Address23ALL_DVMRP_ROUTERS_MCASTE @1564 DATA
    _ZN4inet11Ipv4Address24ALL_IGMPV3_ROUTERS_MCASTE @1565 DATA
    _ZN4inet11Ipv4Address33ALL_OSPF_DESIGNATED_ROUTERS_MCASTE @1566 DATA
    _ZN4inet11Ipv4Address3setEPKc @1567
    _ZN4inet11Ipv4Address3setEiiii @1568
    _ZN4inet11Ipv4FragBuf11addFragmentEPNS_6PacketEN7omnetpp7SimTimeE @1569
    _ZN4inet11Ipv4FragBuf19purgeStaleFragmentsEPNS_4IcmpEN7omnetpp7SimTimeE @1570
    _ZN4inet11Ipv4FragBuf5flushEv @1571
    _ZN4inet11Ipv4FragBufC1Ev @1572
    _ZN4inet11Ipv4FragBufC2Ev @1573
    _ZN4inet11Ipv4FragBufD1Ev @1574
    _ZN4inet11Ipv4FragBufD2Ev @1575
    _ZN4inet11Ipv6Address10doTryParseERPKc @1576
    _ZN4inet11Ipv6Address11ALL_NODES_1E @1577 DATA
    _ZN4inet11Ipv6Address11ALL_NODES_2E @1578 DATA
    _ZN4inet11Ipv6Address13ALL_ROUTERS_1E @1579 DATA
    _ZN4inet11Ipv6Address13ALL_ROUTERS_2E @1580 DATA
    _ZN4inet11Ipv6Address13ALL_ROUTERS_5E @1581 DATA
    _ZN4inet11Ipv6Address13constructMaskEi @1582
    _ZN4inet11Ipv6Address13constructMaskEiPj @1583
    _ZN4inet11Ipv6Address16LINKLOCAL_PREFIXE @1584 DATA
    _ZN4inet11Ipv6Address16LL_MANET_ROUTERSE @1585 DATA
    _ZN4inet11Ipv6Address16LOOPBACK_ADDRESSE @1586 DATA
    _ZN4inet11Ipv6Address19UNSPECIFIED_ADDRESSE @1587 DATA
    _ZN4inet11Ipv6Address20formLinkLocalAddressERKNS_14InterfaceTokenE @1588
    _ZN4inet11Ipv6Address21SOLICITED_NODE_PREFIXE @1589 DATA
    _ZN4inet11Ipv6Address22ALL_OSPF_ROUTERS_MCASTE @1590 DATA
    _ZN4inet11Ipv6Address22tryParseAddrWithPrefixEPKcRi @1591
    _ZN4inet11Ipv6Address33ALL_OSPF_DESIGNATED_ROUTERS_MCASTE @1592 DATA
    _ZN4inet11Ipv6Address3setEPKc @1593
    _ZN4inet11Ipv6Address8tryParseEPKc @1594
    _ZN4inet11Ipv6Address9scopeNameENS0_5ScopeE @1595
    _ZN4inet11Ipv6Address9setPrefixERKS0_i @1596
    _ZN4inet11Ipv6Address9setSuffixERKS0_i @1597
    _ZN4inet11Ipv6FragBuf11addFragmentEPNS_6PacketEPKNS_10Ipv6HeaderEPKNS_18Ipv6FragmentHeaderEN7omnetpp7SimTimeE @1598
    _ZN4inet11Ipv6FragBuf19purgeStaleFragmentsEN7omnetpp7SimTimeE @1599
    _ZN4inet11Ipv6FragBuf4initEPNS_6Icmpv6E @1600
    _ZN4inet11Ipv6FragBufC1Ev @1601
    _ZN4inet11Ipv6FragBufC2Ev @1602
    _ZN4inet11Ipv6FragBufD1Ev @1603
    _ZN4inet11Ipv6FragBufD2Ev @1604
    _ZN4inet11IpvxTrafGen10initializeEi @1605
    _ZN4inet11IpvxTrafGen10sendPacketEv @1606
    _ZN4inet11IpvxTrafGen11printPacketEPNS_6PacketE @1607
    _ZN4inet11IpvxTrafGen13processPacketEPNS_6PacketE @1608
    _ZN4inet11IpvxTrafGen14chooseDestAddrEv @1609
    _ZN4inet11IpvxTrafGen16cancelNextPacketEv @1610
    _ZN4inet11IpvxTrafGen18allocatedProtocolsE @1611 DATA
    _ZN4inet11IpvxTrafGen18scheduleNextPacketEN7omnetpp7SimTimeE @1612
    _ZN4inet11IpvxTrafGen19handleMessageWhenUpEPN7omnetpp8cMessageE @1613
    _ZN4inet11IpvxTrafGen19handleStopOperationEPNS_18LifecycleOperationE @1614
    _ZN4inet11IpvxTrafGen20handleCrashOperationEPNS_18LifecycleOperationE @1615
    _ZN4inet11IpvxTrafGen20handleStartOperationEPNS_18LifecycleOperationE @1616
    _ZN4inet11IpvxTrafGen8startAppEv @1617
    _ZN4inet11IpvxTrafGen9isEnabledEv @1618
    _ZN4inet11IpvxTrafGenC1Ev @1619
    _ZN4inet11IpvxTrafGenC2Ev @1620
    _ZN4inet11IpvxTrafGenD0Ev @1621
    _ZN4inet11IpvxTrafGenD1Ev @1622
    _ZN4inet11IpvxTrafGenD2Ev @1623
    _ZN4inet11LineSegment19computeIntersectionERKS0_RNS_5CoordES4_ @1624
    _ZN4inet11LineSegment3NILE @1625 DATA
    _ZN4inet11LineSegmentC1ERKNS_5CoordES3_ @1626
    _ZN4inet11LineSegmentC1Ev @1627
    _ZN4inet11LineSegmentC2ERKNS_5CoordES3_ @1628
    _ZN4inet11LineSegmentC2Ev @1629
    _ZN4inet11NetworkInfo10initializeEv @1630
    _ZN4inet11NetworkInfo13handleMessageEPN7omnetpp8cMessageE @1631
    _ZN4inet11NetworkInfo14processCommandERKN7omnetpp11cXMLElementE @1632
    _ZN4inet11NetworkInfo15dumpRoutingInfoEPN7omnetpp7cModuleEPKcbb @1633
    _ZN4inet11PacketDrill14buildDataChunkExxxxxx @1634
    _ZN4inet11PacketDrill14buildInitChunkExxxxxxPN7omnetpp6cQueueE @1635
    _ZN4inet11PacketDrill14buildSackChunkExxxPN7omnetpp6cQueueES3_ @1636
    _ZN4inet11PacketDrill14buildTCPPacketEiNS_11direction_tEPKcjtjiPN7omnetpp6cQueueEPPc @1637
    _ZN4inet11PacketDrill14buildUDPPacketEiNS_11direction_tEtPPc @1638
    _ZN4inet11PacketDrill14makeIpv4HeaderENS_12IpProtocolIdENS_11direction_tENS_9L3AddressES3_ @1639
    _ZN4inet11PacketDrill15buildAbortChunkEx @1640
    _ZN4inet11PacketDrill15buildErrorChunkExPN7omnetpp6cQueueE @1641
    _ZN4inet11PacketDrill15buildSCTPPacketEiNS_11direction_tEPN7omnetpp6cQueueE @1642
    _ZN4inet11PacketDrill16setIpv4HeaderCrcERNS_12IntrusivePtrINS_10Ipv4HeaderEEE @1643
    _ZN4inet11PacketDrill17buildInitAckChunkExxxxxxPN7omnetpp6cQueueE @1644
    _ZN4inet11PacketDrill18buildReconfigChunkExPN7omnetpp6cQueueE @1645
    _ZN4inet11PacketDrill18buildShutdownChunkExx @1646
    _ZN4inet11PacketDrill19buildCookieAckChunkEx @1647
    _ZN4inet11PacketDrill19buildHeartbeatChunkExPNS_24PacketDrillSctpParameterE @1648
    _ZN4inet11PacketDrill20buildCookieEchoChunkExxPNS_16PacketDrillBytesE @1649
    _ZN4inet11PacketDrill21buildShutdownAckChunkEx @1650
    _ZN4inet11PacketDrill22buildHeartbeatAckChunkExPNS_24PacketDrillSctpParameterE @1651
    _ZN4inet11PacketDrill22evaluateExpressionListEPN7omnetpp6cQueueES3_PPc @1652
    _ZN4inet11PacketDrill22evaluateListExpressionEPNS_21PacketDrillExpressionES2_PPc @1653
    _ZN4inet11PacketDrill26buildShutdownCompleteChunkEx @1654
    _ZN4inet11PacketDrill26evaluate_binary_expressionEPNS_21PacketDrillExpressionES2_PPc @1655
    _ZN4inet11PacketDrill5pdappE @1656 DATA
    _ZN4inet11PacketDrill8evaluateEPNS_21PacketDrillExpressionES2_PPc @1657
    _ZN4inet11PacketDrillC1EPNS_14PacketDrillAppE @1658
    _ZN4inet11PacketDrillC2EPNS_14PacketDrillAppE @1659
    _ZN4inet11PacketDrillD1Ev @1660
    _ZN4inet11PacketDrillD2Ev @1661
    _ZN4inet11PimNeighbor7changedEv @1662
    _ZN4inet11PimNeighborC1EPNS_14InterfaceEntryENS_11Ipv4AddressEi @1663
    _ZN4inet11PimNeighborC2EPNS_14InterfaceEntryENS_11Ipv4AddressEi @1664
    _ZN4inet11PimNeighborD0Ev @1665
    _ZN4inet11PimNeighborD1Ev @1666
    _ZN4inet11PimNeighborD2Ev @1667
    _ZN4inet11PimRegister12parsimUnpackEPN7omnetpp11cCommBufferE @1668
    _ZN4inet11PimRegister12setReserved2Ej @1669
    _ZN4inet11PimRegister4copyERKS0_ @1670
    _ZN4inet11PimRegister4setBEb @1671
    _ZN4inet11PimRegister4setNEb @1672
    _ZN4inet11PimRegisterC1ERKS0_ @1673
    _ZN4inet11PimRegisterC1Ev @1674
    _ZN4inet11PimRegisterC2ERKS0_ @1675
    _ZN4inet11PimRegisterC2Ev @1676
    _ZN4inet11PimRegisterD0Ev @1677
    _ZN4inet11PimRegisterD1Ev @1678
    _ZN4inet11PimRegisterD2Ev @1679
    _ZN4inet11PimRegisteraSERKS0_ @1680
    _ZN4inet11PimSplitter10initializeEi @1681
    _ZN4inet11PimSplitter13handleMessageEPN7omnetpp8cMessageE @1682
    _ZN4inet11PimSplitter16processPIMPacketEPNS_6PacketE @1683
    _ZN4inet11PsbTimerMsg12parsimUnpackEPN7omnetpp11cCommBufferE @1684
    _ZN4inet11PsbTimerMsg4copyERKS0_ @1685
    _ZN4inet11PsbTimerMsg5setIdEi @1686
    _ZN4inet11PsbTimerMsgC1EPKcs @1687
    _ZN4inet11PsbTimerMsgC1ERKS0_ @1688
    _ZN4inet11PsbTimerMsgC2EPKcs @1689
    _ZN4inet11PsbTimerMsgC2ERKS0_ @1690
    _ZN4inet11PsbTimerMsgD0Ev @1691
    _ZN4inet11PsbTimerMsgD1Ev @1692
    _ZN4inet11PsbTimerMsgD2Ev @1693
    _ZN4inet11PsbTimerMsgaSERKS0_ @1694
    _ZN4inet11QueueFigure15setElementCountEi @1695
    _ZN4inet11QueueFigure18setMaxElementCountEi @1696
    _ZN4inet11QueueFigureC1EPKc @1697
    _ZN4inet11QueueFigureC2EPKc @1698
    _ZN4inet11RsvpMessage11setRsvpKindEi @1699
    _ZN4inet11RsvpMessage12parsimUnpackEPN7omnetpp11cCommBufferE @1700
    _ZN4inet11RsvpMessage4copyERKS0_ @1701
    _ZN4inet11RsvpMessageC1ERKS0_ @1702
    _ZN4inet11RsvpMessageC1Ev @1703
    _ZN4inet11RsvpMessageC2ERKS0_ @1704
    _ZN4inet11RsvpMessageC2Ev @1705
    _ZN4inet11RsvpMessageD0Ev @1706
    _ZN4inet11RsvpMessageD1Ev @1707
    _ZN4inet11RsvpMessageD2Ev @1708
    _ZN4inet11RsvpMessageaSERKS0_ @1709
    _ZN4inet11RsvpPathMsg12parsimUnpackEPN7omnetpp11cCommBufferE @1710
    _ZN4inet11RsvpPathMsg16setLabel_requestERKNS_15LabelRequestObjE @1711
    _ZN4inet11RsvpPathMsg20setSender_descriptorERKNS_18SenderDescriptor_tE @1712
    _ZN4inet11RsvpPathMsg4copyERKS0_ @1713
    _ZN4inet11RsvpPathMsg6setEROERKSt6vectorINS_6EroObjESaIS2_EE @1714
    _ZN4inet11RsvpPathMsg6setHopERKNS_10RsvpHopObjE @1715
    _ZN4inet11RsvpPathMsg8setColorEi @1716
    _ZN4inet11RsvpPathMsgC1ERKS0_ @1717
    _ZN4inet11RsvpPathMsgC1Ev @1718
    _ZN4inet11RsvpPathMsgC2ERKS0_ @1719
    _ZN4inet11RsvpPathMsgC2Ev @1720
    _ZN4inet11RsvpPathMsgD0Ev @1721
    _ZN4inet11RsvpPathMsgD1Ev @1722
    _ZN4inet11RsvpPathMsgD2Ev @1723
    _ZN4inet11RsvpPathMsgaSERKS0_ @1724
    _ZN4inet11RsvpResvMsg12parsimUnpackEPN7omnetpp11cCommBufferE @1725
    _ZN4inet11RsvpResvMsg17setFlowDescriptorERKSt6vectorINS_16FlowDescriptor_tESaIS2_EE @1726
    _ZN4inet11RsvpResvMsg4copyERKS0_ @1727
    _ZN4inet11RsvpResvMsg6setHopERKNS_10RsvpHopObjE @1728
    _ZN4inet11RsvpResvMsgC1ERKS0_ @1729
    _ZN4inet11RsvpResvMsgC1Ev @1730
    _ZN4inet11RsvpResvMsgC2ERKS0_ @1731
    _ZN4inet11RsvpResvMsgC2Ev @1732
    _ZN4inet11RsvpResvMsgD0Ev @1733
    _ZN4inet11RsvpResvMsgD1Ev @1734
    _ZN4inet11RsvpResvMsgD2Ev @1735
    _ZN4inet11RsvpResvMsgaSERKS0_ @1736
    _ZN4inet11SctpInfoReq12parsimUnpackEPN7omnetpp11cCommBufferE @1737
    _ZN4inet11SctpInfoReq4copyERKS0_ @1738
    _ZN4inet11SctpInfoReq7setTextEi @1739
    _ZN4inet11SctpInfoReqC1ERKS0_ @1740
    _ZN4inet11SctpInfoReqC1Ev @1741
    _ZN4inet11SctpInfoReqC2ERKS0_ @1742
    _ZN4inet11SctpInfoReqC2Ev @1743
    _ZN4inet11SctpInfoReqD0Ev @1744
    _ZN4inet11SctpInfoReqD1Ev @1745
    _ZN4inet11SctpInfoReqD2Ev @1746
    _ZN4inet11SctpInfoReqaSERKS0_ @1747
    _ZN4inet11SctpNatPeer10initializeEi @1748
    _ZN4inet11SctpNatPeer11handleTimerEPN7omnetpp8cMessageE @1749
    _ZN4inet11SctpNatPeer11sendRequestEb @1750
    _ZN4inet11SctpNatPeer12socketClosedEPNS_10SctpSocketE @1751
    _ZN4inet11SctpNatPeer13handleMessageEPN7omnetpp8cMessageE @1752
    _ZN4inet11SctpNatPeer13socketFailureEPNS_10SctpSocketEi @1753
    _ZN4inet11SctpNatPeer14sendOrScheduleEPN7omnetpp8cMessageE @1754
    _ZN4inet11SctpNatPeer15generateAndSendEv @1755
    _ZN4inet11SctpNatPeer15setStatusStringEPKc @1756
    _ZN4inet11SctpNatPeer16sendQueueRequestEv @1757
    _ZN4inet11SctpNatPeer16socketPeerClosedEPNS_10SctpSocketE @1758
    _ZN4inet11SctpNatPeer17socketDataArrivedEPNS_10SctpSocketEPNS_6PacketEb @1759
    _ZN4inet11SctpNatPeer17socketEstablishedEPNS_10SctpSocketEm @1760
    _ZN4inet11SctpNatPeer18sendRequestArrivedEPNS_10SctpSocketE @1761
    _ZN4inet11SctpNatPeer19addressAddedArrivedEPNS_10SctpSocketENS_9L3AddressES3_ @1762
    _ZN4inet11SctpNatPeer19msgAbandonedArrivedEPNS_10SctpSocketE @1763
    _ZN4inet11SctpNatPeer19socketStatusArrivedEPNS_10SctpSocketEPNS_13SctpStatusReqE @1764
    _ZN4inet11SctpNatPeer20sendqueueFullArrivedEPNS_10SctpSocketE @1765
    _ZN4inet11SctpNatPeer23shutdownReceivedArrivedEPNS_10SctpSocketE @1766
    _ZN4inet11SctpNatPeer29socketDataNotificationArrivedEPNS_10SctpSocketEPNS_7MessageE @1767
    _ZN4inet11SctpNatPeer6finishEv @1768
    _ZN4inet11SctpNatPeer7connectENS_9L3AddressEi @1769
    _ZN4inet11SctpNatPeer8connectxESt6vectorINS_9L3AddressESaIS2_EEi @1770
    _ZN4inet11SctpNatPeerC1Ev @1771
    _ZN4inet11SctpNatPeerC2Ev @1772
    _ZN4inet11SctpNatPeerD0Ev @1773
    _ZN4inet11SctpNatPeerD1Ev @1774
    _ZN4inet11SctpNatPeerD2Ev @1775
    _ZN4inet11SctpOpenReq11setPrMethodEi @1776
    _ZN4inet11SctpOpenReq12parsimUnpackEPN7omnetpp11cCommBufferE @1777
    _ZN4inet11SctpOpenReq13setAppLimitedEb @1778
    _ZN4inet11SctpOpenReq13setQueueClassEPKc @1779
    _ZN4inet11SctpOpenReq14setNumRequestsEj @1780
    _ZN4inet11SctpOpenReq14setStreamResetEb @1781
    _ZN4inet11SctpOpenReq17setInboundStreamsEj @1782
    _ZN4inet11SctpOpenReq17setLocalAddressesERKSt6vectorINS_9L3AddressESaIS2_EE @1783
    _ZN4inet11SctpOpenReq17setMessagesToPushEj @1784
    _ZN4inet11SctpOpenReq18setOutboundStreamsEj @1785
    _ZN4inet11SctpOpenReq18setRemoteAddressesERKSt6vectorINS_9L3AddressESaIS2_EE @1786
    _ZN4inet11SctpOpenReq21setSctpAlgorithmClassEPKc @1787
    _ZN4inet11SctpOpenReq4copyERKS0_ @1788
    _ZN4inet11SctpOpenReq7setForkEb @1789
    _ZN4inet11SctpOpenReqC1ERKS0_ @1790
    _ZN4inet11SctpOpenReqC1Ev @1791
    _ZN4inet11SctpOpenReqC2ERKS0_ @1792
    _ZN4inet11SctpOpenReqC2Ev @1793
    _ZN4inet11SctpOpenReqD0Ev @1794
    _ZN4inet11SctpOpenReqD1Ev @1795
    _ZN4inet11SctpOpenReqD2Ev @1796
    _ZN4inet11SctpOpenReqaSERKS0_ @1797
    _ZN4inet11SctpSendReq10setPrimaryEb @1798
    _ZN4inet11SctpSendReq10setSackNowEb @1799
    _ZN4inet11SctpSendReq11setPrMethodEj @1800
    _ZN4inet11SctpSendReq12parsimUnpackEPN7omnetpp11cCommBufferE @1801
    _ZN4inet11SctpSendReq4copyERKS0_ @1802
    _ZN4inet11SctpSendReq7setLastEb @1803
    _ZN4inet11SctpSendReq7setPpidEj @1804
    _ZN4inet11SctpSendReqC1ERKS0_ @1805
    _ZN4inet11SctpSendReqC1Ev @1806
    _ZN4inet11SctpSendReqC2ERKS0_ @1807
    _ZN4inet11SctpSendReqC2Ev @1808
    _ZN4inet11SctpSendReqD0Ev @1809
    _ZN4inet11SctpSendReqD1Ev @1810
    _ZN4inet11SctpSendReqD2Ev @1811
    _ZN4inet11SctpSendReqaSERKS0_ @1812
    _ZN4inet11ShortcutMac10initializeEi @1813
    _ZN4inet11ShortcutMac10sendToPeerEPNS_6PacketEPS0_ @1814
    _ZN4inet11ShortcutMac12shortcutMacsE @1815 DATA
    _ZN4inet11ShortcutMac15receiveFromPeerEPNS_6PacketE @1816
    _ZN4inet11ShortcutMac17handleLowerPacketEPNS_6PacketE @1817
    _ZN4inet11ShortcutMac17handleUpperPacketEPNS_6PacketE @1818
    _ZN4inet11ShortcutMac19handleMessageWhenUpEPN7omnetpp8cMessageE @1819
    _ZN4inet11ShortcutMac23configureInterfaceEntryEv @1820
    _ZN4inet11ShortcutMac8findPeerENS_10MacAddressE @1821
    _ZN4inet11ShortcutMacD0Ev @1822
    _ZN4inet11ShortcutMacD1Ev @1823
    _ZN4inet11ShortcutMacD2Ev @1824
    _ZN4inet11SpatialGrid11insertPointEPKN7omnetpp7cObjectERKNS_5CoordE @1825
    _ZN4inet11SpatialGrid11removePointEPKN7omnetpp7cObjectE @1826
    _ZN4inet11SpatialGrid12insertObjectEPKN7omnetpp7cObjectERKNS_5CoordES7_ @1827
    _ZN4inet11SpatialGrid9clearGridEv @1828
    _ZN4inet11SpatialGrid9movePointEPKN7omnetpp7cObjectERKNS_5CoordE @1829
    _ZN4inet11SpatialGridC1ERKNS_5CoordES3_S3_ @1830
    _ZN4inet11SpatialGridC2ERKNS_5CoordES3_S3_ @1831
    _ZN4inet11TrailFigure9addFigureEPN7omnetpp7cFigureE @1832
    _ZN4inet11TrailFigureC1EibPKc @1833
    _ZN4inet11TrailFigureC2EibPKc @1834
    _ZN4inet11UdpBasicApp10initializeEi @1835
    _ZN4inet11UdpBasicApp10sendPacketEv @1836
    _ZN4inet11UdpBasicApp11processSendEv @1837
    _ZN4inet11UdpBasicApp11processStopEv @1838
    _ZN4inet11UdpBasicApp12processStartEv @1839
    _ZN4inet11UdpBasicApp12socketClosedEPNS_9UdpSocketE @1840
    _ZN4inet11UdpBasicApp13processPacketEPNS_6PacketE @1841
    _ZN4inet11UdpBasicApp14chooseDestAddrEv @1842
    _ZN4inet11UdpBasicApp16setSocketOptionsEv @1843
    _ZN4inet11UdpBasicApp17socketDataArrivedEPNS_9UdpSocketEPNS_6PacketE @1844
    _ZN4inet11UdpBasicApp18socketErrorArrivedEPNS_9UdpSocketEPNS_10IndicationE @1845
    _ZN4inet11UdpBasicApp19handleMessageWhenUpEPN7omnetpp8cMessageE @1846
    _ZN4inet11UdpBasicApp19handleStopOperationEPNS_18LifecycleOperationE @1847
    _ZN4inet11UdpBasicApp20handleCrashOperationEPNS_18LifecycleOperationE @1848
    _ZN4inet11UdpBasicApp20handleStartOperationEPNS_18LifecycleOperationE @1849
    _ZN4inet11UdpBasicApp6finishEv @1850
    _ZN4inet11UdpBasicAppD0Ev @1851
    _ZN4inet11UdpBasicAppD1Ev @1852
    _ZN4inet11UdpBasicAppD2Ev @1853
    _ZN4inet11UdpSocketIo10initializeEi @1854
    _ZN4inet11UdpSocketIo12socketClosedEPNS_9UdpSocketE @1855
    _ZN4inet11UdpSocketIo16setSocketOptionsEv @1856
    _ZN4inet11UdpSocketIo17socketDataArrivedEPNS_9UdpSocketEPNS_6PacketE @1857
    _ZN4inet11UdpSocketIo18socketErrorArrivedEPNS_9UdpSocketEPNS_10IndicationE @1858
    _ZN4inet11UdpSocketIo19handleMessageWhenUpEPN7omnetpp8cMessageE @1859
    _ZN4inet11UdpSocketIo19handleStopOperationEPNS_18LifecycleOperationE @1860
    _ZN4inet11UdpSocketIo20handleCrashOperationEPNS_18LifecycleOperationE @1861
    _ZN4inet11UdpSocketIo20handleStartOperationEPNS_18LifecycleOperationE @1862
    _ZN4inet11UdpSocketIo6finishEv @1863
    _ZN4inet11VlanTagBase12parsimUnpackEPN7omnetpp11cCommBufferE @1864
    _ZN4inet11VlanTagBase4copyERKS0_ @1865
    _ZN4inet11VlanTagBase9setVlanIdEi @1866
    _ZN4inet11VlanTagBaseC1ERKS0_ @1867
    _ZN4inet11VlanTagBaseC1Ev @1868
    _ZN4inet11VlanTagBaseC2ERKS0_ @1869
    _ZN4inet11VlanTagBaseC2Ev @1870
    _ZN4inet11VlanTagBaseD0Ev @1871
    _ZN4inet11VlanTagBaseD1Ev @1872
    _ZN4inet11VlanTagBaseD2Ev @1873
    _ZN4inet11VlanTagBaseaSERKS0_ @1874
    _ZN4inet11__doPackingEPN7omnetpp11cCommBufferERKNS_10RsvpHopObjE @1875
    _ZN4inet11__doPackingEPN7omnetpp11cCommBufferERKNS_10SessionObjE @1876
    _ZN4inet11__doPackingEPN7omnetpp11cCommBufferERKNS_11FlowSpecObjE @1877
    _ZN4inet11__doPackingEPN7omnetpp11cCommBufferERKNS_13FilterSpecObjE @1878
    _ZN4inet11__doPackingEPN7omnetpp11cCommBufferERKNS_14SenderTspecObjE @1879
    _ZN4inet11__doPackingEPN7omnetpp11cCommBufferERKNS_15LabelRequestObjE @1880
    _ZN4inet11__doPackingEPN7omnetpp11cCommBufferERKNS_15TeLinkStateInfoE @1881
    _ZN4inet11__doPackingEPN7omnetpp11cCommBufferERKNS_16FlowDescriptor_tE @1882
    _ZN4inet11__doPackingEPN7omnetpp11cCommBufferERKNS_17SenderTemplateObjE @1883
    _ZN4inet11__doPackingEPN7omnetpp11cCommBufferERKNS_18SenderDescriptor_tE @1884
    _ZN4inet11__doPackingEPN7omnetpp11cCommBufferERKNS_19EncodedGroupAddressE @1885
    _ZN4inet11__doPackingEPN7omnetpp11cCommBufferERKNS_20EncodedSourceAddressE @1886
    _ZN4inet11__doPackingEPN7omnetpp11cCommBufferERKNS_21EncodedUnicastAddressE @1887
    _ZN4inet11__doPackingEPN7omnetpp11cCommBufferERKNS_6EroObjE @1888
    _ZN4inet11__doPackingEPN7omnetpp11cCommBufferERKNS_6FecTlvE @1889
    _ZN4inet11__doPackingEPN7omnetpp11cCommBufferERKNS_8RipEntryE @1890
    _ZN4inet12BindingCache10initializeEv @1891
    _ZN4inet12BindingCache11deleteEntryERKNS_11Ipv6AddressE @1892
    _ZN4inet12BindingCache11generateKeyEiiRKNS_11Ipv6AddressE @1893
    _ZN4inet12BindingCache13addOrUpdateBCERKNS_11Ipv6AddressES3_jjb @1894
    _ZN4inet12BindingCache13handleMessageEPN7omnetpp8cMessageE @1895
    _ZN4inet12BindingCache17generateHomeTokenERKNS_11Ipv6AddressEi @1896
    _ZN4inet12BindingCache19generateCareOfTokenERKNS_11Ipv6AddressEi @1897
    _ZN4inet12BindingCacheC1Ev @1898
    _ZN4inet12BindingCacheC2Ev @1899
    _ZN4inet12BindingCacheD0Ev @1900
    _ZN4inet12BindingCacheD1Ev @1901
    _ZN4inet12BindingCacheD2Ev @1902
    _ZN4inet12BindingError12parsimUnpackEPN7omnetpp11cCommBufferE @1903
    _ZN4inet12BindingError14setHomeAddressERKNS_11Ipv6AddressE @1904
    _ZN4inet12BindingError4copyERKS0_ @1905
    _ZN4inet12BindingError9setStatusENS_8BeStatusE @1906
    _ZN4inet12BindingErrorC1ERKS0_ @1907
    _ZN4inet12BindingErrorC1Ev @1908
    _ZN4inet12BindingErrorC2ERKS0_ @1909
    _ZN4inet12BindingErrorC2Ev @1910
    _ZN4inet12BindingErrorD0Ev @1911
    _ZN4inet12BindingErrorD1Ev @1912
    _ZN4inet12BindingErrorD2Ev @1913
    _ZN4inet12BindingErroraSERKS0_ @1914
    _ZN4inet12EchoProtocol10initializeEi @1915
    _ZN4inet12EchoProtocol13handleMessageEPN7omnetpp8cMessageE @1916
    _ZN4inet12EchoProtocol13processPacketEPNS_6PacketE @1917
    _ZN4inet12EchoProtocol16processEchoReplyEPNS_6PacketE @1918
    _ZN4inet12EchoProtocol18processEchoRequestEPNS_6PacketE @1919
    _ZN4inet12ErrorRateInd12parsimUnpackEPN7omnetpp11cCommBufferE @1920
    _ZN4inet12ErrorRateInd15setBitErrorRateEd @1921
    _ZN4inet12ErrorRateInd18setPacketErrorRateEd @1922
    _ZN4inet12ErrorRateInd18setSymbolErrorRateEd @1923
    _ZN4inet12ErrorRateInd4copyERKS0_ @1924
    _ZN4inet12ErrorRateIndC1ERKS0_ @1925
    _ZN4inet12ErrorRateIndC1Ev @1926
    _ZN4inet12ErrorRateIndC2ERKS0_ @1927
    _ZN4inet12ErrorRateIndC2Ev @1928
    _ZN4inet12ErrorRateIndD0Ev @1929
    _ZN4inet12ErrorRateIndD1Ev @1930
    _ZN4inet12ErrorRateIndD2Ev @1931
    _ZN4inet12ErrorRateIndaSERKS0_ @1932
    _ZN4inet12EtherAppResp12parsimUnpackEPN7omnetpp11cCommBufferE @1933
    _ZN4inet12EtherAppResp12setNumFramesEi @1934
    _ZN4inet12EtherAppResp12setRequestIdEi @1935
    _ZN4inet12EtherAppResp4copyERKS0_ @1936
    _ZN4inet12EtherAppRespC1ERKS0_ @1937
    _ZN4inet12EtherAppRespC1Ev @1938
    _ZN4inet12EtherAppRespC2ERKS0_ @1939
    _ZN4inet12EtherAppRespC2Ev @1940
    _ZN4inet12EtherAppRespD0Ev @1941
    _ZN4inet12EtherAppRespD1Ev @1942
    _ZN4inet12EtherAppRespD2Ev @1943
    _ZN4inet12EtherAppRespaSERKS0_ @1944
    _ZN4inet12EtherMacBase10initializeEi @1945
    _ZN4inet12EtherMacBase11decapsulateEPNS_6PacketE @1946
    _ZN4inet12EtherMacBase11encapsulateEPNS_6PacketE @1947
    _ZN4inet12EtherMacBase11etherDescrsE @1948 DATA
    _ZN4inet12EtherMacBase12rxPkOkSignalE @1949 DATA
    _ZN4inet12EtherMacBase13receiveSignalEPN7omnetpp10cComponentEiPNS1_7cObjectES5_ @1950
    _ZN4inet12EtherMacBase14nullEtherDescrE @1951 DATA
    _ZN4inet12EtherMacBase15initializeFlagsEv @1952
    _ZN4inet12EtherMacBase15initializeQueueEv @1953
    _ZN4inet12EtherMacBase15printParametersEv @1954
    _ZN4inet12EtherMacBase17dropFrameNotForUsEPNS_6PacketERKNS_12IntrusivePtrIKNS_17EthernetMacHeaderEEE @1955
    _ZN4inet12EtherMacBase17refreshConnectionEv @1956
    _ZN4inet12EtherMacBase18verifyCrcAndLengthEPNS_6PacketE @1957
    _ZN4inet12EtherMacBase19handleStopOperationEPNS_18LifecycleOperationE @1958
    _ZN4inet12EtherMacBase20changeReceptionStateENS0_15MacReceiveStateE @1959
    _ZN4inet12EtherMacBase20handleCrashOperationEPNS_18LifecycleOperationE @1960
    _ZN4inet12EtherMacBase20handleStartOperationEPNS_18LifecycleOperationE @1961
    _ZN4inet12EtherMacBase20initializeStatisticsEv @1962
    _ZN4inet12EtherMacBase20rxPausePkUnitsSignalE @1963 DATA
    _ZN4inet12EtherMacBase20txPausePkUnitsSignalE @1964 DATA
    _ZN4inet12EtherMacBase21readChannelParametersEb @1965
    _ZN4inet12EtherMacBase23SPEED_OF_LIGHT_IN_CABLEE @1966 DATA
    _ZN4inet12EtherMacBase23changeTransmissionStateENS0_16MacTransmitStateE @1967
    _ZN4inet12EtherMacBase23configureInterfaceEntryEv @1968
    _ZN4inet12EtherMacBase24processConnectDisconnectEv @1969
    _ZN4inet12EtherMacBase27receptionStateChangedSignalE @1970 DATA
    _ZN4inet12EtherMacBase30processAtHandleMessageFinishedEv @1971
    _ZN4inet12EtherMacBase30transmissionStateChangedSignalE @1972 DATA
    _ZN4inet12EtherMacBase6finishEv @1973
    _ZN4inet12EtherMacBaseC1Ev @1974
    _ZN4inet12EtherMacBaseC2Ev @1975
    _ZN4inet12EtherMacBaseD0Ev @1976
    _ZN4inet12EtherMacBaseD1Ev @1977
    _ZN4inet12EtherMacBaseD2Ev @1978
    _ZN4inet12EtherTrafGen10initializeEi @1979
    _ZN4inet12EtherTrafGen11isGeneratorEv @1980
    _ZN4inet12EtherTrafGen13receivePacketEPNS_6PacketE @1981
    _ZN4inet12EtherTrafGen16cancelNextPacketEv @1982
    _ZN4inet12EtherTrafGen16sendBurstPacketsEv @1983
    _ZN4inet12EtherTrafGen18scheduleNextPacketEN7omnetpp7SimTimeE @1984
    _ZN4inet12EtherTrafGen19handleMessageWhenUpEPN7omnetpp8cMessageE @1985
    _ZN4inet12EtherTrafGen19handleStopOperationEPNS_18LifecycleOperationE @1986
    _ZN4inet12EtherTrafGen20handleCrashOperationEPNS_18LifecycleOperationE @1987
    _ZN4inet12EtherTrafGen20handleStartOperationEPNS_18LifecycleOperationE @1988
    _ZN4inet12EtherTrafGen21resolveDestMacAddressEv @1989
    _ZN4inet12EtherTrafGen6finishEv @1990
    _ZN4inet12EtherTrafGenC1Ev @1991
    _ZN4inet12EtherTrafGenC2Ev @1992
    _ZN4inet12EtherTrafGenD0Ev @1993
    _ZN4inet12EtherTrafGenD1Ev @1994
    _ZN4inet12EtherTrafGenD2Ev @1995
    _ZN4inet12HomeTestInit12parsimUnpackEPN7omnetpp11cCommBufferE @1996
    _ZN4inet12HomeTestInit17setHomeInitCookieEj @1997
    _ZN4inet12HomeTestInit4copyERKS0_ @1998
    _ZN4inet12HomeTestInitC1ERKS0_ @1999
    _ZN4inet12HomeTestInitC1Ev @2000
    _ZN4inet12HomeTestInitC2ERKS0_ @2001
    _ZN4inet12HomeTestInitC2Ev @2002
    _ZN4inet12HomeTestInitD0Ev @2003
    _ZN4inet12HomeTestInitD1Ev @2004
    _ZN4inet12HomeTestInitD2Ev @2005
    _ZN4inet12HomeTestInitaSERKS0_ @2006
    _ZN4inet12Icmpv6Header10setCrcModeENS_7CrcModeE @2007
    _ZN4inet12Icmpv6Header12parsimUnpackEPN7omnetpp11cCommBufferE @2008
    _ZN4inet12Icmpv6Header4copyERKS0_ @2009
    _ZN4inet12Icmpv6Header7setTypeENS_10Icmpv6TypeE @2010
    _ZN4inet12Icmpv6Header9setChksumEi @2011
    _ZN4inet12Icmpv6HeaderC1ERKS0_ @2012
    _ZN4inet12Icmpv6HeaderC1Ev @2013
    _ZN4inet12Icmpv6HeaderC2ERKS0_ @2014
    _ZN4inet12Icmpv6HeaderC2Ev @2015
    _ZN4inet12Icmpv6HeaderD0Ev @2016
    _ZN4inet12Icmpv6HeaderD1Ev @2017
    _ZN4inet12Icmpv6HeaderD2Ev @2018
    _ZN4inet12Icmpv6HeaderaSERKS0_ @2019
    _ZN4inet12Igmpv1Report12parsimUnpackEPN7omnetpp11cCommBufferE @2020
    _ZN4inet12Igmpv1Report15setGroupAddressERKNS_11Ipv4AddressE @2021
    _ZN4inet12Igmpv1Report4copyERKS0_ @2022
    _ZN4inet12Igmpv1Report9setUnusedEh @2023
    _ZN4inet12Igmpv1ReportC1ERKS0_ @2024
    _ZN4inet12Igmpv1ReportC1Ev @2025
    _ZN4inet12Igmpv1ReportC2ERKS0_ @2026
    _ZN4inet12Igmpv1ReportC2Ev @2027
    _ZN4inet12Igmpv1ReportD0Ev @2028
    _ZN4inet12Igmpv1ReportD1Ev @2029
    _ZN4inet12Igmpv1ReportD2Ev @2030
    _ZN4inet12Igmpv1ReportaSERKS0_ @2031
    _ZN4inet12Igmpv2Report12parsimUnpackEPN7omnetpp11cCommBufferE @2032
    _ZN4inet12Igmpv2Report14setMaxRespTimeEh @2033
    _ZN4inet12Igmpv2Report15setGroupAddressERKNS_11Ipv4AddressE @2034
    _ZN4inet12Igmpv2Report4copyERKS0_ @2035
    _ZN4inet12Igmpv2ReportC1ERKS0_ @2036
    _ZN4inet12Igmpv2ReportC1Ev @2037
    _ZN4inet12Igmpv2ReportC2ERKS0_ @2038
    _ZN4inet12Igmpv2ReportC2Ev @2039
    _ZN4inet12Igmpv2ReportD0Ev @2040
    _ZN4inet12Igmpv2ReportD1Ev @2041
    _ZN4inet12Igmpv2ReportD2Ev @2042
    _ZN4inet12Igmpv2ReportaSERKS0_ @2043
    _ZN4inet12Igmpv3Report12parsimUnpackEPN7omnetpp11cCommBufferE @2044
    _ZN4inet12Igmpv3Report14setGroupRecordEyRKNS_11GroupRecordE @2045
    _ZN4inet12Igmpv3Report16eraseGroupRecordEy @2046
    _ZN4inet12Igmpv3Report17insertGroupRecordERKNS_11GroupRecordE @2047
    _ZN4inet12Igmpv3Report17insertGroupRecordEyRKNS_11GroupRecordE @2048
    _ZN4inet12Igmpv3Report23setGroupRecordArraySizeEy @2049
    _ZN4inet12Igmpv3Report4copyERKS0_ @2050
    _ZN4inet12Igmpv3Report8setResv1Eh @2051
    _ZN4inet12Igmpv3Report8setResv2Et @2052
    _ZN4inet12Igmpv3ReportC1ERKS0_ @2053
    _ZN4inet12Igmpv3ReportC1Ev @2054
    _ZN4inet12Igmpv3ReportC2ERKS0_ @2055
    _ZN4inet12Igmpv3ReportC2Ev @2056
    _ZN4inet12Igmpv3ReportD0Ev @2057
    _ZN4inet12Igmpv3ReportD1Ev @2058
    _ZN4inet12Igmpv3ReportD2Ev @2059
    _ZN4inet12Igmpv3ReportaSERKS0_ @2060
    _ZN4inet12InterfaceInd12parsimUnpackEPN7omnetpp11cCommBufferE @2061
    _ZN4inet12InterfaceInd4copyERKS0_ @2062
    _ZN4inet12InterfaceIndC1ERKS0_ @2063
    _ZN4inet12InterfaceIndC1Ev @2064
    _ZN4inet12InterfaceIndC2ERKS0_ @2065
    _ZN4inet12InterfaceIndC2Ev @2066
    _ZN4inet12InterfaceIndD0Ev @2067
    _ZN4inet12InterfaceIndD1Ev @2068
    _ZN4inet12InterfaceIndD2Ev @2069
    _ZN4inet12InterfaceIndaSERKS0_ @2070
    _ZN4inet12InterfaceReq12parsimUnpackEPN7omnetpp11cCommBufferE @2071
    _ZN4inet12InterfaceReq4copyERKS0_ @2072
    _ZN4inet12InterfaceReqC1ERKS0_ @2073
    _ZN4inet12InterfaceReqC1Ev @2074
    _ZN4inet12InterfaceReqC2ERKS0_ @2075
    _ZN4inet12InterfaceReqC2Ev @2076
    _ZN4inet12InterfaceReqD0Ev @2077
    _ZN4inet12InterfaceReqD1Ev @2078
    _ZN4inet12InterfaceReqD2Ev @2079
    _ZN4inet12InterfaceReqaSERKS0_ @2080
    _ZN4inet12IntervalTree10deleteNodeEPKNS0_8IntervalE @2081
    _ZN4inet12IntervalTree10deleteNodeEPNS0_4NodeE @2082
    _ZN4inet12IntervalTree10leftRotateEPNS0_4NodeE @2083
    _ZN4inet12IntervalTree11deleteFixupEPNS0_4NodeE @2084
    _ZN4inet12IntervalTree11rightRotateEPNS0_4NodeE @2085
    _ZN4inet12IntervalTree12fixupMaxHighEPNS0_4NodeE @2086
    _ZN4inet12IntervalTree15recursiveInsertEPNS0_4NodeE @2087
    _ZN4inet12IntervalTree4NodeC1EPKNS0_8IntervalE @2088
    _ZN4inet12IntervalTree4NodeC1Ev @2089
    _ZN4inet12IntervalTree4NodeC2EPKNS0_8IntervalE @2090
    _ZN4inet12IntervalTree4NodeC2Ev @2091
    _ZN4inet12IntervalTree4NodeD1Ev @2092
    _ZN4inet12IntervalTree4NodeD2Ev @2093
    _ZN4inet12IntervalTree5queryEN7omnetpp7SimTimeES2_ @2094
    _ZN4inet12IntervalTree6insertEPKNS0_8IntervalE @2095
    _ZN4inet12IntervalTreeC1Ev @2096
    _ZN4inet12IntervalTreeC2Ev @2097
    _ZN4inet12IntervalTreeD1Ev @2098
    _ZN4inet12IntervalTreeD2Ev @2099
    _ZN4inet12Ipv4NatEntry10setSrcPortEi @2100
    _ZN4inet12Ipv4NatEntry11setDestPortEi @2101
    _ZN4inet12Ipv4NatEntry12parsimUnpackEPN7omnetpp11cCommBufferE @2102
    _ZN4inet12Ipv4NatEntry13setSrcAddressERKNS_11Ipv4AddressE @2103
    _ZN4inet12Ipv4NatEntry14setDestAddressERKNS_11Ipv4AddressE @2104
    _ZN4inet12Ipv4NatEntry4copyERKS0_ @2105
    _ZN4inet12Ipv4NatEntryC1ERKS0_ @2106
    _ZN4inet12Ipv4NatEntryC1Ev @2107
    _ZN4inet12Ipv4NatEntryC2ERKS0_ @2108
    _ZN4inet12Ipv4NatEntryC2Ev @2109
    _ZN4inet12Ipv4NatEntryD0Ev @2110
    _ZN4inet12Ipv4NatEntryD1Ev @2111
    _ZN4inet12Ipv4NatEntryD2Ev @2112
    _ZN4inet12Ipv4NatEntryaSERKS0_ @2113
    _ZN4inet12Ipv4NatTable10initializeEi @2114
    _ZN4inet12Ipv4NatTable11parseConfigEv @2115
    _ZN4inet12Ipv4NatTable13handleMessageEPN7omnetpp8cMessageE @2116
    _ZN4inet12Ipv4NatTable13processPacketEPNS_6PacketENS_10INetfilter5IHook4TypeE @2117
    _ZN4inet12Ipv4NatTableD0Ev @2118
    _ZN4inet12Ipv4NatTableD1Ev @2119
    _ZN4inet12Ipv4NatTableD2Ev @2120
    _ZN4inet12Ipv6NdOption12parsimUnpackEPN7omnetpp11cCommBufferE @2121
    _ZN4inet12Ipv6NdOption15setOptionLengthEs @2122
    _ZN4inet12Ipv6NdOption15setPaddingBytesEyc @2123
    _ZN4inet12Ipv6NdOption17erasePaddingBytesEy @2124
    _ZN4inet12Ipv6NdOption18insertPaddingBytesEc @2125
    _ZN4inet12Ipv6NdOption18insertPaddingBytesEyc @2126
    _ZN4inet12Ipv6NdOption24setPaddingBytesArraySizeEy @2127
    _ZN4inet12Ipv6NdOption4copyERKS0_ @2128
    _ZN4inet12Ipv6NdOption7setTypeENS_17Ipv6NdOptionTypesE @2129
    _ZN4inet12Ipv6NdOptionC1ERKS0_ @2130
    _ZN4inet12Ipv6NdOptionC1Ev @2131
    _ZN4inet12Ipv6NdOptionC2ERKS0_ @2132
    _ZN4inet12Ipv6NdOptionC2Ev @2133
    _ZN4inet12Ipv6NdOptionD0Ev @2134
    _ZN4inet12Ipv6NdOptionD1Ev @2135
    _ZN4inet12Ipv6NdOptionD2Ev @2136
    _ZN4inet12Ipv6NdOptionaSERKS0_ @2137
    _ZN4inet12Ipv6Redirect10setOptionsERKNS_13Ipv6NdOptionsE @2138
    _ZN4inet12Ipv6Redirect12parsimUnpackEPN7omnetpp11cCommBufferE @2139
    _ZN4inet12Ipv6Redirect16setTargetAddressERKNS_11Ipv6AddressE @2140
    _ZN4inet12Ipv6Redirect21setDestinationAddressERKNS_11Ipv6AddressE @2141
    _ZN4inet12Ipv6Redirect4copyERKS0_ @2142
    _ZN4inet12Ipv6RedirectC1ERKS0_ @2143
    _ZN4inet12Ipv6RedirectC1Ev @2144
    _ZN4inet12Ipv6RedirectC2ERKS0_ @2145
    _ZN4inet12Ipv6RedirectC2Ev @2146
    _ZN4inet12Ipv6RedirectD0Ev @2147
    _ZN4inet12Ipv6RedirectD1Ev @2148
    _ZN4inet12Ipv6RedirectD2Ev @2149
    _ZN4inet12Ipv6RedirectaSERKS0_ @2150
    _ZN4inet12IpvxTrafSink10initializeEi @2151
    _ZN4inet12IpvxTrafSink11printPacketEPNS_6PacketE @2152
    _ZN4inet12IpvxTrafSink13processPacketEPNS_6PacketE @2153
    _ZN4inet12IpvxTrafSink19handleMessageWhenUpEPN7omnetpp8cMessageE @2154
    _ZN4inet12L3AddressInd12parsimUnpackEPN7omnetpp11cCommBufferE @2155
    _ZN4inet12L3AddressInd4copyERKS0_ @2156
    _ZN4inet12L3AddressIndC1ERKS0_ @2157
    _ZN4inet12L3AddressIndC1Ev @2158
    _ZN4inet12L3AddressIndC2ERKS0_ @2159
    _ZN4inet12L3AddressIndC2Ev @2160
    _ZN4inet12L3AddressIndD0Ev @2161
    _ZN4inet12L3AddressIndD1Ev @2162
    _ZN4inet12L3AddressIndD2Ev @2163
    _ZN4inet12L3AddressIndaSERKS0_ @2164
    _ZN4inet12L3AddressReq12parsimUnpackEPN7omnetpp11cCommBufferE @2165
    _ZN4inet12L3AddressReq21setNonLocalSrcAddressEb @2166
    _ZN4inet12L3AddressReq4copyERKS0_ @2167
    _ZN4inet12L3AddressReqC1ERKS0_ @2168
    _ZN4inet12L3AddressReqC1Ev @2169
    _ZN4inet12L3AddressReqC2ERKS0_ @2170
    _ZN4inet12L3AddressReqC2Ev @2171
    _ZN4inet12L3AddressReqD0Ev @2172
    _ZN4inet12L3AddressReqD1Ev @2173
    _ZN4inet12L3AddressReqD2Ev @2174
    _ZN4inet12L3AddressReqaSERKS0_ @2175
    _ZN4inet12LinkStateMsg10setCommandEi @2176
    _ZN4inet12LinkStateMsg10setRequestEb @2177
    _ZN4inet12LinkStateMsg11setLinkInfoEyRKNS_15TeLinkStateInfoE @2178
    _ZN4inet12LinkStateMsg12parsimUnpackEPN7omnetpp11cCommBufferE @2179
    _ZN4inet12LinkStateMsg13eraseLinkInfoEy @2180
    _ZN4inet12LinkStateMsg14insertLinkInfoERKNS_15TeLinkStateInfoE @2181
    _ZN4inet12LinkStateMsg14insertLinkInfoEyRKNS_15TeLinkStateInfoE @2182
    _ZN4inet12LinkStateMsg20setLinkInfoArraySizeEy @2183
    _ZN4inet12LinkStateMsg4copyERKS0_ @2184
    _ZN4inet12LinkStateMsgC1ERKS0_ @2185
    _ZN4inet12LinkStateMsgC1Ev @2186
    _ZN4inet12LinkStateMsgC2ERKS0_ @2187
    _ZN4inet12LinkStateMsgC2Ev @2188
    _ZN4inet12LinkStateMsgD0Ev @2189
    _ZN4inet12LinkStateMsgD1Ev @2190
    _ZN4inet12LinkStateMsgD2Ev @2191
    _ZN4inet12LinkStateMsgaSERKS0_ @2192
    _ZN4inet12MacRelayUnit10initializeEi @2193
    _ZN4inet12MacRelayUnit17handleLowerPacketEPNS_6PacketE @2194
    _ZN4inet12MacRelayUnit22handleAndDispatchFrameEPNS_6PacketE @2195
    _ZN4inet12MacRelayUnit4stopEv @2196
    _ZN4inet12MacRelayUnit5learnENS_10MacAddressEi @2197
    _ZN4inet12MacRelayUnit5startEv @2198
    _ZN4inet12MacRelayUnit6finishEv @2199
    _ZN4inet12MacRelayUnit9broadcastEPNS_6PacketEi @2200
    _ZN4inet12MassMobility10initializeEi @2201
    _ZN4inet12MassMobility17setTargetPositionEv @2202
    _ZN4inet12MassMobility4moveEv @2203
    _ZN4inet12MassMobility6orientEv @2204
    _ZN4inet12MassMobilityC1Ev @2205
    _ZN4inet12MassMobilityC2Ev @2206
    _ZN4inet12MobilityBase10initializeEi @2207
    _ZN4inet12MobilityBase13checkPositionEv @2208
    _ZN4inet12MobilityBase13handleMessageEPN7omnetpp8cMessageE @2209
    _ZN4inet12MobilityBase13wrapIfOutsideERNS_5CoordE @2210
    _ZN4inet12MobilityBase15handleIfOutsideENS0_12BorderPolicyERNS_5CoordES3_ @2211
    _ZN4inet12MobilityBase15handleIfOutsideENS0_12BorderPolicyERNS_5CoordES3_RNS_5units5valueIdNS4_5units3radEEE @2212
    _ZN4inet12MobilityBase15handleIfOutsideENS0_12BorderPolicyERNS_5CoordES3_RNS_5units5valueIdNS4_5units3radEEES9_ @2213
    _ZN4inet12MobilityBase15handleIfOutsideENS0_12BorderPolicyERNS_5CoordES3_RNS_5units5valueIdNS4_5units3radEEES9_RNS_10QuaternionE @2214
    _ZN4inet12MobilityBase16reflectIfOutsideERNS_5CoordES2_RNS_5units5valueIdNS3_5units3radEEES8_RNS_10QuaternionE @2215
    _ZN4inet12MobilityBase17getRandomPositionEv @2216
    _ZN4inet12MobilityBase18initializePositionEv @2217
    _ZN4inet12MobilityBase18setInitialPositionEv @2218
    _ZN4inet12MobilityBase19raiseErrorIfOutsideEv @2219
    _ZN4inet12MobilityBase21handleParameterChangeEPKc @2220
    _ZN4inet12MobilityBase21initializeOrientationEv @2221
    _ZN4inet12MobilityBase22placeRandomlyIfOutsideERNS_5CoordE @2222
    _ZN4inet12MobilityBase30emitMobilityStateChangedSignalEv @2223
    _ZN4inet12MobilityBase9isOutsideEv @2224
    _ZN4inet12MobilityBaseC2Ev @2225
    _ZN4inet12MulticastReq12parsimUnpackEPN7omnetpp11cCommBufferE @2226
    _ZN4inet12MulticastReq16setMulticastLoopEb @2227
    _ZN4inet12MulticastReq4copyERKS0_ @2228
    _ZN4inet12MulticastReqC1ERKS0_ @2229
    _ZN4inet12MulticastReqC1Ev @2230
    _ZN4inet12MulticastReqC2ERKS0_ @2231
    _ZN4inet12MulticastReqC2Ev @2232
    _ZN4inet12MulticastReqD0Ev @2233
    _ZN4inet12MulticastReqD1Ev @2234
    _ZN4inet12MulticastReqD2Ev @2235
    _ZN4inet12MulticastReqaSERKS0_ @2236
    _ZN4inet12NetAnimTrace10initializeEv @2237
    _ZN4inet12NetAnimTrace13handleMessageEPN7omnetpp8cMessageE @2238
    _ZN4inet12NetAnimTrace13receiveSignalEPN7omnetpp10cComponentEiPNS1_7cObjectES5_ @2239
    _ZN4inet12NetAnimTrace16isRelevantModuleEPN7omnetpp7cModuleE @2240
    _ZN4inet12NetAnimTrace17messageSentSignalE @2241 DATA
    _ZN4inet12NetAnimTrace22resolveNodeCoordinatesEPN7omnetpp7cModuleERdS4_ @2242
    _ZN4inet12NetAnimTrace26mobilityStateChangedSignalE @2243 DATA
    _ZN4inet12NetAnimTrace4dumpEv @2244
    _ZN4inet12NetAnimTrace6finishEv @2245
    _ZN4inet12NetAnimTrace7addLinkEPN7omnetpp5cGateE @2246
    _ZN4inet12NetAnimTrace7addNodeEPN7omnetpp7cModuleE @2247
    _ZN4inet12NetPerfMeter10initializeEi @2248
    _ZN4inet12NetPerfMeter11handleTimerEPN7omnetpp8cMessageE @2249
    _ZN4inet12NetPerfMeter11stopSendingEv @2250
    _ZN4inet12NetPerfMeter12getFrameRateEj @2251
    _ZN4inet12NetPerfMeter12getFrameSizeEj @2252
    _ZN4inet12NetPerfMeter12startSendingEv @2253
    _ZN4inet12NetPerfMeter13handleMessageEPN7omnetpp8cMessageE @2254
    _ZN4inet12NetPerfMeter13transmitFrameEjj @2255
    _ZN4inet12NetPerfMeter14receiveMessageEPN7omnetpp8cMessageE @2256
    _ZN4inet12NetPerfMeter15resetStatisticsEv @2257
    _ZN4inet12NetPerfMeter15writeStatisticsEv @2258
    _ZN4inet12NetPerfMeter18teardownConnectionEb @2259
    _ZN4inet12NetPerfMeter19createAndBindSocketEv @2260
    _ZN4inet12NetPerfMeter19establishConnectionEv @2261
    _ZN4inet12NetPerfMeter19sendDataOfTraceFileEy @2262
    _ZN4inet12NetPerfMeter19sendTCPQueueRequestEj @2263
    _ZN4inet12NetPerfMeter20sendSCTPQueueRequestEj @2264
    _ZN4inet12NetPerfMeter21parseExpressionVectorERSt6vectorIN7omnetpp18cDynamicExpressionESaIS3_EEPKcS8_ @2265
    _ZN4inet12NetPerfMeter26sendDataOfSaturatedStreamsEyPKNS_22SctpSendQueueAbatedReqE @2266
    _ZN4inet12NetPerfMeter29sendDataOfNonSaturatedStreamsEyj @2267
    _ZN4inet12NetPerfMeter33successfullyEstablishedConnectionEPN7omnetpp8cMessageEj @2268
    _ZN4inet12NetPerfMeter6finishEv @2269
    _ZN4inet12NetPerfMeter6formatEPKcz @2270
    _ZN4inet12NetPerfMeterC1Ev @2271
    _ZN4inet12NetPerfMeterC2Ev @2272
    _ZN4inet12NetPerfMeterD0Ev @2273
    _ZN4inet12NetPerfMeterD1Ev @2274
    _ZN4inet12NetPerfMeterD2Ev @2275
    _ZN4inet12NextHopRoute7changedEi @2276
    _ZN4inet12PacketFilter10setPatternEPKcS2_ @2277
    _ZN4inet12PacketFilter23PacketDissectorCallback10visitChunkERKNS_12IntrusivePtrIKNS_5ChunkEEEPKNS_8ProtocolE @2278
    _ZN4inet12PacketFilter23PacketDissectorCallback13markIncorrectEv @2279
    _ZN4inet12PacketFilter23PacketDissectorCallback19endProtocolDataUnitEPKNS_8ProtocolE @2280
    _ZN4inet12PacketFilter23PacketDissectorCallback21startProtocolDataUnitEPKNS_8ProtocolE @2281
    _ZN4inet12PacketFilter23PacketDissectorCallback7matchesEPKNS_6PacketE @2282
    _ZN4inet12PacketFilter23PacketDissectorCallbackC1ERKS0_ @2283
    _ZN4inet12PacketFilter23PacketDissectorCallbackC2ERKS0_ @2284
    _ZN4inet12PcapRecorder10initializeEv @2285
    _ZN4inet12PcapRecorder12recordPacketEPKN7omnetpp7cPacketEb @2286
    _ZN4inet12PcapRecorder13handleMessageEPN7omnetpp8cMessageE @2287
    _ZN4inet12PcapRecorder13receiveSignalEPN7omnetpp10cComponentEiPNS1_7cObjectES5_ @2288
    _ZN4inet12PcapRecorder20packetRecordedSignalE @2289 DATA
    _ZN4inet12PcapRecorder6finishEv @2290
    _ZN4inet12PcapRecorderC1Ev @2291
    _ZN4inet12PcapRecorderC2Ev @2292
    _ZN4inet12PcapRecorderD0Ev @2293
    _ZN4inet12PcapRecorderD1Ev @2294
    _ZN4inet12PcapRecorderD2Ev @2295
    _ZN4inet12PimJoinPrune11setHoldTimeEi @2296
    _ZN4inet12PimJoinPrune12parsimUnpackEPN7omnetpp11cCommBufferE @2297
    _ZN4inet12PimJoinPrune12setReserved2Ei @2298
    _ZN4inet12PimJoinPrune18setJoinPruneGroupsEyRKNS_14JoinPruneGroupE @2299
    _ZN4inet12PimJoinPrune20eraseJoinPruneGroupsEy @2300
    _ZN4inet12PimJoinPrune21insertJoinPruneGroupsERKNS_14JoinPruneGroupE @2301
    _ZN4inet12PimJoinPrune21insertJoinPruneGroupsEyRKNS_14JoinPruneGroupE @2302
    _ZN4inet12PimJoinPrune26setUpstreamNeighborAddressERKNS_21EncodedUnicastAddressE @2303
    _ZN4inet12PimJoinPrune27setJoinPruneGroupsArraySizeEy @2304
    _ZN4inet12PimJoinPrune4copyERKS0_ @2305
    _ZN4inet12PimJoinPruneC1ERKS0_ @2306
    _ZN4inet12PimJoinPruneC1Ev @2307
    _ZN4inet12PimJoinPruneC2ERKS0_ @2308
    _ZN4inet12PimJoinPruneC2Ev @2309
    _ZN4inet12PimJoinPruneD0Ev @2310
    _ZN4inet12PimJoinPruneD1Ev @2311
    _ZN4inet12PimJoinPruneD2Ev @2312
    _ZN4inet12PimJoinPruneaSERKS0_ @2313
    _ZN4inet12RegionTagSet12clearAllTagsEv @2314
    _ZN4inet12RegionTagSet15ensureAllocatedEv @2315
    _ZN4inet12RegionTagSet6addTagENS_5units5valueIxNS1_5units1bEEES5_PN7omnetpp7cObjectE @2316
    _ZN4inet12RegionTagSet8copyTagsERKS0_NS_5units5valueIxNS3_5units1bEEES7_S7_ @2317
    _ZN4inet12RegionTagSet8moveTagsENS_5units5valueIxNS1_5units1bEEE @2318
    _ZN4inet12RegionTagSet9clearTagsENS_5units5valueIxNS1_5units1bEEES5_ @2319
    _ZN4inet12RegionTagSet9removeTagEi @2320
    _ZN4inet12RegionTagSetC1EOS0_ @2321
    _ZN4inet12RegionTagSetC1ERKS0_ @2322
    _ZN4inet12RegionTagSetC1Ev @2323
    _ZN4inet12RegionTagSetC2EOS0_ @2324
    _ZN4inet12RegionTagSetC2ERKS0_ @2325
    _ZN4inet12RegionTagSetC2Ev @2326
    _ZN4inet12RegionTagSetD0Ev @2327
    _ZN4inet12RegionTagSetD1Ev @2328
    _ZN4inet12RegionTagSetD2Ev @2329
    _ZN4inet12RegionTagSetaSEOS0_ @2330
    _ZN4inet12RegionTagSetaSERKS0_ @2331
    _ZN4inet12RsvpHelloMsg10setRequestEb @2332
    _ZN4inet12RsvpHelloMsg12parsimUnpackEPN7omnetpp11cCommBufferE @2333
    _ZN4inet12RsvpHelloMsg14setDstInstanceEi @2334
    _ZN4inet12RsvpHelloMsg14setSrcInstanceEi @2335
    _ZN4inet12RsvpHelloMsg4copyERKS0_ @2336
    _ZN4inet12RsvpHelloMsg6setAckEb @2337
    _ZN4inet12RsvpHelloMsgC1ERKS0_ @2338
    _ZN4inet12RsvpHelloMsgC1Ev @2339
    _ZN4inet12RsvpHelloMsgC2ERKS0_ @2340
    _ZN4inet12RsvpHelloMsgC2Ev @2341
    _ZN4inet12RsvpHelloMsgD0Ev @2342
    _ZN4inet12RsvpHelloMsgD1Ev @2343
    _ZN4inet12RsvpHelloMsgD2Ev @2344
    _ZN4inet12RsvpHelloMsgaSERKS0_ @2345
    _ZN4inet12RsvpPathTear12parsimUnpackEPN7omnetpp11cCommBufferE @2346
    _ZN4inet12RsvpPathTear17setSenderTemplateERKNS_17SenderTemplateObjE @2347
    _ZN4inet12RsvpPathTear4copyERKS0_ @2348
    _ZN4inet12RsvpPathTear6setHopERKNS_10RsvpHopObjE @2349
    _ZN4inet12RsvpPathTear8setForceEb @2350
    _ZN4inet12RsvpPathTearC1ERKS0_ @2351
    _ZN4inet12RsvpPathTearC1Ev @2352
    _ZN4inet12RsvpPathTearC2ERKS0_ @2353
    _ZN4inet12RsvpPathTearC2Ev @2354
    _ZN4inet12RsvpPathTearD0Ev @2355
    _ZN4inet12RsvpPathTearD1Ev @2356
    _ZN4inet12RsvpPathTearD2Ev @2357
    _ZN4inet12RsvpPathTearaSERKS0_ @2358
    _ZN4inet12RsvpResvTear12parsimUnpackEPN7omnetpp11cCommBufferE @2359
    _ZN4inet12RsvpResvTear17setFlowDescriptorERKSt6vectorINS_16FlowDescriptor_tESaIS2_EE @2360
    _ZN4inet12RsvpResvTear4copyERKS0_ @2361
    _ZN4inet12RsvpResvTear6setHopERKNS_10RsvpHopObjE @2362
    _ZN4inet12RsvpResvTearC1ERKS0_ @2363
    _ZN4inet12RsvpResvTearC1Ev @2364
    _ZN4inet12RsvpResvTearC2ERKS0_ @2365
    _ZN4inet12RsvpResvTearC2Ev @2366
    _ZN4inet12RsvpResvTearD0Ev @2367
    _ZN4inet12RsvpResvTearD1Ev @2368
    _ZN4inet12RsvpResvTearD2Ev @2369
    _ZN4inet12RsvpResvTearaSERKS0_ @2370
    _ZN4inet12SctpPathInfo12parsimUnpackEPN7omnetpp11cCommBufferE @2371
    _ZN4inet12SctpPathInfo16setRemoteAddressERKNS_9L3AddressE @2372
    _ZN4inet12SctpPathInfo4copyERKS0_ @2373
    _ZN4inet12SctpPathInfoC1EPKc @2374
    _ZN4inet12SctpPathInfoC1ERKS0_ @2375
    _ZN4inet12SctpPathInfoC2EPKc @2376
    _ZN4inet12SctpPathInfoC2ERKS0_ @2377
    _ZN4inet12SctpPathInfoD0Ev @2378
    _ZN4inet12SctpPathInfoD1Ev @2379
    _ZN4inet12SctpPathInfoD2Ev @2380
    _ZN4inet12SctpPathInfoaSERKS0_ @2381
    _ZN4inet12SctpResetReq10setStreamsEyt @2382
    _ZN4inet12SctpResetReq12eraseStreamsEy @2383
    _ZN4inet12SctpResetReq12parsimUnpackEPN7omnetpp11cCommBufferE @2384
    _ZN4inet12SctpResetReq12setInstreamsEt @2385
    _ZN4inet12SctpResetReq13insertStreamsEt @2386
    _ZN4inet12SctpResetReq13insertStreamsEyt @2387
    _ZN4inet12SctpResetReq13setOutstreamsEt @2388
    _ZN4inet12SctpResetReq14setRequestTypeEt @2389
    _ZN4inet12SctpResetReq19setStreamsArraySizeEy @2390
    _ZN4inet12SctpResetReq4copyERKS0_ @2391
    _ZN4inet12SctpResetReqC1ERKS0_ @2392
    _ZN4inet12SctpResetReqC1Ev @2393
    _ZN4inet12SctpResetReqC2ERKS0_ @2394
    _ZN4inet12SctpResetReqC2Ev @2395
    _ZN4inet12SctpResetReqD0Ev @2396
    _ZN4inet12SctpResetReqD1Ev @2397
    _ZN4inet12SctpResetReqD2Ev @2398
    _ZN4inet12SctpResetReqaSERKS0_ @2399
    _ZN4inet12SignalFigure12setRingCountEi @2400
    _ZN4inet12SignalFigure12setWaveCountEi @2401
    _ZN4inet12SignalFigure7refreshEv @2402
    _ZN4inet12SignalFigure8setColorERKN7omnetpp7cFigure5ColorE @2403
    _ZN4inet12SignalFigureC1EPKc @2404
    _ZN4inet12SignalFigureC2EPKc @2405
    _ZN4inet12SignalSource10initializeEv @2406
    _ZN4inet12SignalSource13handleMessageEPN7omnetpp8cMessageE @2407
    _ZN4inet12SignalSource6finishEv @2408
    _ZN4inet12StringFormat11parseFormatEPKc @2409
    _ZN4inet12StringFormat12formatStringEPKcPKNS0_18IDirectiveResolverE @2410
    _ZN4inet12StringFormat12formatStringEPKcSt8functionIFS2_cEE @2411
    _ZN4inet12TcpErrorInfo12parsimUnpackEPN7omnetpp11cCommBufferE @2412
    _ZN4inet12TcpErrorInfo12setErrorCodeENS_12TcpErrorCodeE @2413
    _ZN4inet12TcpErrorInfo14setMessageTextEPKc @2414
    _ZN4inet12TcpErrorInfo4copyERKS0_ @2415
    _ZN4inet12TcpErrorInfoC1ERKS0_ @2416
    _ZN4inet12TcpErrorInfoC1Ev @2417
    _ZN4inet12TcpErrorInfoC2ERKS0_ @2418
    _ZN4inet12TcpErrorInfoC2Ev @2419
    _ZN4inet12TcpErrorInfoD0Ev @2420
    _ZN4inet12TcpErrorInfoD1Ev @2421
    _ZN4inet12TcpErrorInfoD2Ev @2422
    _ZN4inet12TcpErrorInfoaSERKS0_ @2423
    _ZN4inet12ThruputMeter10initializeEv @2424
    _ZN4inet12ThruputMeter11updateStatsEN7omnetpp7SimTimeEm @2425
    _ZN4inet12ThruputMeter13handleMessageEPN7omnetpp8cMessageE @2426
    _ZN4inet12ThruputMeter16beginNewIntervalEN7omnetpp7SimTimeE @2427
    _ZN4inet12ThruputMeter6finishEv @2428
    _ZN4inet12TlvOptionRaw10eraseBytesEy @2429
    _ZN4inet12TlvOptionRaw11insertBytesEc @2430
    _ZN4inet12TlvOptionRaw11insertBytesEyc @2431
    _ZN4inet12TlvOptionRaw12parsimUnpackEPN7omnetpp11cCommBufferE @2432
    _ZN4inet12TlvOptionRaw17setBytesArraySizeEy @2433
    _ZN4inet12TlvOptionRaw4copyERKS0_ @2434
    _ZN4inet12TlvOptionRaw8setBytesEyc @2435
    _ZN4inet12TlvOptionRawC1ERKS0_ @2436
    _ZN4inet12TlvOptionRawC1Ev @2437
    _ZN4inet12TlvOptionRawC2ERKS0_ @2438
    _ZN4inet12TlvOptionRawC2Ev @2439
    _ZN4inet12TlvOptionRawD0Ev @2440
    _ZN4inet12TlvOptionRawD1Ev @2441
    _ZN4inet12TlvOptionRawD2Ev @2442
    _ZN4inet12TlvOptionRawaSERKS0_ @2443
    _ZN4inet12cPacketChunkC1EPN7omnetpp7cPacketE @2444
    _ZN4inet12cPacketChunkC1ERKS0_ @2445
    _ZN4inet12cPacketChunkC2EPN7omnetpp7cPacketE @2446
    _ZN4inet12cPacketChunkC2ERKS0_ @2447
    _ZN4inet12cPacketChunkD0Ev @2448
    _ZN4inet12cPacketChunkD1Ev @2449
    _ZN4inet12cPacketChunkD2Ev @2450
    _ZN4inet12parseCrcModeEPKcb @2451
    _ZN4inet12parseFcsModeEPKc @2452
    _ZN4inet13AnsimMobility10initializeEi @2453
    _ZN4inet13AnsimMobility15computeMaxSpeedEv @2454
    _ZN4inet13AnsimMobility15extractDataFromEPN7omnetpp11cXMLElementE @2455
    _ZN4inet13AnsimMobility17setTargetPositionEv @2456
    _ZN4inet13AnsimMobility18setInitialPositionEv @2457
    _ZN4inet13AnsimMobility22findNextPositionChangeEPN7omnetpp11cXMLElementE @2458
    _ZN4inet13AnsimMobility4moveEv @2459
    _ZN4inet13AnsimMobilityC1Ev @2460
    _ZN4inet13AnsimMobilityC2Ev @2461
    _ZN4inet13ApskPhyHeader10setCrcModeENS_7CrcModeE @2462
    _ZN4inet13ApskPhyHeader12parsimUnpackEPN7omnetpp11cCommBufferE @2463
    _ZN4inet13ApskPhyHeader18setPayloadProtocolEPKNS_8ProtocolE @2464
    _ZN4inet13ApskPhyHeader20setHeaderLengthFieldENS_5units5valueIxNS1_5units1bEEE @2465
    _ZN4inet13ApskPhyHeader21setPayloadLengthFieldENS_5units5valueIxNS1_5units1bEEE @2466
    _ZN4inet13ApskPhyHeader4copyERKS0_ @2467
    _ZN4inet13ApskPhyHeader6setCrcEt @2468
    _ZN4inet13ApskPhyHeaderC1ERKS0_ @2469
    _ZN4inet13ApskPhyHeaderC1Ev @2470
    _ZN4inet13ApskPhyHeaderC2ERKS0_ @2471
    _ZN4inet13ApskPhyHeaderC2Ev @2472
    _ZN4inet13ApskPhyHeaderD0Ev @2473
    _ZN4inet13ApskPhyHeaderD1Ev @2474
    _ZN4inet13ApskPhyHeaderD2Ev @2475
    _ZN4inet13ApskPhyHeaderaSERKS0_ @2476
    _ZN4inet13BindingUpdate10setAckFlagEb @2477
    _ZN4inet13BindingUpdate11setLifetimeEj @2478
    _ZN4inet13BindingUpdate11setSequenceEj @2479
    _ZN4inet13BindingUpdate12parsimUnpackEPN7omnetpp11cCommBufferE @2480
    _ZN4inet13BindingUpdate16setHomeAddressMNERKNS_11Ipv6AddressE @2481
    _ZN4inet13BindingUpdate20setKeyManagementFlagEb @2482
    _ZN4inet13BindingUpdate23setHomeRegistrationFlagEb @2483
    _ZN4inet13BindingUpdate27setBindingAuthorizationDataEi @2484
    _ZN4inet13BindingUpdate36setLinkLocalAddressCompatibilityFlagEb @2485
    _ZN4inet13BindingUpdate4copyERKS0_ @2486
    _ZN4inet13BindingUpdateC1ERKS0_ @2487
    _ZN4inet13BindingUpdateC1Ev @2488
    _ZN4inet13BindingUpdateC2ERKS0_ @2489
    _ZN4inet13BindingUpdateC2Ev @2490
    _ZN4inet13BindingUpdateD0Ev @2491
    _ZN4inet13BindingUpdateD1Ev @2492
    _ZN4inet13BindingUpdateD2Ev @2493
    _ZN4inet13BindingUpdateaSERKS0_ @2494
    _ZN4inet13BitCountChunk12convertChunkERKSt9type_infoRKNS_12IntrusivePtrINS_5ChunkEEENS_5units5valueIxNS9_5units1bEEESD_i @2495
    _ZN4inet13BitCountChunk14doInsertAtBackERKNS_12IntrusivePtrIKNS_5ChunkEEE @2496
    _ZN4inet13BitCountChunk14doRemoveAtBackENS_5units5valueIxNS1_5units1bEEE @2497
    _ZN4inet13BitCountChunk15doInsertAtFrontERKNS_12IntrusivePtrIKNS_5ChunkEEE @2498
    _ZN4inet13BitCountChunk15doRemoveAtFrontENS_5units5valueIxNS1_5units1bEEE @2499
    _ZN4inet13BitCountChunk7setDataEb @2500
    _ZN4inet13BitCountChunk9setLengthENS_5units5valueIxNS1_5units1bEEE @2501
    _ZN4inet13BitCountChunkC1ENS_5units5valueIxNS1_5units1bEEEb @2502
    _ZN4inet13BitCountChunkC1ERKS0_ @2503
    _ZN4inet13BitCountChunkC1Ev @2504
    _ZN4inet13BitCountChunkC2ENS_5units5valueIxNS1_5units1bEEEb @2505
    _ZN4inet13BitCountChunkC2ERKS0_ @2506
    _ZN4inet13BitCountChunkC2Ev @2507
    _ZN4inet13CounterFigure11addChildrenEv @2508
    _ZN4inet13CounterFigure12setDigitFontERKN7omnetpp7cFigure4FontE @2509
    _ZN4inet13CounterFigure12setLabelFontERKN7omnetpp7cFigure4FontE @2510
    _ZN4inet13CounterFigure13setDigitColorERKN7omnetpp7cFigure5ColorE @2511
    _ZN4inet13CounterFigure13setLabelColorERKN7omnetpp7cFigure5ColorE @2512
    _ZN4inet13CounterFigure14setLabelOffsetEi @2513
    _ZN4inet13CounterFigure15calculateBoundsEv @2514
    _ZN4inet13CounterFigure16calculateRealPosERKN7omnetpp7cFigure5PointE @2515
    _ZN4inet13CounterFigure16setDecimalPlacesEi @2516
    _ZN4inet13CounterFigure18setBackgroundColorERKN7omnetpp7cFigure5ColorE @2517
    _ZN4inet13CounterFigure19setDigitBorderColorERKN7omnetpp7cFigure5ColorE @2518
    _ZN4inet13CounterFigure23setDigitBackgroundColorERKN7omnetpp7cFigure5ColorE @2519
    _ZN4inet13CounterFigure5parseEPN7omnetpp9cPropertyE @2520
    _ZN4inet13CounterFigure6layoutEv @2521
    _ZN4inet13CounterFigure6setPosERKN7omnetpp7cFigure5PointE @2522
    _ZN4inet13CounterFigure7refreshEv @2523
    _ZN4inet13CounterFigure8setLabelEPKc @2524
    _ZN4inet13CounterFigure8setValueEiN7omnetpp7SimTimeEd @2525
    _ZN4inet13CounterFigure9setAnchorEN7omnetpp7cFigure6AnchorE @2526
    _ZN4inet13CounterFigureC1EPKc @2527
    _ZN4inet13CounterFigureC2EPKc @2528
    _ZN4inet13FilterSpecObjC1Ev @2529
    _ZN4inet13FilterSpecObjC2Ev @2530
    _ZN4inet13GenericAppMsg12parsimUnpackEPN7omnetpp11cCommBufferE @2531
    _ZN4inet13GenericAppMsg13setReplyDelayEd @2532
    _ZN4inet13GenericAppMsg14setServerCloseEb @2533
    _ZN4inet13GenericAppMsg22setExpectedReplyLengthENS_5units5valueIxNS1_8intscaleINS1_5units1bELi1ELi8EEEEE @2534
    _ZN4inet13GenericAppMsg4copyERKS0_ @2535
    _ZN4inet13GenericAppMsgC1ERKS0_ @2536
    _ZN4inet13GenericAppMsgC1Ev @2537
    _ZN4inet13GenericAppMsgC2ERKS0_ @2538
    _ZN4inet13GenericAppMsgC2Ev @2539
    _ZN4inet13GenericAppMsgD0Ev @2540
    _ZN4inet13GenericAppMsgD1Ev @2541
    _ZN4inet13GenericAppMsgD2Ev @2542
    _ZN4inet13GenericAppMsgaSERKS0_ @2543
    _ZN4inet13HeatMapFigure7getHeatEii @2544
    _ZN4inet13HeatMapFigure7setHeatEiid @2545
    _ZN4inet13HeatMapFigure8coolDownEv @2546
    _ZN4inet13HeatMapFigure8heatLineEiiii @2547
    _ZN4inet13HeatMapFigure9heatPointEii @2548
    _ZN4inet13HeatMapFigureC1EiPKc @2549
    _ZN4inet13HeatMapFigureC2EiPKc @2550
    _ZN4inet13HelloTimerMsg12parsimUnpackEPN7omnetpp11cCommBufferE @2551
    _ZN4inet13HelloTimerMsg4copyERKS0_ @2552
    _ZN4inet13HelloTimerMsg7setPeerERKNS_11Ipv4AddressE @2553
    _ZN4inet13HelloTimerMsgC1EPKcs @2554
    _ZN4inet13HelloTimerMsgC1ERKS0_ @2555
    _ZN4inet13HelloTimerMsgC2EPKcs @2556
    _ZN4inet13HelloTimerMsgC2ERKS0_ @2557
    _ZN4inet13HelloTimerMsgD0Ev @2558
    _ZN4inet13HelloTimerMsgD1Ev @2559
    _ZN4inet13HelloTimerMsgD2Ev @2560
    _ZN4inet13HelloTimerMsgaSERKS0_ @2561
    _ZN4inet13IcmpEchoReply12parsimUnpackEPN7omnetpp11cCommBufferE @2562
    _ZN4inet13IcmpEchoReply12setSeqNumberEi @2563
    _ZN4inet13IcmpEchoReply13setIdentifierEi @2564
    _ZN4inet13IcmpEchoReply4copyERKS0_ @2565
    _ZN4inet13IcmpEchoReplyC1ERKS0_ @2566
    _ZN4inet13IcmpEchoReplyC1Ev @2567
    _ZN4inet13IcmpEchoReplyC2ERKS0_ @2568
    _ZN4inet13IcmpEchoReplyC2Ev @2569
    _ZN4inet13IcmpEchoReplyD0Ev @2570
    _ZN4inet13IcmpEchoReplyD1Ev @2571
    _ZN4inet13IcmpEchoReplyD2Ev @2572
    _ZN4inet13IcmpEchoReplyaSERKS0_ @2573
    _ZN4inet13Ieee802154Mac10executeMacENS0_11t_mac_eventEPN7omnetpp8cMessageE @2574
    _ZN4inet13Ieee802154Mac10initializeEi @2575
    _ZN4inet13Ieee802154Mac10startTimerENS0_11t_mac_timerE @2576
    _ZN4inet13Ieee802154Mac11decapsulateEPNS_6PacketE @2577
    _ZN4inet13Ieee802154Mac11manageQueueEv @2578
    _ZN4inet13Ieee802154Mac12attachSignalEPNS_6PacketERKN7omnetpp7SimTimeE @2579
    _ZN4inet13Ieee802154Mac13receiveSignalEPN7omnetpp10cComponentEilPNS1_7cObjectE @2580
    _ZN4inet13Ieee802154Mac14updateMacStateENS0_12t_mac_statesE @2581
    _ZN4inet13Ieee802154Mac15scheduleBackoffEv @2582
    _ZN4inet13Ieee802154Mac15updateStatusCCAENS0_11t_mac_eventEPN7omnetpp8cMessageE @2583
    _ZN4inet13Ieee802154Mac16manageMissingAckENS0_11t_mac_eventEPN7omnetpp8cMessageE @2584
    _ZN4inet13Ieee802154Mac16updateStatusIdleENS0_11t_mac_eventEPN7omnetpp8cMessageE @2585
    _ZN4inet13Ieee802154Mac16updateStatusSIFSENS0_11t_mac_eventEPN7omnetpp8cMessageE @2586
    _ZN4inet13Ieee802154Mac17handleLowerPacketEPNS_6PacketE @2587
    _ZN4inet13Ieee802154Mac17handleSelfMessageEPN7omnetpp8cMessageE @2588
    _ZN4inet13Ieee802154Mac17handleUpperPacketEPNS_6PacketE @2589
    _ZN4inet13Ieee802154Mac19updateStatusBackoffENS0_11t_mac_eventEPN7omnetpp8cMessageE @2590
    _ZN4inet13Ieee802154Mac19updateStatusNotIdleEPN7omnetpp8cMessageE @2591
    _ZN4inet13Ieee802154Mac19updateStatusWaitAckENS0_11t_mac_eventEPN7omnetpp8cMessageE @2592
    _ZN4inet13Ieee802154Mac23configureInterfaceEntryEv @2593
    _ZN4inet13Ieee802154Mac23updateStatusTransmitAckENS0_11t_mac_eventEPN7omnetpp8cMessageE @2594
    _ZN4inet13Ieee802154Mac25updateStatusTransmitFrameENS0_11t_mac_eventEPN7omnetpp8cMessageE @2595
    _ZN4inet13Ieee802154Mac6finishEv @2596
    _ZN4inet13Ieee802154Mac8fsmErrorENS0_11t_mac_eventEPN7omnetpp8cMessageE @2597
    _ZN4inet13Ieee802154MacD0Ev @2598
    _ZN4inet13Ieee802154MacD1Ev @2599
    _ZN4inet13Ieee802154MacD2Ev @2600
    _ZN4inet13Ieee802SapInd12parsimUnpackEPN7omnetpp11cCommBufferE @2601
    _ZN4inet13Ieee802SapInd4copyERKS0_ @2602
    _ZN4inet13Ieee802SapIndC1ERKS0_ @2603
    _ZN4inet13Ieee802SapIndC1Ev @2604
    _ZN4inet13Ieee802SapIndC2ERKS0_ @2605
    _ZN4inet13Ieee802SapIndC2Ev @2606
    _ZN4inet13Ieee802SapIndD0Ev @2607
    _ZN4inet13Ieee802SapIndD1Ev @2608
    _ZN4inet13Ieee802SapIndD2Ev @2609
    _ZN4inet13Ieee802SapIndaSERKS0_ @2610
    _ZN4inet13Ieee802SapReq12parsimUnpackEPN7omnetpp11cCommBufferE @2611
    _ZN4inet13Ieee802SapReq4copyERKS0_ @2612
    _ZN4inet13Ieee802SapReqC1ERKS0_ @2613
    _ZN4inet13Ieee802SapReqC1Ev @2614
    _ZN4inet13Ieee802SapReqC2ERKS0_ @2615
    _ZN4inet13Ieee802SapReqC2Ev @2616
    _ZN4inet13Ieee802SapReqD0Ev @2617
    _ZN4inet13Ieee802SapReqD1Ev @2618
    _ZN4inet13Ieee802SapReqD2Ev @2619
    _ZN4inet13Ieee802SapReqaSERKS0_ @2620
    _ZN4inet13Ipv4OptionEnd12parsimUnpackEPN7omnetpp11cCommBufferE @2621
    _ZN4inet13Ipv4OptionEnd4copyERKS0_ @2622
    _ZN4inet13Ipv4OptionEndC1ERKS0_ @2623
    _ZN4inet13Ipv4OptionEndC1Ev @2624
    _ZN4inet13Ipv4OptionEndC2ERKS0_ @2625
    _ZN4inet13Ipv4OptionEndC2Ev @2626
    _ZN4inet13Ipv4OptionEndD0Ev @2627
    _ZN4inet13Ipv4OptionEndD1Ev @2628
    _ZN4inet13Ipv4OptionEndD2Ev @2629
    _ZN4inet13Ipv4OptionEndaSERKS0_ @2630
    _ZN4inet13Ipv4OptionNop12parsimUnpackEPN7omnetpp11cCommBufferE @2631
    _ZN4inet13Ipv4OptionNop4copyERKS0_ @2632
    _ZN4inet13Ipv4OptionNopC1ERKS0_ @2633
    _ZN4inet13Ipv4OptionNopC1Ev @2634
    _ZN4inet13Ipv4OptionNopC2ERKS0_ @2635
    _ZN4inet13Ipv4OptionNopC2Ev @2636
    _ZN4inet13Ipv4OptionNopD0Ev @2637
    _ZN4inet13Ipv4OptionNopD1Ev @2638
    _ZN4inet13Ipv4OptionNopD2Ev @2639
    _ZN4inet13Ipv4OptionNopaSERKS0_ @2640
    _ZN4inet13Ipv6NdMessage12parsimUnpackEPN7omnetpp11cCommBufferE @2641
    _ZN4inet13Ipv6NdMessage4copyERKS0_ @2642
    _ZN4inet13Ipv6NdMessage7setCodeEi @2643
    _ZN4inet13Ipv6NdMessageC1ERKS0_ @2644
    _ZN4inet13Ipv6NdMessageC1Ev @2645
    _ZN4inet13Ipv6NdMessageC2ERKS0_ @2646
    _ZN4inet13Ipv6NdMessageC2Ev @2647
    _ZN4inet13Ipv6NdMessageD0Ev @2648
    _ZN4inet13Ipv6NdMessageD1Ev @2649
    _ZN4inet13Ipv6NdMessageD2Ev @2650
    _ZN4inet13Ipv6NdMessageaSERKS0_ @2651
    _ZN4inet13Ipv6NdOptions10dropOptionEy @2652
    _ZN4inet13Ipv6NdOptions11eraseOptionEy @2653
    _ZN4inet13Ipv6NdOptions12insertOptionEPNS_12Ipv6NdOptionE @2654
    _ZN4inet13Ipv6NdOptions12insertOptionEyPNS_12Ipv6NdOptionE @2655
    _ZN4inet13Ipv6NdOptions12parsimUnpackEPN7omnetpp11cCommBufferE @2656
    _ZN4inet13Ipv6NdOptions18insertUniqueOptionEyPNS_12Ipv6NdOptionE @2657
    _ZN4inet13Ipv6NdOptions18setOptionArraySizeEy @2658
    _ZN4inet13Ipv6NdOptions19findOptionForUpdateENS_17Ipv6NdOptionTypesE @2659
    _ZN4inet13Ipv6NdOptions4copyERKS0_ @2660
    _ZN4inet13Ipv6NdOptions9setOptionEyPNS_12Ipv6NdOptionE @2661
    _ZN4inet13Ipv6NdOptionsC1ERKS0_ @2662
    _ZN4inet13Ipv6NdOptionsC1Ev @2663
    _ZN4inet13Ipv6NdOptionsC2ERKS0_ @2664
    _ZN4inet13Ipv6NdOptionsC2Ev @2665
    _ZN4inet13Ipv6NdOptionsD0Ev @2666
    _ZN4inet13Ipv6NdOptionsD1Ev @2667
    _ZN4inet13Ipv6NdOptionsD2Ev @2668
    _ZN4inet13Ipv6NdOptionsaSERKS0_ @2669
    _ZN4inet13Ipv6Tunneling10initializeEi @2670
    _ZN4inet13Ipv6Tunneling12createTunnelENS0_10TunnelTypeERKNS_11Ipv6AddressES4_S4_ @2671
    _ZN4inet13Ipv6Tunneling12isTunnelExitERKNS_11Ipv6AddressE @2672
    _ZN4inet13Ipv6Tunneling13destroyTunnelERKNS_11Ipv6AddressES3_ @2673
    _ZN4inet13Ipv6Tunneling13destroyTunnelERKNS_11Ipv6AddressES3_S3_ @2674
    _ZN4inet13Ipv6Tunneling13doPrefixMatchERKNS_11Ipv6AddressE @2675
    _ZN4inet13Ipv6Tunneling13handleMessageEPN7omnetpp8cMessageE @2676
    _ZN4inet13Ipv6Tunneling13lookupTunnelsERKNS_11Ipv6AddressE @2677
    _ZN4inet13Ipv6Tunneling14destroyTunnelsERKNS_11Ipv6AddressE @2678
    _ZN4inet13Ipv6Tunneling18getVIfIndexForDestERKNS_11Ipv6AddressE @2679
    _ZN4inet13Ipv6Tunneling18getVIfIndexForDestERKNS_11Ipv6AddressENS0_10TunnelTypeE @2680
    _ZN4inet13Ipv6Tunneling19decapsulateDatagramEPNS_6PacketE @2681
    _ZN4inet13Ipv6Tunneling19encapsulateDatagramEPNS_6PacketE @2682
    _ZN4inet13Ipv6Tunneling24destroyTunnelFromTriggerERKNS_11Ipv6AddressE @2683
    _ZN4inet13Ipv6Tunneling30destroyTunnelForExitAndTriggerERKNS_11Ipv6AddressES3_ @2684
    _ZN4inet13Ipv6Tunneling31destroyTunnelForEntryAndTriggerERKNS_11Ipv6AddressES3_ @2685
    _ZN4inet13Ipv6TunnelingC1Ev @2686
    _ZN4inet13Ipv6TunnelingC2Ev @2687
    _ZN4inet13L4PortTagBase10setSrcPortEi @2688
    _ZN4inet13L4PortTagBase11setDestPortEi @2689
    _ZN4inet13L4PortTagBase12parsimUnpackEPN7omnetpp11cCommBufferE @2690
    _ZN4inet13L4PortTagBase4copyERKS0_ @2691
    _ZN4inet13L4PortTagBaseC1ERKS0_ @2692
    _ZN4inet13L4PortTagBaseC1Ev @2693
    _ZN4inet13L4PortTagBaseC2ERKS0_ @2694
    _ZN4inet13L4PortTagBaseC2Ev @2695
    _ZN4inet13L4PortTagBaseD0Ev @2696
    _ZN4inet13L4PortTagBaseD1Ev @2697
    _ZN4inet13L4PortTagBaseD2Ev @2698
    _ZN4inet13L4PortTagBaseaSERKS0_ @2699
    _ZN4inet13MacAddressInd12parsimUnpackEPN7omnetpp11cCommBufferE @2700
    _ZN4inet13MacAddressInd4copyERKS0_ @2701
    _ZN4inet13MacAddressIndC1ERKS0_ @2702
    _ZN4inet13MacAddressIndC1Ev @2703
    _ZN4inet13MacAddressIndC2ERKS0_ @2704
    _ZN4inet13MacAddressIndC2Ev @2705
    _ZN4inet13MacAddressIndD0Ev @2706
    _ZN4inet13MacAddressIndD1Ev @2707
    _ZN4inet13MacAddressIndD2Ev @2708
    _ZN4inet13MacAddressIndaSERKS0_ @2709
    _ZN4inet13MacAddressReq12parsimUnpackEPN7omnetpp11cCommBufferE @2710
    _ZN4inet13MacAddressReq4copyERKS0_ @2711
    _ZN4inet13MacAddressReqC1ERKS0_ @2712
    _ZN4inet13MacAddressReqC1Ev @2713
    _ZN4inet13MacAddressReqC2ERKS0_ @2714
    _ZN4inet13MacAddressReqC2Ev @2715
    _ZN4inet13MacAddressReqD0Ev @2716
    _ZN4inet13MacAddressReqD1Ev @2717
    _ZN4inet13MacAddressReqD2Ev @2718
    _ZN4inet13MacAddressReqaSERKS0_ @2719
    _ZN4inet13ObjectPrinter11printIndentERSoi @2720
    _ZN4inet13ObjectPrinter18matchesObjectFieldEPN7omnetpp7cObjectEi @2721
    _ZN4inet13ObjectPrinter19printObjectToStreamERSoPN7omnetpp7cObjectE @2722
    _ZN4inet13ObjectPrinter19printObjectToStreamERSoPvPN7omnetpp16cClassDescriptorEPS2_i @2723
    _ZN4inet13ObjectPrinter19printObjectToStringB5cxx11EPN7omnetpp7cObjectE @2724
    _ZN4inet13ObjectPrinterC1EPFNS_29ObjectPrinterRecursionControlEPvPN7omnetpp16cClassDescriptorEiS2_PS2_iEPKci @2725
    _ZN4inet13ObjectPrinterC1EPFNS_29ObjectPrinterRecursionControlEPvPN7omnetpp16cClassDescriptorEiS2_PS2_iERKSt6vectorIPNS3_16cMatchExpressionESaISB_EERKS9_ISD_SaISD_EEi @2726
    _ZN4inet13ObjectPrinterC2EPFNS_29ObjectPrinterRecursionControlEPvPN7omnetpp16cClassDescriptorEiS2_PS2_iEPKci @2727
    _ZN4inet13ObjectPrinterC2EPFNS_29ObjectPrinterRecursionControlEPvPN7omnetpp16cClassDescriptorEiS2_PS2_iERKSt6vectorIPNS3_16cMatchExpressionESaISB_EERKS9_ISD_SaISD_EEi @2728
    _ZN4inet13ObjectPrinterD1Ev @2729
    _ZN4inet13ObjectPrinterD2Ev @2730
    _ZN4inet13PathNotifyMsg10setSessionERKNS_10SessionObjE @2731
    _ZN4inet13PathNotifyMsg12parsimUnpackEPN7omnetpp11cCommBufferE @2732
    _ZN4inet13PathNotifyMsg4copyERKS0_ @2733
    _ZN4inet13PathNotifyMsg9setSenderERKNS_17SenderTemplateObjE @2734
    _ZN4inet13PathNotifyMsg9setStatusEi @2735
    _ZN4inet13PathNotifyMsgC1EPKcs @2736
    _ZN4inet13PathNotifyMsgC1ERKS0_ @2737
    _ZN4inet13PathNotifyMsgC2EPKcs @2738
    _ZN4inet13PathNotifyMsgC2ERKS0_ @2739
    _ZN4inet13PathNotifyMsgD0Ev @2740
    _ZN4inet13PathNotifyMsgD1Ev @2741
    _ZN4inet13PathNotifyMsgD2Ev @2742
    _ZN4inet13PathNotifyMsgaSERKS0_ @2743
    _ZN4inet13PositionTable11setPositionERKNS_9L3AddressERKNS_5CoordE @2744
    _ZN4inet13PositionTable14removePositionERKNS_9L3AddressE @2745
    _ZN4inet13PositionTable18removeOldPositionsEN7omnetpp7SimTimeE @2746
    _ZN4inet13PositionTable5clearEv @2747
    _ZN4inet13ProtocolGroup10ipprotocolE @2748 DATA
    _ZN4inet13ProtocolGroup11addProtocolEiPKNS_8ProtocolE @2749
    _ZN4inet13ProtocolGroup11pppprotocolE @2750 DATA
    _ZN4inet13ProtocolGroup11tcpprotocolE @2751 DATA
    _ZN4inet13ProtocolGroup11udpprotocolE @2752 DATA
    _ZN4inet13ProtocolGroup16ieee8022protocolE @2753 DATA
    _ZN4inet13ProtocolGroup7snapOuiE @2754 DATA
    _ZN4inet13ProtocolGroup9ethertypeE @2755 DATA
    _ZN4inet13ProtocolGroupC1EPKcSt3mapIiPKNS_8ProtocolESt4lessIiESaISt4pairIKiS6_EEE @2756
    _ZN4inet13ProtocolGroupC2EPKcSt3mapIiPKNS_8ProtocolESt4lessIiESaISt4pairIKiS6_EEE @2757
    _ZN4inet13PsbTimeoutMsg12parsimUnpackEPN7omnetpp11cCommBufferE @2758
    _ZN4inet13PsbTimeoutMsg4copyERKS0_ @2759
    _ZN4inet13PsbTimeoutMsg5setIdEi @2760
    _ZN4inet13PsbTimeoutMsgC1EPKcs @2761
    _ZN4inet13PsbTimeoutMsgC1ERKS0_ @2762
    _ZN4inet13PsbTimeoutMsgC2EPKcs @2763
    _ZN4inet13PsbTimeoutMsgC2ERKS0_ @2764
    _ZN4inet13PsbTimeoutMsgD0Ev @2765
    _ZN4inet13PsbTimeoutMsgD1Ev @2766
    _ZN4inet13PsbTimeoutMsgD2Ev @2767
    _ZN4inet13PsbTimeoutMsgaSERKS0_ @2768
    _ZN4inet13QosClassifier10initializeEi @2769
    _ZN4inet13QosClassifier13handleMessageEPN7omnetpp8cMessageE @2770
    _ZN4inet13QosClassifier15getUserPriorityEPN7omnetpp8cMessageE @2771
    _ZN4inet13QosClassifier17parseUserPriorityEPKc @2772
    _ZN4inet13QosClassifier20parseUserPriorityMapEPKcRSt3mapIiiSt4lessIiESaISt4pairIKiiEEE @2773
    _ZN4inet13QosClassifier21handleRegisterServiceERKNS_8ProtocolEPN7omnetpp5cGateENS_16ServicePrimitiveE @2774
    _ZN4inet13QosClassifier22handleRegisterProtocolERKNS_8ProtocolEPN7omnetpp5cGateENS_16ServicePrimitiveE @2775
    _ZN4inet13ReorderBuffer16popAvailableDataENS_5units5valueIxNS1_5units1bEEE @2776
    _ZN4inet13RsbTimeoutMsg12parsimUnpackEPN7omnetpp11cCommBufferE @2777
    _ZN4inet13RsbTimeoutMsg4copyERKS0_ @2778
    _ZN4inet13RsbTimeoutMsg5setIdEi @2779
    _ZN4inet13RsbTimeoutMsgC1EPKcs @2780
    _ZN4inet13RsbTimeoutMsgC1ERKS0_ @2781
    _ZN4inet13RsbTimeoutMsgC2EPKcs @2782
    _ZN4inet13RsbTimeoutMsgC2ERKS0_ @2783
    _ZN4inet13RsbTimeoutMsgD0Ev @2784
    _ZN4inet13RsbTimeoutMsgD1Ev @2785
    _ZN4inet13RsbTimeoutMsgD2Ev @2786
    _ZN4inet13RsbTimeoutMsgaSERKS0_ @2787
    _ZN4inet13RsvpPathError12parsimUnpackEPN7omnetpp11cCommBufferE @2788
    _ZN4inet13RsvpPathError12setErrorCodeEi @2789
    _ZN4inet13RsvpPathError12setErrorNodeERKNS_11Ipv4AddressE @2790
    _ZN4inet13RsvpPathError20setSender_descriptorERKNS_18SenderDescriptor_tE @2791
    _ZN4inet13RsvpPathError4copyERKS0_ @2792
    _ZN4inet13RsvpPathErrorC1ERKS0_ @2793
    _ZN4inet13RsvpPathErrorC1Ev @2794
    _ZN4inet13RsvpPathErrorC2ERKS0_ @2795
    _ZN4inet13RsvpPathErrorC2Ev @2796
    _ZN4inet13RsvpPathErrorD0Ev @2797
    _ZN4inet13RsvpPathErrorD1Ev @2798
    _ZN4inet13RsvpPathErrorD2Ev @2799
    _ZN4inet13RsvpPathErroraSERKS0_ @2800
    _ZN4inet13RsvpResvError12parsimUnpackEPN7omnetpp11cCommBufferE @2801
    _ZN4inet13RsvpResvError12setErrorCodeEi @2802
    _ZN4inet13RsvpResvError12setErrorNodeERKNS_11Ipv4AddressE @2803
    _ZN4inet13RsvpResvError4copyERKS0_ @2804
    _ZN4inet13RsvpResvError6setHopERKNS_10RsvpHopObjE @2805
    _ZN4inet13RsvpResvErrorC1ERKS0_ @2806
    _ZN4inet13RsvpResvErrorC1Ev @2807
    _ZN4inet13RsvpResvErrorC2ERKS0_ @2808
    _ZN4inet13RsvpResvErrorC2Ev @2809
    _ZN4inet13RsvpResvErrorD0Ev @2810
    _ZN4inet13RsvpResvErrorD1Ev @2811
    _ZN4inet13RsvpResvErrorD2Ev @2812
    _ZN4inet13RsvpResvErroraSERKS0_ @2813
    _ZN4inet13ScenarioTimer10setXmlNodeEPN7omnetpp11cXMLElementE @2814
    _ZN4inet13ScenarioTimer12parsimUnpackEPN7omnetpp11cCommBufferE @2815
    _ZN4inet13ScenarioTimer4copyERKS0_ @2816
    _ZN4inet13ScenarioTimerC1EPKcs @2817
    _ZN4inet13ScenarioTimerC1ERKS0_ @2818
    _ZN4inet13ScenarioTimerC2EPKcs @2819
    _ZN4inet13ScenarioTimerC2ERKS0_ @2820
    _ZN4inet13ScenarioTimerD0Ev @2821
    _ZN4inet13ScenarioTimerD1Ev @2822
    _ZN4inet13ScenarioTimerD2Ev @2823
    _ZN4inet13ScenarioTimeraSERKS0_ @2824
    _ZN4inet13SctpNatServer10initializeEi @2825
    _ZN4inet13SctpNatServer11handleTimerEPN7omnetpp8cMessageE @2826
    _ZN4inet13SctpNatServer13handleMessageEPN7omnetpp8cMessageE @2827
    _ZN4inet13SctpNatServer14printNatVectorEv @2828
    _ZN4inet13SctpNatServer15generateAndSendEv @2829
    _ZN4inet13SctpNatServer6finishEv @2830
    _ZN4inet13SctpNatServer8sendInfoEPNS_7natInfoE @2831
    _ZN4inet13SctpNatServer9natVectorE @2832 DATA
    _ZN4inet13SctpStatusReq12parsimUnpackEPN7omnetpp11cCommBufferE @2833
    _ZN4inet13SctpStatusReq12setStateNameEPKc @2834
    _ZN4inet13SctpStatusReq4copyERKS0_ @2835
    _ZN4inet13SctpStatusReq8setStateEi @2836
    _ZN4inet13SctpStatusReq9setActiveEb @2837
    _ZN4inet13SctpStatusReq9setPathIdERKNS_9L3AddressE @2838
    _ZN4inet13SctpStatusReqC1ERKS0_ @2839
    _ZN4inet13SctpStatusReqC1Ev @2840
    _ZN4inet13SctpStatusReqC2ERKS0_ @2841
    _ZN4inet13SctpStatusReqC2Ev @2842
    _ZN4inet13SctpStatusReqD0Ev @2843
    _ZN4inet13SctpStatusReqD1Ev @2844
    _ZN4inet13SctpStatusReqD2Ev @2845
    _ZN4inet13SctpStatusReqaSERKS0_ @2846
    _ZN4inet13SequenceChunk12convertChunkERKSt9type_infoRKNS_12IntrusivePtrINS_5ChunkEEENS_5units5valueIxNS9_5units1bEEESD_i @2847
    _ZN4inet13SequenceChunk12forEachChildEPN7omnetpp8cVisitorE @2848
    _ZN4inet13SequenceChunk14doInsertAtBackERKNS_12IntrusivePtrIKNS_5ChunkEEE @2849
    _ZN4inet13SequenceChunk14doRemoveAtBackENS_5units5valueIxNS1_5units1bEEE @2850
    _ZN4inet13SequenceChunk15doInsertAtFrontERKNS_12IntrusivePtrIKNS_5ChunkEEE @2851
    _ZN4inet13SequenceChunk15doRemoveAtFrontENS_5units5valueIxNS1_5units1bEEE @2852
    _ZN4inet13SequenceChunk19doInsertChunkAtBackERKNS_12IntrusivePtrIKNS_5ChunkEEE @2853
    _ZN4inet13SequenceChunk20doInsertChunkAtFrontERKNS_12IntrusivePtrIKNS_5ChunkEEE @2854
    _ZN4inet13SequenceChunk24doInsertSliceChunkAtBackERKNS_12IntrusivePtrIKNS_10SliceChunkEEE @2855
    _ZN4inet13SequenceChunk25doInsertSliceChunkAtFrontERKNS_12IntrusivePtrIKNS_10SliceChunkEEE @2856
    _ZN4inet13SequenceChunk27doInsertSequenceChunkAtBackERKNS_12IntrusivePtrIKS0_EE @2857
    _ZN4inet13SequenceChunk28doInsertSequenceChunkAtFrontERKNS_12IntrusivePtrIKS0_EE @2858
    _ZN4inet13SequenceChunk9setChunksERKSt5dequeINS_12IntrusivePtrIKNS_5ChunkEEESaIS5_EE @2859
    _ZN4inet13SequenceChunkC1ERKS0_ @2860
    _ZN4inet13SequenceChunkC1ERKSt5dequeINS_12IntrusivePtrIKNS_5ChunkEEESaIS5_EE @2861
    _ZN4inet13SequenceChunkC1Ev @2862
    _ZN4inet13SequenceChunkC2ERKS0_ @2863
    _ZN4inet13SequenceChunkC2ERKSt5dequeINS_12IntrusivePtrIKNS_5ChunkEEESaIS5_EE @2864
    _ZN4inet13SequenceChunkC2Ev @2865
    _ZN4inet13SignalBandInd12parsimUnpackEPN7omnetpp11cCommBufferE @2866
    _ZN4inet13SignalBandInd4copyERKS0_ @2867
    _ZN4inet13SignalBandIndC1ERKS0_ @2868
    _ZN4inet13SignalBandIndC1Ev @2869
    _ZN4inet13SignalBandIndC2ERKS0_ @2870
    _ZN4inet13SignalBandIndC2Ev @2871
    _ZN4inet13SignalBandIndD0Ev @2872
    _ZN4inet13SignalBandIndD1Ev @2873
    _ZN4inet13SignalBandIndD2Ev @2874
    _ZN4inet13SignalBandIndaSERKS0_ @2875
    _ZN4inet13SignalBandReq12parsimUnpackEPN7omnetpp11cCommBufferE @2876
    _ZN4inet13SignalBandReq4copyERKS0_ @2877
    _ZN4inet13SignalBandReqC1ERKS0_ @2878
    _ZN4inet13SignalBandReqC1Ev @2879
    _ZN4inet13SignalBandReqC2ERKS0_ @2880
    _ZN4inet13SignalBandReqC2Ev @2881
    _ZN4inet13SignalBandReqD0Ev @2882
    _ZN4inet13SignalBandReqD1Ev @2883
    _ZN4inet13SignalBandReqD2Ev @2884
    _ZN4inet13SignalBandReqaSERKS0_ @2885
    _ZN4inet13SignalTagBase12parsimUnpackEPN7omnetpp11cCommBufferE @2886
    _ZN4inet13SignalTagBase4copyERKS0_ @2887
    _ZN4inet13SignalTagBaseC1ERKS0_ @2888
    _ZN4inet13SignalTagBaseC1Ev @2889
    _ZN4inet13SignalTagBaseC2ERKS0_ @2890
    _ZN4inet13SignalTagBaseC2Ev @2891
    _ZN4inet13SignalTagBaseD0Ev @2892
    _ZN4inet13SignalTagBaseD1Ev @2893
    _ZN4inet13SignalTagBaseD2Ev @2894
    _ZN4inet13SignalTagBaseaSERKS0_ @2895
    _ZN4inet13SignalTimeInd10setEndTimeEN7omnetpp7SimTimeE @2896
    _ZN4inet13SignalTimeInd12parsimUnpackEPN7omnetpp11cCommBufferE @2897
    _ZN4inet13SignalTimeInd12setStartTimeEN7omnetpp7SimTimeE @2898
    _ZN4inet13SignalTimeInd4copyERKS0_ @2899
    _ZN4inet13SignalTimeIndC1ERKS0_ @2900
    _ZN4inet13SignalTimeIndC1Ev @2901
    _ZN4inet13SignalTimeIndC2ERKS0_ @2902
    _ZN4inet13SignalTimeIndC2Ev @2903
    _ZN4inet13SignalTimeIndD0Ev @2904
    _ZN4inet13SignalTimeIndD1Ev @2905
    _ZN4inet13SignalTimeIndD2Ev @2906
    _ZN4inet13SignalTimeIndaSERKS0_ @2907
    _ZN4inet13SignallingMsg10setCommandEi @2908
    _ZN4inet13SignallingMsg12parsimUnpackEPN7omnetpp11cCommBufferE @2909
    _ZN4inet13SignallingMsg4copyERKS0_ @2910
    _ZN4inet13SignallingMsgC1EPKcs @2911
    _ZN4inet13SignallingMsgC1ERKS0_ @2912
    _ZN4inet13SignallingMsgC2EPKcs @2913
    _ZN4inet13SignallingMsgC2ERKS0_ @2914
    _ZN4inet13SignallingMsgD0Ev @2915
    _ZN4inet13SignallingMsgD1Ev @2916
    _ZN4inet13SignallingMsgD2Ev @2917
    _ZN4inet13SignallingMsgaSERKS0_ @2918
    _ZN4inet13SocketTagBase11setSocketIdEi @2919
    _ZN4inet13SocketTagBase12parsimUnpackEPN7omnetpp11cCommBufferE @2920
    _ZN4inet13SocketTagBase4copyERKS0_ @2921
    _ZN4inet13SocketTagBaseC1ERKS0_ @2922
    _ZN4inet13SocketTagBaseC1Ev @2923
    _ZN4inet13SocketTagBaseC2ERKS0_ @2924
    _ZN4inet13SocketTagBaseC2Ev @2925
    _ZN4inet13SocketTagBaseD0Ev @2926
    _ZN4inet13SocketTagBaseD1Ev @2927
    _ZN4inet13SocketTagBaseD2Ev @2928
    _ZN4inet13SocketTagBaseaSERKS0_ @2929
    _ZN4inet13TcpIpChecksum9_checksumEPKvj @2930
    _ZN4inet13TcpIpChecksum9_checksumERKSt6vectorIhSaIhEE @2931
    _ZN4inet13TcpSessionApp10initializeEi @2932
    _ZN4inet13TcpSessionApp11handleTimerEPN7omnetpp8cMessageE @2933
    _ZN4inet13TcpSessionApp11parseScriptEPKc @2934
    _ZN4inet13TcpSessionApp12socketClosedEPNS_9TcpSocketE @2935
    _ZN4inet13TcpSessionApp13socketFailureEPNS_9TcpSocketEi @2936
    _ZN4inet13TcpSessionApp16createDataPacketEl @2937
    _ZN4inet13TcpSessionApp17socketDataArrivedEPNS_9TcpSocketEPNS_6PacketEb @2938
    _ZN4inet13TcpSessionApp17socketEstablishedEPNS_9TcpSocketE @2939
    _ZN4inet13TcpSessionApp19handleStopOperationEPNS_18LifecycleOperationE @2940
    _ZN4inet13TcpSessionApp20handleCrashOperationEPNS_18LifecycleOperationE @2941
    _ZN4inet13TcpSessionApp20handleStartOperationEPNS_18LifecycleOperationE @2942
    _ZN4inet13TcpSessionApp6finishEv @2943
    _ZN4inet13TcpSessionApp8sendDataEv @2944
    _ZN4inet13TcpSessionAppD0Ev @2945
    _ZN4inet13TcpSessionAppD1Ev @2946
    _ZN4inet13TcpSessionAppD2Ev @2947
    _ZN4inet13TcpStatusInfo10setRcv_nxtEj @2948
    _ZN4inet13TcpStatusInfo10setRcv_wndEj @2949
    _ZN4inet13TcpStatusInfo10setSnd_maxEj @2950
    _ZN4inet13TcpStatusInfo10setSnd_mssEj @2951
    _ZN4inet13TcpStatusInfo10setSnd_nxtEj @2952
    _ZN4inet13TcpStatusInfo10setSnd_unaEj @2953
    _ZN4inet13TcpStatusInfo10setSnd_wl1Ej @2954
    _ZN4inet13TcpStatusInfo10setSnd_wl2Ej @2955
    _ZN4inet13TcpStatusInfo10setSnd_wndEj @2956
    _ZN4inet13TcpStatusInfo12parsimUnpackEPN7omnetpp11cCommBufferE @2957
    _ZN4inet13TcpStatusInfo12setLocalAddrERKNS_9L3AddressE @2958
    _ZN4inet13TcpStatusInfo12setLocalPortEi @2959
    _ZN4inet13TcpStatusInfo12setStateNameEPKc @2960
    _ZN4inet13TcpStatusInfo13setRemoteAddrERKNS_9L3AddressE @2961
    _ZN4inet13TcpStatusInfo13setRemotePortEi @2962
    _ZN4inet13TcpStatusInfo15setFin_ack_rcvdEb @2963
    _ZN4inet13TcpStatusInfo4copyERKS0_ @2964
    _ZN4inet13TcpStatusInfo6setIrsEj @2965
    _ZN4inet13TcpStatusInfo6setIssEj @2966
    _ZN4inet13TcpStatusInfo8setStateEi @2967
    _ZN4inet13TcpStatusInfo9setRcv_upEj @2968
    _ZN4inet13TcpStatusInfo9setSnd_upEj @2969
    _ZN4inet13TcpStatusInfoC1ERKS0_ @2970
    _ZN4inet13TcpStatusInfoC1Ev @2971
    _ZN4inet13TcpStatusInfoC2ERKS0_ @2972
    _ZN4inet13TcpStatusInfoC2Ev @2973
    _ZN4inet13TcpStatusInfoD0Ev @2974
    _ZN4inet13TcpStatusInfoD1Ev @2975
    _ZN4inet13TcpStatusInfoD2Ev @2976
    _ZN4inet13TcpStatusInfoaSERKS0_ @2977
    _ZN4inet13TedChangeInfo12parsimUnpackEPN7omnetpp11cCommBufferE @2978
    _ZN4inet13TedChangeInfo17setTedLinkIndicesEyi @2979
    _ZN4inet13TedChangeInfo19eraseTedLinkIndicesEy @2980
    _ZN4inet13TedChangeInfo20insertTedLinkIndicesEi @2981
    _ZN4inet13TedChangeInfo20insertTedLinkIndicesEyi @2982
    _ZN4inet13TedChangeInfo26setTedLinkIndicesArraySizeEy @2983
    _ZN4inet13TedChangeInfo4copyERKS0_ @2984
    _ZN4inet13TedChangeInfoC1ERKS0_ @2985
    _ZN4inet13TedChangeInfoC1Ev @2986
    _ZN4inet13TedChangeInfoC2ERKS0_ @2987
    _ZN4inet13TedChangeInfoC2Ev @2988
    _ZN4inet13TedChangeInfoD0Ev @2989
    _ZN4inet13TedChangeInfoD1Ev @2990
    _ZN4inet13TedChangeInfoD2Ev @2991
    _ZN4inet13TedChangeInfoaSERKS0_ @2992
    _ZN4inet13TlvOptionBase12parsimUnpackEPN7omnetpp11cCommBufferE @2993
    _ZN4inet13TlvOptionBase4copyERKS0_ @2994
    _ZN4inet13TlvOptionBase7setTypeEs @2995
    _ZN4inet13TlvOptionBase9setLengthEs @2996
    _ZN4inet13TlvOptionBaseC1ERKS0_ @2997
    _ZN4inet13TlvOptionBaseC1Ev @2998
    _ZN4inet13TlvOptionBaseC2ERKS0_ @2999
    _ZN4inet13TlvOptionBaseC2Ev @3000
    _ZN4inet13TlvOptionBaseD0Ev @3001
    _ZN4inet13TlvOptionBaseD1Ev @3002
    _ZN4inet13TlvOptionBaseD2Ev @3003
    _ZN4inet13TlvOptionBaseaSERKS0_ @3004
    _ZN4inet13UdpBasicBurst10initializeEi @3005
    _ZN4inet13UdpBasicBurst11processSendEv @3006
    _ZN4inet13UdpBasicBurst11processStopEv @3007
    _ZN4inet13UdpBasicBurst12createPacketEv @3008
    _ZN4inet13UdpBasicBurst12processStartEv @3009
    _ZN4inet13UdpBasicBurst12socketClosedEPNS_9UdpSocketE @3010
    _ZN4inet13UdpBasicBurst13generateBurstEv @3011
    _ZN4inet13UdpBasicBurst13processPacketEPNS_6PacketE @3012
    _ZN4inet13UdpBasicBurst14chooseDestAddrEv @3013
    _ZN4inet13UdpBasicBurst17socketDataArrivedEPNS_9UdpSocketEPNS_6PacketE @3014
    _ZN4inet13UdpBasicBurst18outOfOrderPkSignalE @3015 DATA
    _ZN4inet13UdpBasicBurst18socketErrorArrivedEPNS_9UdpSocketEPNS_10IndicationE @3016
    _ZN4inet13UdpBasicBurst19handleMessageWhenUpEPN7omnetpp8cMessageE @3017
    _ZN4inet13UdpBasicBurst19handleStopOperationEPNS_18LifecycleOperationE @3018
    _ZN4inet13UdpBasicBurst20handleCrashOperationEPNS_18LifecycleOperationE @3019
    _ZN4inet13UdpBasicBurst20handleStartOperationEPNS_18LifecycleOperationE @3020
    _ZN4inet13UdpBasicBurst6finishEv @3021
    _ZN4inet13UdpBasicBurst7counterE @3022 DATA
    _ZN4inet13UdpBasicBurstD0Ev @3023
    _ZN4inet13UdpBasicBurstD1Ev @3024
    _ZN4inet13UdpBasicBurstD2Ev @3025
    _ZN4inet13__doUnpackingEPN7omnetpp11cCommBufferERNS_10RsvpHopObjE @3026
    _ZN4inet13__doUnpackingEPN7omnetpp11cCommBufferERNS_10SessionObjE @3027
    _ZN4inet13__doUnpackingEPN7omnetpp11cCommBufferERNS_11FlowSpecObjE @3028
    _ZN4inet13__doUnpackingEPN7omnetpp11cCommBufferERNS_13FilterSpecObjE @3029
    _ZN4inet13__doUnpackingEPN7omnetpp11cCommBufferERNS_14SenderTspecObjE @3030
    _ZN4inet13__doUnpackingEPN7omnetpp11cCommBufferERNS_15LabelRequestObjE @3031
    _ZN4inet13__doUnpackingEPN7omnetpp11cCommBufferERNS_15TeLinkStateInfoE @3032
    _ZN4inet13__doUnpackingEPN7omnetpp11cCommBufferERNS_16FlowDescriptor_tE @3033
    _ZN4inet13__doUnpackingEPN7omnetpp11cCommBufferERNS_17SenderTemplateObjE @3034
    _ZN4inet13__doUnpackingEPN7omnetpp11cCommBufferERNS_18SenderDescriptor_tE @3035
    _ZN4inet13__doUnpackingEPN7omnetpp11cCommBufferERNS_19EncodedGroupAddressE @3036
    _ZN4inet13__doUnpackingEPN7omnetpp11cCommBufferERNS_20EncodedSourceAddressE @3037
    _ZN4inet13__doUnpackingEPN7omnetpp11cCommBufferERNS_21EncodedUnicastAddressE @3038
    _ZN4inet13__doUnpackingEPN7omnetpp11cCommBufferERNS_6EroObjE @3039
    _ZN4inet13__doUnpackingEPN7omnetpp11cCommBufferERNS_6FecTlvE @3040
    _ZN4inet13__doUnpackingEPN7omnetpp11cCommBufferERNS_8RipEntryE @3041
    _ZN4inet13getProtocolIdEPNS_6PacketE @3042
    _ZN4inet13isNetworkNodeEPKN7omnetpp7cModuleE @3043
    _ZN4inet13physicallayer10ScalarSnirC1EPKNS0_10IReceptionEPKNS0_6INoiseE @3044
    _ZN4inet13physicallayer10ScalarSnirC2EPKNS0_10IReceptionEPKNS0_6INoiseE @3045
    _ZN4inet13physicallayer11AntennaBase10initializeEi @3046
    _ZN4inet13physicallayer11AntennaBaseC2Ev @3047
    _ZN4inet13physicallayer11ApskDecoder10initializeEi @3048
    _ZN4inet13physicallayer11ApskDecoderC1Ev @3049
    _ZN4inet13physicallayer11ApskDecoderC2Ev @3050
    _ZN4inet13physicallayer11ApskDecoderD0Ev @3051
    _ZN4inet13physicallayer11ApskDecoderD1Ev @3052
    _ZN4inet13physicallayer11ApskDecoderD2Ev @3053
    _ZN4inet13physicallayer11ApskEncoder10initializeEi @3054
    _ZN4inet13physicallayer11ApskEncoderC1Ev @3055
    _ZN4inet13physicallayer11ApskEncoderC2Ev @3056
    _ZN4inet13physicallayer11ApskEncoderD0Ev @3057
    _ZN4inet13physicallayer11ApskEncoderD1Ev @3058
    _ZN4inet13physicallayer11ApskEncoderD2Ev @3059
    _ZN4inet13physicallayer11NoiseSource10initializeEi @3060
    _ZN4inet13physicallayer11NoiseSource13handleMessageEPN7omnetpp8cMessageE @3061
    _ZN4inet13physicallayer11NoiseSource15endTransmissionEv @3062
    _ZN4inet13physicallayer11NoiseSource17startTransmissionEv @3063
    _ZN4inet13physicallayer11NoiseSource18scheduleSleepTimerEv @3064
    _ZN4inet13physicallayer11NoiseSource25scheduleTransmissionTimerEPKNS0_13ITransmissionE @3065
    _ZN4inet13physicallayer11NoiseSourceD0Ev @3066
    _ZN4inet13physicallayer11NoiseSourceD1Ev @3067
    _ZN4inet13physicallayer11NoiseSourceD2Ev @3068
    _ZN4inet13physicallayer11PulseFilterC1Ev @3069
    _ZN4inet13physicallayer11PulseFilterC2Ev @3070
    _ZN4inet13physicallayer11PulseShaperC1Ev @3071
    _ZN4inet13physicallayer11PulseShaperC2Ev @3072
    _ZN4inet13physicallayer11RadioMedium10initializeEi @3073
    _ZN4inet13physicallayer11RadioMedium11removeRadioEPKNS0_6IRadioE @3074
    _ZN4inet13physicallayer11RadioMedium11sendToRadioEPNS0_6IRadioEPKS2_PKNS0_7ISignalE @3075
    _ZN4inet13physicallayer11RadioMedium13handleMessageEPN7omnetpp8cMessageE @3076
    _ZN4inet13physicallayer11RadioMedium13pickUpSignalsEPNS0_6IRadioE @3077
    _ZN4inet13physicallayer11RadioMedium13receivePacketEPKNS0_6IRadioEPNS0_7ISignalE @3078
    _ZN4inet13physicallayer11RadioMedium13receiveSignalEPN7omnetpp10cComponentEiPNS2_7cObjectES6_ @3079
    _ZN4inet13physicallayer11RadioMedium13receiveSignalEPN7omnetpp10cComponentEilPNS2_7cObjectE @3080
    _ZN4inet13physicallayer11RadioMedium14transmitPacketEPKNS0_6IRadioEPNS_6PacketE @3081
    _ZN4inet13physicallayer11RadioMedium15addTransmissionEPKNS0_6IRadioEPKNS0_13ITransmissionE @3082
    _ZN4inet13physicallayer11RadioMedium15sendToAllRadiosEPNS0_6IRadioEPKNS0_7ISignalE @3083
    _ZN4inet13physicallayer11RadioMedium18removeTransmissionEPKNS0_13ITransmissionE @3084
    _ZN4inet13physicallayer11RadioMedium20createReceiverSignalEPKNS0_13ITransmissionE @3085
    _ZN4inet13physicallayer11RadioMedium20sendToAffectedRadiosEPNS0_6IRadioEPKNS0_7ISignalE @3086
    _ZN4inet13physicallayer11RadioMedium23createTransmitterSignalEPKNS0_6IRadioEPNS_6PacketE @3087
    _ZN4inet13physicallayer11RadioMedium33removeNonInterferingTransmissionsEv @3088
    _ZN4inet13physicallayer11RadioMedium6finishEv @3089
    _ZN4inet13physicallayer11RadioMedium8addRadioEPKNS0_6IRadioE @3090
    _ZN4inet13physicallayer11RadioMediumC1Ev @3091
    _ZN4inet13physicallayer11RadioMediumC2Ev @3092
    _ZN4inet13physicallayer11RadioMediumD0Ev @3093
    _ZN4inet13physicallayer11RadioMediumD1Ev @3094
    _ZN4inet13physicallayer11RadioMediumD2Ev @3095
    _ZN4inet13physicallayer11ScalarNoiseC1EN7omnetpp7SimTimeES3_NS_5units5valueIdNS4_3powINS4_5units1sELin1ELi1EEEEESA_PKSt3mapIS3_NS5_IdNS4_7composeINSC_INSC_INS7_1mENSC_INS7_2kgENS6_IS8_Lin2ELi1EEEEEEESD_EES9_EEEESt4lessIS3_ESaISt4pairIKS3_SK_EEE @3096
    _ZN4inet13physicallayer11ScalarNoiseC2EN7omnetpp7SimTimeES3_NS_5units5valueIdNS4_3powINS4_5units1sELin1ELi1EEEEESA_PKSt3mapIS3_NS5_IdNS4_7composeINSC_INSC_INS7_1mENSC_INS7_2kgENS6_IS8_Lin2ELi1EEEEEEESD_EES9_EEEESt4lessIS3_ESaISt4pairIKS3_SK_EEE @3097
    _ZN4inet13physicallayer11SuiPathLoss10initializeEi @3098
    _ZN4inet13physicallayer11SuiPathLossC1Ev @3099
    _ZN4inet13physicallayer11SuiPathLossC2Ev @3100
    _ZN4inet13physicallayer12BerParseFile12setPhyOpModeEc @3101
    _ZN4inet13physicallayer12BerParseFile13clearBerTableEv @3102
    _ZN4inet13physicallayer12BerParseFile16getTablePositionEd @3103
    _ZN4inet13physicallayer12BerParseFile6getPerEddi @3104
    _ZN4inet13physicallayer12BerParseFile9parseFileEPKc @3105
    _ZN4inet13physicallayer12BerParseFileD1Ev @3106
    _ZN4inet13physicallayer12BerParseFileD2Ev @3107
    _ZN4inet13physicallayer12IRadioMedium16radioAddedSignalE @3108 DATA
    _ZN4inet13physicallayer12IRadioMedium17signalAddedSignalE @3109 DATA
    _ZN4inet13physicallayer12IRadioMedium18radioRemovedSignalE @3110 DATA
    _ZN4inet13physicallayer12IRadioMedium19signalRemovedSignalE @3111 DATA
    _ZN4inet13physicallayer12IRadioMedium24signalArrivalEndedSignalE @3112 DATA
    _ZN4inet13physicallayer12IRadioMedium26signalArrivalStartedSignalE @3113 DATA
    _ZN4inet13physicallayer12IRadioMedium26signalDepartureEndedSignalE @3114 DATA
    _ZN4inet13physicallayer12IRadioMedium28signalDepartureStartedSignalE @3115 DATA
    _ZN4inet13physicallayer12IRadioSignal14signalPartEnumE @3116 DATA
    _ZN4inet13physicallayer12IRadioSignal17getSignalPartNameENS1_10SignalPartE @3117
    _ZN4inet13physicallayer12InterferenceC1EPKNS0_6INoiseEPKSt6vectorIPKNS0_10IReceptionESaIS8_EE @3118
    _ZN4inet13physicallayer12InterferenceC2EPKNS0_6INoiseEPKSt6vectorIPKNS0_10IReceptionESaIS8_EE @3119
    _ZN4inet13physicallayer12InterferenceD0Ev @3120
    _ZN4inet13physicallayer12InterferenceD1Ev @3121
    _ZN4inet13physicallayer12InterferenceD2Ev @3122
    _ZN4inet13physicallayer12RicianFading10initializeEi @3123
    _ZN4inet13physicallayer12RicianFadingC1Ev @3124
    _ZN4inet13physicallayer12RicianFadingC2Ev @3125
    _ZN4inet13physicallayer12UnitDiskSnirC1EPKNS0_10IReceptionEPKNS0_6INoiseE @3126
    _ZN4inet13physicallayer12UnitDiskSnirC2EPKNS0_10IReceptionEPKNS0_6INoiseE @3127
    _ZN4inet13physicallayer13ApskModulator10initializeEi @3128
    _ZN4inet13physicallayer13ApskModulatorC1Ev @3129
    _ZN4inet13physicallayer13ApskModulatorC2Ev @3130
    _ZN4inet13physicallayer13BandListeningC1EPKNS0_6IRadioEN7omnetpp7SimTimeES6_NS_5CoordES7_NS_5units5valueIdNS8_3powINS8_5units1sELin1ELi1EEEEESE_ @3131
    _ZN4inet13physicallayer13BandListeningC2EPKNS0_6IRadioEN7omnetpp7SimTimeES6_NS_5CoordES7_NS_5units5valueIdNS8_3powINS8_5units1sELin1ELi1EEEEESE_ @3132
    _ZN4inet13physicallayer13CosineAntenna10initializeEi @3133
    _ZN4inet13physicallayer13CosineAntennaC1Ev @3134
    _ZN4inet13physicallayer13CosineAntennaC2Ev @3135
    _ZN4inet13physicallayer13DipoleAntenna10initializeEi @3136
    _ZN4inet13physicallayer13DipoleAntennaC1Ev @3137
    _ZN4inet13physicallayer13DipoleAntennaC2Ev @3138
    _ZN4inet13physicallayer13FlatRadioBase10setBitrateENS_5units5valueIdNS2_7composeINS2_5units1bENS2_3powINS5_1sELin1ELi1EEEEEEE @3139
    _ZN4inet13physicallayer13FlatRadioBase18handleUpperCommandEPN7omnetpp8cMessageE @3140
    _ZN4inet13physicallayer13FlatRadioBase8setPowerENS_5units5valueIdNS2_7composeINS4_INS4_INS2_5units1mENS4_INS5_2kgENS2_3powINS5_1sELin2ELi1EEEEEEES6_EENS8_IS9_Lin1ELi1EEEEEEE @3141
    _ZN4inet13physicallayer13FlatRadioBaseC1Ev @3142
    _ZN4inet13physicallayer13FlatRadioBaseC2Ev @3143
    _ZN4inet13physicallayer13ITransmission6nextIdE @3144 DATA
    _ZN4inet13physicallayer13ListeningBaseC1EPKNS0_6IRadioEN7omnetpp7SimTimeES6_NS_5CoordES7_ @3145
    _ZN4inet13physicallayer13ListeningBaseC2EPKNS0_6IRadioEN7omnetpp7SimTimeES6_NS_5CoordES7_ @3146
    _ZN4inet13physicallayer13ReceptionBaseC1EPKNS0_6IRadioEPKNS0_13ITransmissionEN7omnetpp7SimTimeES9_NS_5CoordESA_NS_10QuaternionESB_ @3147
    _ZN4inet13physicallayer13ReceptionBaseC2EPKNS0_6IRadioEPKNS0_13ITransmissionEN7omnetpp7SimTimeES9_NS_5CoordESA_NS_10QuaternionESB_ @3148
    _ZN4inet13physicallayer13ShortcutRadio10initializeEi @3149
    _ZN4inet13physicallayer13ShortcutRadio10sendToPeerEPNS_6PacketEPS1_ @3150
    _ZN4inet13physicallayer13ShortcutRadio14shortcutRadiosE @3151 DATA
    _ZN4inet13physicallayer13ShortcutRadio15receiveFromPeerEPNS_6PacketE @3152
    _ZN4inet13physicallayer13ShortcutRadio17handleUpperPacketEPNS_6PacketE @3153
    _ZN4inet13physicallayer13ShortcutRadio19handleMessageWhenUpEPN7omnetpp8cMessageE @3154
    _ZN4inet13physicallayer13ShortcutRadio8findPeerENS_10MacAddressE @3155
    _ZN4inet13physicallayer13UnitDiskNoiseC1EN7omnetpp7SimTimeES3_b @3156
    _ZN4inet13physicallayer13UnitDiskNoiseC2EN7omnetpp7SimTimeES3_b @3157
    _ZN4inet13physicallayer13UnitDiskRadioC1Ev @3158
    _ZN4inet13physicallayer13UnitDiskRadioC2Ev @3159
    _ZN4inet13physicallayer14BpskModulation13constellationE @3160 DATA
    _ZN4inet13physicallayer14BpskModulation9singletonE @3161 DATA
    _ZN4inet13physicallayer14BpskModulationC1Ev @3162
    _ZN4inet13physicallayer14BpskModulationC2Ev @3163
    _ZN4inet13physicallayer14ErrorModelBase10initializeEi @3164
    _ZN4inet13physicallayer14Ieee80211HtmcsC1EjPKNS0_15Ieee80211HtCodeEPKNS0_23Ieee80211OfdmModulationES7_S7_S7_ @3165
    _ZN4inet13physicallayer14Ieee80211HtmcsC1EjPKNS0_23Ieee80211OfdmModulationEPKNS0_26Ieee80211ConvolutionalCodeENS_5units5valueIdNS8_3powINS8_5units1sELin1ELi1EEEEE @3166
    _ZN4inet13physicallayer14Ieee80211HtmcsC1EjPKNS0_23Ieee80211OfdmModulationES4_PKNS0_26Ieee80211ConvolutionalCodeENS_5units5valueIdNS8_3powINS8_5units1sELin1ELi1EEEEE @3167
    _ZN4inet13physicallayer14Ieee80211HtmcsC1EjPKNS0_23Ieee80211OfdmModulationES4_S4_PKNS0_26Ieee80211ConvolutionalCodeENS_5units5valueIdNS8_3powINS8_5units1sELin1ELi1EEEEE @3168
    _ZN4inet13physicallayer14Ieee80211HtmcsC1EjPKNS0_23Ieee80211OfdmModulationES4_S4_S4_PKNS0_26Ieee80211ConvolutionalCodeENS_5units5valueIdNS8_3powINS8_5units1sELin1ELi1EEEEE @3169
    _ZN4inet13physicallayer14Ieee80211HtmcsC2EjPKNS0_15Ieee80211HtCodeEPKNS0_23Ieee80211OfdmModulationES7_S7_S7_ @3170
    _ZN4inet13physicallayer14Ieee80211HtmcsC2EjPKNS0_23Ieee80211OfdmModulationEPKNS0_26Ieee80211ConvolutionalCodeENS_5units5valueIdNS8_3powINS8_5units1sELin1ELi1EEEEE @3171
    _ZN4inet13physicallayer14Ieee80211HtmcsC2EjPKNS0_23Ieee80211OfdmModulationES4_PKNS0_26Ieee80211ConvolutionalCodeENS_5units5valueIdNS8_3powINS8_5units1sELin1ELi1EEEEE @3172
    _ZN4inet13physicallayer14Ieee80211HtmcsC2EjPKNS0_23Ieee80211OfdmModulationES4_S4_PKNS0_26Ieee80211ConvolutionalCodeENS_5units5valueIdNS8_3powINS8_5units1sELin1ELi1EEEEE @3173
    _ZN4inet13physicallayer14Ieee80211HtmcsC2EjPKNS0_23Ieee80211OfdmModulationES4_S4_S4_PKNS0_26Ieee80211ConvolutionalCodeENS_5units5valueIdNS8_3powINS8_5units1sELin1ELi1EEEEE @3174
    _ZN4inet13physicallayer14Ieee80211HtmcsD0Ev @3175
    _ZN4inet13physicallayer14Ieee80211HtmcsD1Ev @3176
    _ZN4inet13physicallayer14Ieee80211HtmcsD2Ev @3177
    _ZN4inet13physicallayer14Ieee80211Radio10initializeEi @3178
    _ZN4inet13physicallayer14Ieee80211Radio10setChannelEPKNS0_16Ieee80211ChannelE @3179
    _ZN4inet13physicallayer14Ieee80211Radio10setModeSetEPKNS0_16Ieee80211ModeSetE @3180
    _ZN4inet13physicallayer14Ieee80211Radio16setChannelNumberEi @3181
    _ZN4inet13physicallayer14Ieee80211Radio18handleUpperCommandEPN7omnetpp8cMessageE @3182
    _ZN4inet13physicallayer14Ieee80211Radio25radioChannelChangedSignalE @3183 DATA
    _ZN4inet13physicallayer14Ieee80211Radio28popIeee80211PhyHeaderAtFrontEPNS_6PacketENS_5units5valueIxNS4_5units1bEEEi @3184
    _ZN4inet13physicallayer14Ieee80211Radio29peekIeee80211PhyHeaderAtFrontEPKNS_6PacketENS_5units5valueIxNS5_5units1bEEEi @3185
    _ZN4inet13physicallayer14Ieee80211Radio7setBandEPKNS0_14IIeee80211BandE @3186
    _ZN4inet13physicallayer14Ieee80211Radio7setModeEPKNS0_14IIeee80211ModeE @3187
    _ZN4inet13physicallayer14Ieee80211RadioC1Ev @3188
    _ZN4inet13physicallayer14Ieee80211RadioC2Ev @3189
    _ZN4inet13physicallayer14MaskModulationC1Edj @3190
    _ZN4inet13physicallayer14MaskModulationC2Edj @3191
    _ZN4inet13physicallayer14MaskModulationD0Ev @3192
    _ZN4inet13physicallayer14MaskModulationD1Ev @3193
    _ZN4inet13physicallayer14MaskModulationD2Ev @3194
    _ZN4inet13physicallayer14MfskModulationC1Ej @3195
    _ZN4inet13physicallayer14MfskModulationC2Ej @3196
    _ZN4inet13physicallayer14MpskModulationC1Ej @3197
    _ZN4inet13physicallayer14MpskModulationC2Ej @3198
    _ZN4inet13physicallayer14MpskModulationD0Ev @3199
    _ZN4inet13physicallayer14MpskModulationD1Ev @3200
    _ZN4inet13physicallayer14MpskModulationD2Ev @3201
    _ZN4inet13physicallayer14MqamModulationC1Ej @3202
    _ZN4inet13physicallayer14MqamModulationC2Ej @3203
    _ZN4inet13physicallayer14MqamModulationD0Ev @3204
    _ZN4inet13physicallayer14MqamModulationD1Ev @3205
    _ZN4inet13physicallayer14MqamModulationD2Ev @3206
    _ZN4inet13physicallayer14NakagamiFading10initializeEi @3207
    _ZN4inet13physicallayer14NakagamiFadingC1Ev @3208
    _ZN4inet13physicallayer14NakagamiFadingC2Ev @3209
    _ZN4inet13physicallayer14QpskModulation13constellationE @3210 DATA
    _ZN4inet13physicallayer14QpskModulation9singletonE @3211 DATA
    _ZN4inet13physicallayer14QpskModulationC1Ev @3212
    _ZN4inet13physicallayer14QpskModulationC2Ev @3213
    _ZN4inet13physicallayer14SignalBitModelC1ENS_5units5valueIxNS2_5units1bEEENS3_IdNS2_7composeIS5_NS2_3powINS4_1sELin1ELi1EEEEEEES6_SC_PKNS_9BitVectorE @3214
    _ZN4inet13physicallayer14SignalBitModelC2ENS_5units5valueIxNS2_5units1bEEENS3_IdNS2_7composeIS5_NS2_3powINS4_1sELin1ELi1EEEEEEES6_SC_PKNS_9BitVectorE @3215
    _ZN4inet13physicallayer14SignalBitModelD0Ev @3216
    _ZN4inet13physicallayer14SignalBitModelD1Ev @3217
    _ZN4inet13physicallayer14SignalBitModelD2Ev @3218
    _ZN4inet13physicallayer15ApskDemodulator10initializeEi @3219
    _ZN4inet13physicallayer15ApskDemodulatorC1Ev @3220
    _ZN4inet13physicallayer15ApskDemodulatorC2Ev @3221
    _ZN4inet13physicallayer15DbpskModulation9singletonE @3222 DATA
    _ZN4inet13physicallayer15DbpskModulationC1Ev @3223
    _ZN4inet13physicallayer15DbpskModulationC2Ev @3224
    _ZN4inet13physicallayer15DimensionalSnirC1EPKNS0_20DimensionalReceptionEPKNS0_16DimensionalNoiseE @3225
    _ZN4inet13physicallayer15DimensionalSnirC2EPKNS0_20DimensionalReceptionEPKNS0_16DimensionalNoiseE @3226
    _ZN4inet13physicallayer15DqpskModulation9singletonE @3227 DATA
    _ZN4inet13physicallayer15DqpskModulationC1Ev @3228
    _ZN4inet13physicallayer15DqpskModulationC2Ev @3229
    _ZN4inet13physicallayer15Ieee80211HtCodeC1EPKNS0_26Ieee80211ConvolutionalCodeEPKNS0_23Ieee80211HtInterleavingEPKNS0_18AdditiveScramblingE @3230
    _ZN4inet13physicallayer15Ieee80211HtCodeC2EPKNS0_26Ieee80211ConvolutionalCodeEPKNS0_23Ieee80211HtInterleavingEPKNS0_18AdditiveScramblingE @3231
    _ZN4inet13physicallayer15Ieee80211HtCodeD0Ev @3232
    _ZN4inet13physicallayer15Ieee80211HtCodeD1Ev @3233
    _ZN4inet13physicallayer15Ieee80211HtCodeD2Ev @3234
    _ZN4inet13physicallayer15Ieee80211HtModeC1EPKcPKNS0_23Ieee80211HtPreambleModeEPKNS0_19Ieee80211HtDataModeENS1_8BandModeE @3235
    _ZN4inet13physicallayer15Ieee80211HtModeC2EPKcPKNS0_23Ieee80211HtPreambleModeEPKNS0_19Ieee80211HtDataModeENS1_8BandModeE @3236
    _ZN4inet13physicallayer15Ieee80211IrModeC1EPKcPKNS0_23Ieee80211IrPreambleModeEPKNS0_21Ieee80211IrHeaderModeEPKNS0_19Ieee80211IrDataModeE @3237
    _ZN4inet13physicallayer15Ieee80211IrModeC2EPKcPKNS0_23Ieee80211IrPreambleModeEPKNS0_21Ieee80211IrHeaderModeEPKNS0_19Ieee80211IrDataModeE @3238
    _ZN4inet13physicallayer15Ieee80211VhtmcsC1EjPKNS0_16Ieee80211VhtCodeEPKNS0_23Ieee80211OfdmModulationES7_S7_S7_S7_S7_S7_S7_ @3239
    _ZN4inet13physicallayer15Ieee80211VhtmcsC1EjPKNS0_23Ieee80211OfdmModulationEPKNS0_26Ieee80211ConvolutionalCodeENS_5units5valueIdNS8_3powINS8_5units1sELin1ELi1EEEEE @3240
    _ZN4inet13physicallayer15Ieee80211VhtmcsC1EjPKNS0_23Ieee80211OfdmModulationEPKNS0_26Ieee80211ConvolutionalCodeENS_5units5valueIdNS8_3powINS8_5units1sELin1ELi1EEEEEi @3241
    _ZN4inet13physicallayer15Ieee80211VhtmcsC1EjPKNS0_23Ieee80211OfdmModulationES4_PKNS0_26Ieee80211ConvolutionalCodeENS_5units5valueIdNS8_3powINS8_5units1sELin1ELi1EEEEE @3242
    _ZN4inet13physicallayer15Ieee80211VhtmcsC1EjPKNS0_23Ieee80211OfdmModulationES4_S4_PKNS0_26Ieee80211ConvolutionalCodeENS_5units5valueIdNS8_3powINS8_5units1sELin1ELi1EEEEE @3243
    _ZN4inet13physicallayer15Ieee80211VhtmcsC1EjPKNS0_23Ieee80211OfdmModulationES4_S4_S4_PKNS0_26Ieee80211ConvolutionalCodeENS_5units5valueIdNS8_3powINS8_5units1sELin1ELi1EEEEE @3244
    _ZN4inet13physicallayer15Ieee80211VhtmcsC1EjPKNS0_23Ieee80211OfdmModulationES4_S4_S4_S4_PKNS0_26Ieee80211ConvolutionalCodeENS_5units5valueIdNS8_3powINS8_5units1sELin1ELi1EEEEE @3245
    _ZN4inet13physicallayer15Ieee80211VhtmcsC1EjPKNS0_23Ieee80211OfdmModulationES4_S4_S4_S4_S4_PKNS0_26Ieee80211ConvolutionalCodeENS_5units5valueIdNS8_3powINS8_5units1sELin1ELi1EEEEE @3246
    _ZN4inet13physicallayer15Ieee80211VhtmcsC1EjPKNS0_23Ieee80211OfdmModulationES4_S4_S4_S4_S4_S4_PKNS0_26Ieee80211ConvolutionalCodeENS_5units5valueIdNS8_3powINS8_5units1sELin1ELi1EEEEE @3247
    _ZN4inet13physicallayer15Ieee80211VhtmcsC1EjPKNS0_23Ieee80211OfdmModulationES4_S4_S4_S4_S4_S4_S4_PKNS0_26Ieee80211ConvolutionalCodeENS_5units5valueIdNS8_3powINS8_5units1sELin1ELi1EEEEE @3248
    _ZN4inet13physicallayer15Ieee80211VhtmcsC2EjPKNS0_16Ieee80211VhtCodeEPKNS0_23Ieee80211OfdmModulationES7_S7_S7_S7_S7_S7_S7_ @3249
    _ZN4inet13physicallayer15Ieee80211VhtmcsC2EjPKNS0_23Ieee80211OfdmModulationEPKNS0_26Ieee80211ConvolutionalCodeENS_5units5valueIdNS8_3powINS8_5units1sELin1ELi1EEEEE @3250
    _ZN4inet13physicallayer15Ieee80211VhtmcsC2EjPKNS0_23Ieee80211OfdmModulationEPKNS0_26Ieee80211ConvolutionalCodeENS_5units5valueIdNS8_3powINS8_5units1sELin1ELi1EEEEEi @3251
    _ZN4inet13physicallayer15Ieee80211VhtmcsC2EjPKNS0_23Ieee80211OfdmModulationES4_PKNS0_26Ieee80211ConvolutionalCodeENS_5units5valueIdNS8_3powINS8_5units1sELin1ELi1EEEEE @3252
    _ZN4inet13physicallayer15Ieee80211VhtmcsC2EjPKNS0_23Ieee80211OfdmModulationES4_S4_PKNS0_26Ieee80211ConvolutionalCodeENS_5units5valueIdNS8_3powINS8_5units1sELin1ELi1EEEEE @3253
    _ZN4inet13physicallayer15Ieee80211VhtmcsC2EjPKNS0_23Ieee80211OfdmModulationES4_S4_S4_PKNS0_26Ieee80211ConvolutionalCodeENS_5units5valueIdNS8_3powINS8_5units1sELin1ELi1EEEEE @3254
    _ZN4inet13physicallayer15Ieee80211VhtmcsC2EjPKNS0_23Ieee80211OfdmModulationES4_S4_S4_S4_PKNS0_26Ieee80211ConvolutionalCodeENS_5units5valueIdNS8_3powINS8_5units1sELin1ELi1EEEEE @3255
    _ZN4inet13physicallayer15Ieee80211VhtmcsC2EjPKNS0_23Ieee80211OfdmModulationES4_S4_S4_S4_S4_PKNS0_26Ieee80211ConvolutionalCodeENS_5units5valueIdNS8_3powINS8_5units1sELin1ELi1EEEEE @3256
    _ZN4inet13physicallayer15Ieee80211VhtmcsC2EjPKNS0_23Ieee80211OfdmModulationES4_S4_S4_S4_S4_S4_PKNS0_26Ieee80211ConvolutionalCodeENS_5units5valueIdNS8_3powINS8_5units1sELin1ELi1EEEEE @3257
    _ZN4inet13physicallayer15Ieee80211VhtmcsC2EjPKNS0_23Ieee80211OfdmModulationES4_S4_S4_S4_S4_S4_S4_PKNS0_26Ieee80211ConvolutionalCodeENS_5units5valueIdNS8_3powINS8_5units1sELin1ELi1EEEEE @3258
    _ZN4inet13physicallayer15Ieee80211VhtmcsD0Ev @3259
    _ZN4inet13physicallayer15Ieee80211VhtmcsD1Ev @3260
    _ZN4inet13physicallayer15Ieee80211VhtmcsD2Ev @3261
    _ZN4inet13physicallayer15PropagationBase10initializeEi @3262
    _ZN4inet13physicallayer15PropagationBase6finishEv @3263
    _ZN4inet13physicallayer15PropagationBaseC2Ev @3264
    _ZN4inet13physicallayer15Qam16Modulation13constellationE @3265 DATA
    _ZN4inet13physicallayer15Qam16Modulation9singletonE @3266 DATA
    _ZN4inet13physicallayer15Qam16ModulationC1Ev @3267
    _ZN4inet13physicallayer15Qam16ModulationC2Ev @3268
    _ZN4inet13physicallayer15Qam64Modulation13constellationE @3269 DATA
    _ZN4inet13physicallayer15Qam64Modulation9singletonE @3270 DATA
    _ZN4inet13physicallayer15Qam64ModulationC1Ev @3271
    _ZN4inet13physicallayer15Qam64ModulationC2Ev @3272
    _ZN4inet13physicallayer15QbpskModulation13constellationE @3273 DATA
    _ZN4inet13physicallayer15QbpskModulation9singletonE @3274 DATA
    _ZN4inet13physicallayer15QbpskModulationC1Ev @3275
    _ZN4inet13physicallayer15QbpskModulationC2Ev @3276
    _ZN4inet13physicallayer15ReceptionResultC1EPKNS0_10IReceptionEPKSt6vectorIPKNS0_18IReceptionDecisionESaIS8_EEPKNS_6PacketE @3277
    _ZN4inet13physicallayer15ReceptionResultC2EPKNS0_10IReceptionEPKSt6vectorIPKNS0_18IReceptionDecisionESaIS8_EEPKNS_6PacketE @3278
    _ZN4inet13physicallayer15ReceptionResultD0Ev @3279
    _ZN4inet13physicallayer15ReceptionResultD1Ev @3280
    _ZN4inet13physicallayer15ReceptionResultD2Ev @3281
    _ZN4inet13physicallayer15ScalarReceptionC1EPKNS0_6IRadioEPKNS0_13ITransmissionEN7omnetpp7SimTimeES9_NS_5CoordESA_NS_10QuaternionESB_NS_5units5valueIdNSC_3powINSC_5units1sELin1ELi1EEEEESI_NSD_IdNSC_7composeINSJ_INSJ_INSF_1mENSJ_INSF_2kgENSE_ISG_Lin2ELi1EEEEEEESK_EESH_EEEE @3282
    _ZN4inet13physicallayer15ScalarReceptionC2EPKNS0_6IRadioEPKNS0_13ITransmissionEN7omnetpp7SimTimeES9_NS_5CoordESA_NS_10QuaternionESB_NS_5units5valueIdNSC_3powINSC_5units1sELin1ELi1EEEEESI_NSD_IdNSC_7composeINSJ_INSJ_INSF_1mENSJ_INSF_2kgENSE_ISG_Lin2ELi1EEEEEEESK_EESH_EEEE @3283
    _ZN4inet13physicallayer15_4PpmModulation9singletonE @3284 DATA
    _ZN4inet13physicallayer15_4PpmModulationC1Ev @3285
    _ZN4inet13physicallayer15_4PpmModulationC2Ev @3286
    _ZN4inet13physicallayer16CommunicationLog14writeReceptionEPKNS0_6IRadioEPKNS0_7ISignalE @3287
    _ZN4inet13physicallayer16CommunicationLog17writeTransmissionEPKNS0_6IRadioEPKNS0_7ISignalE @3288
    _ZN4inet13physicallayer16CommunicationLog4openEv @3289
    _ZN4inet13physicallayer16CommunicationLog5closeEv @3290
    _ZN4inet13physicallayer16DimensionalNoiseC1EN7omnetpp7SimTimeES3_NS_5units5valueIdNS4_3powINS4_5units1sELin1ELi1EEEEESA_RKNS_12IntrusivePtrIKNS_4math9IFunctionINS5_IdNS4_7composeINSE_INSE_INSE_INS7_1mENSE_INS7_2kgENS6_IS8_Lin2ELi1EEEEEEESF_EES9_EENS6_IS9_Lin1ELi1EEEEEEENSC_6DomainIJNS5_IS3_S8_EESA_EEEEEEE @3291
    _ZN4inet13physicallayer16DimensionalNoiseC2EN7omnetpp7SimTimeES3_NS_5units5valueIdNS4_3powINS4_5units1sELin1ELi1EEEEESA_RKNS_12IntrusivePtrIKNS_4math9IFunctionINS5_IdNS4_7composeINSE_INSE_INSE_INS7_1mENSE_INS7_2kgENS6_IS8_Lin2ELi1EEEEEEESF_EES9_EENS6_IS9_Lin1ELi1EEEEEEENSC_6DomainIJNS5_IS3_S8_EESA_EEEEEEE @3292
    _ZN4inet13physicallayer16FlatReceiverBase10initializeEi @3293
    _ZN4inet13physicallayer16FlatReceiverBaseC1Ev @3294
    _ZN4inet13physicallayer16FlatReceiverBaseC2Ev @3295
    _ZN4inet13physicallayer16Ieee80211ChannelC1EPKNS0_14IIeee80211BandEi @3296
    _ZN4inet13physicallayer16Ieee80211ChannelC2EPKNS0_14IIeee80211BandEi @3297
    _ZN4inet13physicallayer16Ieee80211ModeInd12parsimUnpackEPN7omnetpp11cCommBufferE @3298
    _ZN4inet13physicallayer16Ieee80211ModeInd4copyERKS1_ @3299
    _ZN4inet13physicallayer16Ieee80211ModeIndC1ERKS1_ @3300
    _ZN4inet13physicallayer16Ieee80211ModeIndC1Ev @3301
    _ZN4inet13physicallayer16Ieee80211ModeIndC2ERKS1_ @3302
    _ZN4inet13physicallayer16Ieee80211ModeIndC2Ev @3303
    _ZN4inet13physicallayer16Ieee80211ModeIndD0Ev @3304
    _ZN4inet13physicallayer16Ieee80211ModeIndD1Ev @3305
    _ZN4inet13physicallayer16Ieee80211ModeIndD2Ev @3306
    _ZN4inet13physicallayer16Ieee80211ModeIndaSERKS1_ @3307
    _ZN4inet13physicallayer16Ieee80211ModeReq12parsimUnpackEPN7omnetpp11cCommBufferE @3308
    _ZN4inet13physicallayer16Ieee80211ModeReq4copyERKS1_ @3309
    _ZN4inet13physicallayer16Ieee80211ModeReqC1ERKS1_ @3310
    _ZN4inet13physicallayer16Ieee80211ModeReqC1Ev @3311
    _ZN4inet13physicallayer16Ieee80211ModeReqC2ERKS1_ @3312
    _ZN4inet13physicallayer16Ieee80211ModeReqC2Ev @3313
    _ZN4inet13physicallayer16Ieee80211ModeReqD0Ev @3314
    _ZN4inet13physicallayer16Ieee80211ModeReqD1Ev @3315
    _ZN4inet13physicallayer16Ieee80211ModeReqD2Ev @3316
    _ZN4inet13physicallayer16Ieee80211ModeReqaSERKS1_ @3317
    _ZN4inet13physicallayer16Ieee80211ModeSet10getModeSetEPKc @3318
    _ZN4inet13physicallayer16Ieee80211ModeSet11findModeSetEPKc @3319
    _ZN4inet13physicallayer16Ieee80211ModeSet8modeSetsE @3320 DATA
    _ZN4inet13physicallayer16Ieee80211ModeSetC1EPKcSt6vectorINS1_5EntryESaIS5_EE @3321
    _ZN4inet13physicallayer16Ieee80211ModeSetC2EPKcSt6vectorINS1_5EntryESaIS5_EE @3322
    _ZN4inet13physicallayer16Ieee80211VhtCodeC1EPKNS0_26Ieee80211ConvolutionalCodeEPKNS0_24Ieee80211VhtInterleavingEPKNS0_18AdditiveScramblingE @3323
    _ZN4inet13physicallayer16Ieee80211VhtCodeC2EPKNS0_26Ieee80211ConvolutionalCodeEPKNS0_24Ieee80211VhtInterleavingEPKNS0_18AdditiveScramblingE @3324
    _ZN4inet13physicallayer16Ieee80211VhtCodeD0Ev @3325
    _ZN4inet13physicallayer16Ieee80211VhtCodeD1Ev @3326
    _ZN4inet13physicallayer16Ieee80211VhtCodeD2Ev @3327
    _ZN4inet13physicallayer16Ieee80211VhtModeC1EPKcPKNS0_24Ieee80211VhtPreambleModeEPKNS0_20Ieee80211VhtDataModeENS1_8BandModeE @3328
    _ZN4inet13physicallayer16Ieee80211VhtModeC2EPKcPKNS0_24Ieee80211VhtPreambleModeEPKNS0_20Ieee80211VhtDataModeENS1_8BandModeE @3329
    _ZN4inet13physicallayer16IsotropicAntennaC1Ev @3330
    _ZN4inet13physicallayer16IsotropicAntennaC2Ev @3331
    _ZN4inet13physicallayer16LayeredReceptionC1EPKNS0_21IReceptionAnalogModelEPKNS0_6IRadioEPKNS0_13ITransmissionEN7omnetpp7SimTimeESC_NS_5CoordESD_NS_10QuaternionESE_ @3332
    _ZN4inet13physicallayer16LayeredReceptionC2EPKNS0_21IReceptionAnalogModelEPKNS0_6IRadioEPKNS0_13ITransmissionEN7omnetpp7SimTimeESC_NS_5CoordESD_NS_10QuaternionESE_ @3333
    _ZN4inet13physicallayer16LayeredReceptionD0Ev @3334
    _ZN4inet13physicallayer16LayeredReceptionD1Ev @3335
    _ZN4inet13physicallayer16LayeredReceptionD2Ev @3336
    _ZN4inet13physicallayer16MediumLimitCache10initializeEi @3337
    _ZN4inet13physicallayer16MediumLimitCache11removeRadioEPKNS0_6IRadioE @3338
    _ZN4inet13physicallayer16MediumLimitCache12updateLimitsEv @3339
    _ZN4inet13physicallayer16MediumLimitCache8addRadioEPKNS0_6IRadioE @3340
    _ZN4inet13physicallayer16MediumLimitCacheC1Ev @3341
    _ZN4inet13physicallayer16MediumLimitCacheC2Ev @3342
    _ZN4inet13physicallayer16ParabolicAntenna10initializeEi @3343
    _ZN4inet13physicallayer16ParabolicAntennaC1Ev @3344
    _ZN4inet13physicallayer16ParabolicAntennaC2Ev @3345
    _ZN4inet13physicallayer16Qam256Modulation13constellationE @3346 DATA
    _ZN4inet13physicallayer16Qam256Modulation9singletonE @3347 DATA
    _ZN4inet13physicallayer16Qam256ModulationC1Ev @3348
    _ZN4inet13physicallayer16Qam256ModulationC2Ev @3349
    _ZN4inet13physicallayer16SnirReceiverBase10initializeEi @3350
    _ZN4inet13physicallayer16TransmissionBaseC1EPKNS0_6IRadioEPKNS_6PacketEN7omnetpp7SimTimeES9_S9_S9_S9_NS_5CoordESA_NS_10QuaternionESB_ @3351
    _ZN4inet13physicallayer16TransmissionBaseC2EPKNS0_6IRadioEPKNS_6PacketEN7omnetpp7SimTimeES9_S9_S9_S9_NS_5CoordESA_NS_10QuaternionESB_ @3352
    _ZN4inet13physicallayer16UnitDiskReceiver10initializeEi @3353
    _ZN4inet13physicallayer16UnitDiskReceiverC1Ev @3354
    _ZN4inet13physicallayer16UnitDiskReceiverC2Ev @3355
    _ZN4inet13physicallayer16_16PpmModulation9singletonE @3356 DATA
    _ZN4inet13physicallayer16_16PpmModulationC1Ev @3357
    _ZN4inet13physicallayer16_16PpmModulationC2Ev @3358
    _ZN4inet13physicallayer16_2GfskModulation9singletonE @3359 DATA
    _ZN4inet13physicallayer16_2GfskModulationC1Ev @3360
    _ZN4inet13physicallayer16_2GfskModulationC2Ev @3361
    _ZN4inet13physicallayer16_4GfskModulation9singletonE @3362 DATA
    _ZN4inet13physicallayer16_4GfskModulationC1Ev @3363
    _ZN4inet13physicallayer16_4GfskModulationC2Ev @3364
    _ZN4inet13physicallayer17AdditiveScramblerC1EPKNS0_18AdditiveScramblingE @3365
    _ZN4inet13physicallayer17AdditiveScramblerC2EPKNS0_18AdditiveScramblingE @3366
    _ZN4inet13physicallayer17ConvolutionalCodeC1EPKcS3_S3_iiS3_ @3367
    _ZN4inet13physicallayer17ConvolutionalCodeC2EPKcS3_S3_iiS3_ @3368
    _ZN4inet13physicallayer17FlatReceptionBaseC2EPKNS0_6IRadioEPKNS0_13ITransmissionEN7omnetpp7SimTimeES9_NS_5CoordESA_NS_10QuaternionESB_NS_5units5valueIdNSC_3powINSC_5units1sELin1ELi1EEEEESI_ @3369
    _ZN4inet13physicallayer17FreeSpacePathLoss10initializeEi @3370
    _ZN4inet13physicallayer17FreeSpacePathLossC1Ev @3371
    _ZN4inet13physicallayer17FreeSpacePathLossC2Ev @3372
    _ZN4inet13physicallayer17GridNeighborCache10initializeEi @3373
    _ZN4inet13physicallayer17GridNeighborCache11removeRadioEPKNS0_6IRadioE @3374
    _ZN4inet13physicallayer17GridNeighborCache13handleMessageEPN7omnetpp8cMessageE @3375
    _ZN4inet13physicallayer17GridNeighborCache14fillCubeVectorEv @3376
    _ZN4inet13physicallayer17GridNeighborCache8addRadioEPKNS0_6IRadioE @3377
    _ZN4inet13physicallayer17GridNeighborCacheC1Ev @3378
    _ZN4inet13physicallayer17GridNeighborCacheC2Ev @3379
    _ZN4inet13physicallayer17GridNeighborCacheD0Ev @3380
    _ZN4inet13physicallayer17GridNeighborCacheD1Ev @3381
    _ZN4inet13physicallayer17GridNeighborCacheD2Ev @3382
    _ZN4inet13physicallayer17IdealObstacleLoss10initializeEi @3383
    _ZN4inet13physicallayer17IdealObstacleLossC1Ev @3384
    _ZN4inet13physicallayer17IdealObstacleLossC2Ev @3385
    _ZN4inet13physicallayer17Ieee80211BandBaseC2EPKc @3386
    _ZN4inet13physicallayer17Ieee80211DsssModeC1EPKcPKNS0_25Ieee80211DsssPreambleModeEPKNS0_23Ieee80211DsssHeaderModeEPKNS0_21Ieee80211DsssDataModeE @3387
    _ZN4inet13physicallayer17Ieee80211DsssModeC2EPKcPKNS0_25Ieee80211DsssPreambleModeEPKNS0_23Ieee80211DsssHeaderModeEPKNS0_21Ieee80211DsssDataModeE @3388
    _ZN4inet13physicallayer17Ieee80211FhssModeC1EPKcPKNS0_25Ieee80211FhssPreambleModeEPKNS0_23Ieee80211FhssHeaderModeEPKNS0_21Ieee80211FhssDataModeE @3389
    _ZN4inet13physicallayer17Ieee80211FhssModeC2EPKcPKNS0_25Ieee80211FhssPreambleModeEPKNS0_23Ieee80211FhssHeaderModeEPKNS0_21Ieee80211FhssDataModeE @3390
    _ZN4inet13physicallayer17Ieee80211OfdmCodeC1EPKNS0_17ConvolutionalCodeEPKNS0_25Ieee80211OfdmInterleavingEPKNS0_18AdditiveScramblingE @3391
    _ZN4inet13physicallayer17Ieee80211OfdmCodeC2EPKNS0_17ConvolutionalCodeEPKNS0_25Ieee80211OfdmInterleavingEPKNS0_18AdditiveScramblingE @3392
    _ZN4inet13physicallayer17Ieee80211OfdmModeC1EPKcPKNS0_25Ieee80211OfdmPreambleModeEPKNS0_23Ieee80211OfdmSignalModeEPKNS0_21Ieee80211OfdmDataModeENS_5units5valueIdNSD_3powINSD_5units1sELin1ELi1EEEEESJ_ @3393
    _ZN4inet13physicallayer17Ieee80211OfdmModeC2EPKcPKNS0_25Ieee80211OfdmPreambleModeEPKNS0_23Ieee80211OfdmSignalModeEPKNS0_21Ieee80211OfdmDataModeENS_5units5valueIdNSD_3powINSD_5units1sELin1ELi1EEEEESJ_ @3394
    _ZN4inet13physicallayer17ListeningDecisionC1EPKNS0_10IListeningEb @3395
    _ZN4inet13physicallayer17ListeningDecisionC2EPKNS0_10IListeningEb @3396
    _ZN4inet13physicallayer17PhysicalLayerBase10initializeEi @3397
    _ZN4inet13physicallayer17PhysicalLayerBase12handleSignalEPNS0_6SignalE @3398
    _ZN4inet13physicallayer17PhysicalLayerBase14isLowerMessageEPN7omnetpp8cMessageE @3399
    _ZN4inet13physicallayer17PhysicalLayerBase14isUpperMessageEPN7omnetpp8cMessageE @3400
    _ZN4inet13physicallayer17PhysicalLayerBase18handleLowerMessageEPN7omnetpp8cMessageE @3401
    _ZN4inet13physicallayer17PhysicalLayerBase6sendUpEPN7omnetpp8cMessageE @3402
    _ZN4inet13physicallayer17PpmModulationBaseC1Ej @3403
    _ZN4inet13physicallayer17PpmModulationBaseC2Ej @3404
    _ZN4inet13physicallayer17Qam1024Modulation13constellationE @3405 DATA
    _ZN4inet13physicallayer17Qam1024Modulation9singletonE @3406 DATA
    _ZN4inet13physicallayer17Qam1024ModulationC1Ev @3407
    _ZN4inet13physicallayer17Qam1024ModulationC2Ev @3408
    _ZN4inet13physicallayer17ReceptionBitModelC1ENS_5units5valueIxNS2_5units1bEEENS3_IdNS2_7composeIS5_NS2_3powINS4_1sELin1ELi1EEEEEEES6_SC_PKNS_9BitVectorE @3409
    _ZN4inet13physicallayer17ReceptionBitModelC2ENS_5units5valueIxNS2_5units1bEEENS3_IdNS2_7composeIS5_NS2_3powINS4_1sELin1ELi1EEEEEEES6_SC_PKNS_9BitVectorE @3410
    _ZN4inet13physicallayer17ReceptionDecisionC1EPKNS0_10IReceptionENS0_12IRadioSignal10SignalPartEbbb @3411
    _ZN4inet13physicallayer17ReceptionDecisionC2EPKNS0_10IReceptionENS0_12IRadioSignal10SignalPartEbbb @3412
    _ZN4inet13physicallayer17SignalAnalogModelC1EN7omnetpp7SimTimeE @3413
    _ZN4inet13physicallayer17SignalAnalogModelC2EN7omnetpp7SimTimeE @3414
    _ZN4inet13physicallayer17SignalPacketModelC1EPKNS_6PacketENS_5units5valueIdNS5_7composeINS5_5units1bENS5_3powINS8_1sELin1ELi1EEEEEEE @3415
    _ZN4inet13physicallayer17SignalPacketModelC2EPKNS_6PacketENS_5units5valueIdNS5_7composeINS5_5units1bENS5_3powINS8_1sELin1ELi1EEEEEEE @3416
    _ZN4inet13physicallayer17SignalSampleModelC1EidPKSt6vectorINS_5units5valueIdNS3_7composeINS5_INS5_INS3_5units1mENS5_INS6_2kgENS3_3powINS6_1sELin2ELi1EEEEEEES7_EENS9_ISA_Lin1ELi1EEEEEEESaISH_EE @3417
    _ZN4inet13physicallayer17SignalSampleModelC2EidPKSt6vectorINS_5units5valueIdNS3_7composeINS5_INS5_INS3_5units1mENS5_INS6_2kgENS3_3powINS6_1sELin2ELi1EEEEEEES7_EENS9_ISA_Lin1ELi1EEEEEEESaISH_EE @3418
    _ZN4inet13physicallayer17SignalSampleModelD0Ev @3419
    _ZN4inet13physicallayer17SignalSampleModelD1Ev @3420
    _ZN4inet13physicallayer17SignalSampleModelD2Ev @3421
    _ZN4inet13physicallayer17SignalSymbolModelC1EididPKSt6vectorIPKNS0_7ISymbolESaIS5_EE @3422
    _ZN4inet13physicallayer17SignalSymbolModelC2EididPKSt6vectorIPKNS0_7ISymbolESaIS5_EE @3423
    _ZN4inet13physicallayer17SignalSymbolModelD0Ev @3424
    _ZN4inet13physicallayer17SignalSymbolModelD1Ev @3425
    _ZN4inet13physicallayer17SignalSymbolModelD2Ev @3426
    _ZN4inet13physicallayer17UnitDiskListeningC1EPKNS0_6IRadioEN7omnetpp7SimTimeES6_NS_5CoordES7_ @3427
    _ZN4inet13physicallayer17UnitDiskListeningC2EPKNS0_6IRadioEN7omnetpp7SimTimeES6_NS_5CoordES7_ @3428
    _ZN4inet13physicallayer17UnitDiskReceptionC1EPKNS0_6IRadioEPKNS0_13ITransmissionEN7omnetpp7SimTimeES9_NS_5CoordESA_NS_10QuaternionESB_NS1_5PowerE @3429
    _ZN4inet13physicallayer17UnitDiskReceptionC2EPKNS0_6IRadioEPKNS0_13ITransmissionEN7omnetpp7SimTimeES9_NS_5CoordESA_NS_10QuaternionESB_NS1_5PowerE @3430
    _ZN4inet13physicallayer18AdditiveScramblingC1ERKNS_14ShortBitVectorES4_ @3431
    _ZN4inet13physicallayer18AdditiveScramblingC2ERKNS_14ShortBitVectorES4_ @3432
    _ZN4inet13physicallayer18ApskModulationBase14findModulationEPKc @3433
    _ZN4inet13physicallayer18ApskModulationBaseC2EPKSt6vectorINS0_10ApskSymbolESaIS3_EE @3434
    _ZN4inet13physicallayer18ApskScalarReceiverC1Ev @3435
    _ZN4inet13physicallayer18ApskScalarReceiverC2Ev @3436
    _ZN4inet13physicallayer18BreakpointPathLoss10initializeEi @3437
    _ZN4inet13physicallayer18BreakpointPathLossC1Ev @3438
    _ZN4inet13physicallayer18BreakpointPathLossC2Ev @3439
    _ZN4inet13physicallayer18ConvolutionalCoder14initParametersEv @3440
    _ZN4inet13physicallayer18ConvolutionalCoder17memoryAllocationsEv @3441
    _ZN4inet13physicallayer18ConvolutionalCoder18computeMemorySizesEv @3442
    _ZN4inet13physicallayer18ConvolutionalCoder20computeMemorySizeSumEv @3443
    _ZN4inet13physicallayer18ConvolutionalCoder21computeNumberOfStatesEv @3444
    _ZN4inet13physicallayer18ConvolutionalCoder23computeStateTransitionsEv @3445
    _ZN4inet13physicallayer18ConvolutionalCoder25setTransferFunctionMatrixERSt6vectorIS2_IiSaIiEESaIS4_EE @3446
    _ZN4inet13physicallayer18ConvolutionalCoder28computeOutputAndInputSymbolsEv @3447
    _ZN4inet13physicallayer18ConvolutionalCoder33computeHammingDistanceLookupTableEv @3448
    _ZN4inet13physicallayer18ConvolutionalCoder34computeDecimalToOutputSymbolVectorEv @3449
    _ZN4inet13physicallayer18ConvolutionalCoder36computeNumberOfInputAndOutputSymbolsEv @3450
    _ZN4inet13physicallayer18ConvolutionalCoderC1EPKNS0_17ConvolutionalCodeE @3451
    _ZN4inet13physicallayer18ConvolutionalCoderC2EPKNS0_17ConvolutionalCodeE @3452
    _ZN4inet13physicallayer18ConvolutionalCoderD0Ev @3453
    _ZN4inet13physicallayer18ConvolutionalCoderD1Ev @3454
    _ZN4inet13physicallayer18ConvolutionalCoderD2Ev @3455
    _ZN4inet13physicallayer18DpskModulationBaseC1Ej @3456
    _ZN4inet13physicallayer18DpskModulationBaseC2Ej @3457
    _ZN4inet13physicallayer18DsssErrorRateModel13DqpskFunctionEd @3458
    _ZN4inet13physicallayer18DsssErrorRateModel16WLAN_SIR_PERFECTE @3459 DATA
    _ZN4inet13physicallayer18DsssErrorRateModel19WLAN_SIR_IMPOSSIBLEE @3460 DATA
    _ZN4inet13physicallayer18DsssErrorRateModel22spectralEfficiency1bitE @3461 DATA
    _ZN4inet13physicallayer18DsssErrorRateModel22spectralEfficiency2bitE @3462 DATA
    _ZN4inet13physicallayer18DsssErrorRateModel23GetDsssDbpskSuccessRateEdj @3463
    _ZN4inet13physicallayer18DsssErrorRateModel23GetDsssDqpskSuccessRateEdj @3464
    _ZN4inet13physicallayer18DsssErrorRateModel28GetDsssDqpskCck11SuccessRateEdj @3465
    _ZN4inet13physicallayer18DsssErrorRateModel29GetDsssDqpskCck5_5SuccessRateEdj @3466
    _ZN4inet13physicallayer18GfskModulationBaseC1Ej @3467
    _ZN4inet13physicallayer18GfskModulationBaseC2Ej @3468
    _ZN4inet13physicallayer18Ieee80211OfdmRadioC1Ev @3469
    _ZN4inet13physicallayer18Ieee80211OfdmRadioC2Ev @3470
    _ZN4inet13physicallayer18Ieee80211PhyHeader12parsimUnpackEPN7omnetpp11cCommBufferE @3471
    _ZN4inet13physicallayer18Ieee80211PhyHeader14setLengthFieldENS_5units5valueIxNS2_8intscaleINS2_5units1bELi1ELi8EEEEE @3472
    _ZN4inet13physicallayer18Ieee80211PhyHeader4copyERKS1_ @3473
    _ZN4inet13physicallayer18Ieee80211PhyHeaderC1ERKS1_ @3474
    _ZN4inet13physicallayer18Ieee80211PhyHeaderC1Ev @3475
    _ZN4inet13physicallayer18Ieee80211PhyHeaderC2ERKS1_ @3476
    _ZN4inet13physicallayer18Ieee80211PhyHeaderC2Ev @3477
    _ZN4inet13physicallayer18Ieee80211PhyHeaderD0Ev @3478
    _ZN4inet13physicallayer18Ieee80211PhyHeaderD1Ev @3479
    _ZN4inet13physicallayer18Ieee80211PhyHeaderD2Ev @3480
    _ZN4inet13physicallayer18Ieee80211PhyHeaderaSERKS1_ @3481
    _ZN4inet13physicallayer18LogNormalShadowing10initializeEi @3482
    _ZN4inet13physicallayer18LogNormalShadowingC1Ev @3483
    _ZN4inet13physicallayer18LogNormalShadowingC2Ev @3484
    _ZN4inet13physicallayer18MqamModulationBaseC1EPKSt6vectorINS0_10ApskSymbolESaIS3_EE @3485
    _ZN4inet13physicallayer18MqamModulationBaseC2EPKSt6vectorINS0_10ApskSymbolESaIS3_EE @3486
    _ZN4inet13physicallayer18ScalarTransmissionC1EPKNS0_6IRadioEPKNS_6PacketEN7omnetpp7SimTimeES9_S9_S9_S9_NS_5CoordESA_NS_10QuaternionESB_PKNS0_11IModulationENS_5units5valueIxNSF_5units1bEEESJ_NSG_IdNSF_3powINSH_1sELin1ELi1EEEEESN_NSG_IdNSF_7composeISI_SM_EEEENSG_IdNSO_INSO_INSO_INSH_1mENSO_INSH_2kgENSK_ISL_Lin2ELi1EEEEEEESR_EESM_EEEE @3487
    _ZN4inet13physicallayer18ScalarTransmissionC2EPKNS0_6IRadioEPKNS_6PacketEN7omnetpp7SimTimeES9_S9_S9_S9_NS_5CoordESA_NS_10QuaternionESB_PKNS0_11IModulationENS_5units5valueIxNSF_5units1bEEESJ_NSG_IdNSF_3powINSH_1sELin1ELi1EEEEESN_NSG_IdNSF_7composeISI_SM_EEEENSG_IdNSO_INSO_INSO_INSH_1mENSO_INSH_2kgENSK_ISL_Lin2ELi1EEEEEEESR_EESM_EEEE @3488
    _ZN4inet13physicallayer18TwoRayInterference10initializeEi @3489
    _ZN4inet13physicallayer18TwoRayInterferenceC1Ev @3490
    _ZN4inet13physicallayer18TwoRayInterferenceC2Ev @3491
    _ZN4inet13physicallayer19ApskLayeredReceiver10initializeEi @3492
    _ZN4inet13physicallayer19ApskLayeredReceiverC1Ev @3493
    _ZN4inet13physicallayer19ApskLayeredReceiverC2Ev @3494
    _ZN4inet13physicallayer19ConstantGainAntenna10initializeEi @3495
    _ZN4inet13physicallayer19ConstantGainAntennaC1Ev @3496
    _ZN4inet13physicallayer19ConstantGainAntennaC2Ev @3497
    _ZN4inet13physicallayer19FlatTransmitterBase10initializeEi @3498
    _ZN4inet13physicallayer19FlatTransmitterBaseC2Ev @3499
    _ZN4inet13physicallayer19Ieee80211ChannelInd12parsimUnpackEPN7omnetpp11cCommBufferE @3500
    _ZN4inet13physicallayer19Ieee80211ChannelInd4copyERKS1_ @3501
    _ZN4inet13physicallayer19Ieee80211ChannelIndC1ERKS1_ @3502
    _ZN4inet13physicallayer19Ieee80211ChannelIndC1Ev @3503
    _ZN4inet13physicallayer19Ieee80211ChannelIndC2ERKS1_ @3504
    _ZN4inet13physicallayer19Ieee80211ChannelIndC2Ev @3505
    _ZN4inet13physicallayer19Ieee80211ChannelIndD0Ev @3506
    _ZN4inet13physicallayer19Ieee80211ChannelIndD1Ev @3507
    _ZN4inet13physicallayer19Ieee80211ChannelIndD2Ev @3508
    _ZN4inet13physicallayer19Ieee80211ChannelIndaSERKS1_ @3509
    _ZN4inet13physicallayer19Ieee80211ChannelReq12parsimUnpackEPN7omnetpp11cCommBufferE @3510
    _ZN4inet13physicallayer19Ieee80211ChannelReq4copyERKS1_ @3511
    _ZN4inet13physicallayer19Ieee80211ChannelReqC1ERKS1_ @3512
    _ZN4inet13physicallayer19Ieee80211ChannelReqC1Ev @3513
    _ZN4inet13physicallayer19Ieee80211ChannelReqC2ERKS1_ @3514
    _ZN4inet13physicallayer19Ieee80211ChannelReqC2Ev @3515
    _ZN4inet13physicallayer19Ieee80211ChannelReqD0Ev @3516
    _ZN4inet13physicallayer19Ieee80211ChannelReqD1Ev @3517
    _ZN4inet13physicallayer19Ieee80211ChannelReqD2Ev @3518
    _ZN4inet13physicallayer19Ieee80211ChannelReqaSERKS1_ @3519
    _ZN4inet13physicallayer19Ieee80211HrDsssModeC1EPKcPKNS0_27Ieee80211HrDsssPreambleModeEPKNS0_25Ieee80211HrDsssHeaderModeEPKNS0_23Ieee80211HrDsssDataModeE @3520
    _ZN4inet13physicallayer19Ieee80211HrDsssModeC2EPKcPKNS0_27Ieee80211HrDsssPreambleModeEPKNS0_25Ieee80211HrDsssHeaderModeEPKNS0_23Ieee80211HrDsssDataModeE @3521
    _ZN4inet13physicallayer19Ieee80211HtDataModeC1EPKNS0_14Ieee80211HtmcsENS_5units5valueIdNS5_3powINS5_5units1sELin1ELi1EEEEENS0_19Ieee80211HtModeBase17GuardIntervalTypeE @3522
    _ZN4inet13physicallayer19Ieee80211HtDataModeC2EPKNS0_14Ieee80211HtmcsENS_5units5valueIdNS5_3powINS5_5units1sELin1ELi1EEEEENS0_19Ieee80211HtModeBase17GuardIntervalTypeE @3523
    _ZN4inet13physicallayer19Ieee80211HtModeBaseC2EjjNS_5units5valueIdNS2_3powINS2_5units1sELin1ELi1EEEEENS1_17GuardIntervalTypeE @3524
    _ZN4inet13physicallayer19Ieee80211HtmcsTable13htMcs0BW20MHzE @3525 DATA
    _ZN4inet13physicallayer19Ieee80211HtmcsTable13htMcs0BW40MHzE @3526 DATA
    _ZN4inet13physicallayer19Ieee80211HtmcsTable13htMcs1BW20MHzE @3527 DATA
    _ZN4inet13physicallayer19Ieee80211HtmcsTable13htMcs1BW40MHzE @3528 DATA
    _ZN4inet13physicallayer19Ieee80211HtmcsTable13htMcs2BW20MHzE @3529 DATA
    _ZN4inet13physicallayer19Ieee80211HtmcsTable13htMcs2BW40MHzE @3530 DATA
    _ZN4inet13physicallayer19Ieee80211HtmcsTable13htMcs3BW20MHzE @3531 DATA
    _ZN4inet13physicallayer19Ieee80211HtmcsTable13htMcs3BW40MHzE @3532 DATA
    _ZN4inet13physicallayer19Ieee80211HtmcsTable13htMcs4BW20MHzE @3533 DATA
    _ZN4inet13physicallayer19Ieee80211HtmcsTable13htMcs4BW40MHzE @3534 DATA
    _ZN4inet13physicallayer19Ieee80211HtmcsTable13htMcs5BW20MHzE @3535 DATA
    _ZN4inet13physicallayer19Ieee80211HtmcsTable13htMcs5BW40MHzE @3536 DATA
    _ZN4inet13physicallayer19Ieee80211HtmcsTable13htMcs6BW20MHzE @3537 DATA
    _ZN4inet13physicallayer19Ieee80211HtmcsTable13htMcs6BW40MHzE @3538 DATA
    _ZN4inet13physicallayer19Ieee80211HtmcsTable13htMcs7BW20MHzE @3539 DATA
    _ZN4inet13physicallayer19Ieee80211HtmcsTable13htMcs7BW40MHzE @3540 DATA
    _ZN4inet13physicallayer19Ieee80211HtmcsTable13htMcs8BW20MHzE @3541 DATA
    _ZN4inet13physicallayer19Ieee80211HtmcsTable13htMcs8BW40MHzE @3542 DATA
    _ZN4inet13physicallayer19Ieee80211HtmcsTable13htMcs9BW20MHzE @3543 DATA
    _ZN4inet13physicallayer19Ieee80211HtmcsTable13htMcs9BW40MHzE @3544 DATA
    _ZN4inet13physicallayer19Ieee80211HtmcsTable14htMcs10BW20MHzE @3545 DATA
    _ZN4inet13physicallayer19Ieee80211HtmcsTable14htMcs10BW40MHzE @3546 DATA
    _ZN4inet13physicallayer19Ieee80211HtmcsTable14htMcs11BW20MHzE @3547 DATA
    _ZN4inet13physicallayer19Ieee80211HtmcsTable14htMcs11BW40MHzE @3548 DATA
    _ZN4inet13physicallayer19Ieee80211HtmcsTable14htMcs12BW20MHzE @3549 DATA
    _ZN4inet13physicallayer19Ieee80211HtmcsTable14htMcs12BW40MHzE @3550 DATA
    _ZN4inet13physicallayer19Ieee80211HtmcsTable14htMcs13BW20MHzE @3551 DATA
    _ZN4inet13physicallayer19Ieee80211HtmcsTable14htMcs13BW40MHzE @3552 DATA
    _ZN4inet13physicallayer19Ieee80211HtmcsTable14htMcs14BW20MHzE @3553 DATA
    _ZN4inet13physicallayer19Ieee80211HtmcsTable14htMcs14BW40MHzE @3554 DATA
    _ZN4inet13physicallayer19Ieee80211HtmcsTable14htMcs15BW20MHzE @3555 DATA
    _ZN4inet13physicallayer19Ieee80211HtmcsTable14htMcs15BW40MHzE @3556 DATA
    _ZN4inet13physicallayer19Ieee80211HtmcsTable14htMcs16BW20MHzE @3557 DATA
    _ZN4inet13physicallayer19Ieee80211HtmcsTable14htMcs16BW40MHzE @3558 DATA
    _ZN4inet13physicallayer19Ieee80211HtmcsTable14htMcs17BW20MHzE @3559 DATA
    _ZN4inet13physicallayer19Ieee80211HtmcsTable14htMcs17BW40MHzE @3560 DATA
    _ZN4inet13physicallayer19Ieee80211HtmcsTable14htMcs18BW20MHzE @3561 DATA
    _ZN4inet13physicallayer19Ieee80211HtmcsTable14htMcs18BW40MHzE @3562 DATA
    _ZN4inet13physicallayer19Ieee80211HtmcsTable14htMcs19BW20MHzE @3563 DATA
    _ZN4inet13physicallayer19Ieee80211HtmcsTable14htMcs19BW40MHzE @3564 DATA
    _ZN4inet13physicallayer19Ieee80211HtmcsTable14htMcs20BW20MHzE @3565 DATA
    _ZN4inet13physicallayer19Ieee80211HtmcsTable14htMcs20BW40MHzE @3566 DATA
    _ZN4inet13physicallayer19Ieee80211HtmcsTable14htMcs21BW20MHzE @3567 DATA
    _ZN4inet13physicallayer19Ieee80211HtmcsTable14htMcs21BW40MHzE @3568 DATA
    _ZN4inet13physicallayer19Ieee80211HtmcsTable14htMcs22BW20MHzE @3569 DATA
    _ZN4inet13physicallayer19Ieee80211HtmcsTable14htMcs22BW40MHzE @3570 DATA
    _ZN4inet13physicallayer19Ieee80211HtmcsTable14htMcs23BW20MHzE @3571 DATA
    _ZN4inet13physicallayer19Ieee80211HtmcsTable14htMcs23BW40MHzE @3572 DATA
    _ZN4inet13physicallayer19Ieee80211HtmcsTable14htMcs24BW20MHzE @3573 DATA
    _ZN4inet13physicallayer19Ieee80211HtmcsTable14htMcs24BW40MHzE @3574 DATA
    _ZN4inet13physicallayer19Ieee80211HtmcsTable14htMcs25BW20MHzE @3575 DATA
    _ZN4inet13physicallayer19Ieee80211HtmcsTable14htMcs25BW40MHzE @3576 DATA
    _ZN4inet13physicallayer19Ieee80211HtmcsTable14htMcs26BW20MHzE @3577 DATA
    _ZN4inet13physicallayer19Ieee80211HtmcsTable14htMcs26BW40MHzE @3578 DATA
    _ZN4inet13physicallayer19Ieee80211HtmcsTable14htMcs27BW20MHzE @3579 DATA
    _ZN4inet13physicallayer19Ieee80211HtmcsTable14htMcs27BW40MHzE @3580 DATA
    _ZN4inet13physicallayer19Ieee80211HtmcsTable14htMcs28BW20MHzE @3581 DATA
    _ZN4inet13physicallayer19Ieee80211HtmcsTable14htMcs28BW40MHzE @3582 DATA
    _ZN4inet13physicallayer19Ieee80211HtmcsTable14htMcs29BW20MHzE @3583 DATA
    _ZN4inet13physicallayer19Ieee80211HtmcsTable14htMcs29BW40MHzE @3584 DATA
    _ZN4inet13physicallayer19Ieee80211HtmcsTable14htMcs30BW20MHzE @3585 DATA
    _ZN4inet13physicallayer19Ieee80211HtmcsTable14htMcs30BW40MHzE @3586 DATA
    _ZN4inet13physicallayer19Ieee80211HtmcsTable14htMcs31BW20MHzE @3587 DATA
    _ZN4inet13physicallayer19Ieee80211HtmcsTable14htMcs31BW40MHzE @3588 DATA
    _ZN4inet13physicallayer19Ieee80211HtmcsTable14htMcs32BW40MHzE @3589 DATA
    _ZN4inet13physicallayer19Ieee80211HtmcsTable14htMcs33BW20MHzE @3590 DATA
    _ZN4inet13physicallayer19Ieee80211HtmcsTable14htMcs33BW40MHzE @3591 DATA
    _ZN4inet13physicallayer19Ieee80211HtmcsTable14htMcs34BW20MHzE @3592 DATA
    _ZN4inet13physicallayer19Ieee80211HtmcsTable14htMcs34BW40MHzE @3593 DATA
    _ZN4inet13physicallayer19Ieee80211HtmcsTable14htMcs35BW20MHzE @3594 DATA
    _ZN4inet13physicallayer19Ieee80211HtmcsTable14htMcs35BW40MHzE @3595 DATA
    _ZN4inet13physicallayer19Ieee80211HtmcsTable14htMcs36BW20MHzE @3596 DATA
    _ZN4inet13physicallayer19Ieee80211HtmcsTable14htMcs36BW40MHzE @3597 DATA
    _ZN4inet13physicallayer19Ieee80211HtmcsTable14htMcs37BW20MHzE @3598 DATA
    _ZN4inet13physicallayer19Ieee80211HtmcsTable14htMcs37BW40MHzE @3599 DATA
    _ZN4inet13physicallayer19Ieee80211HtmcsTable14htMcs38BW20MHzE @3600 DATA
    _ZN4inet13physicallayer19Ieee80211HtmcsTable14htMcs38BW40MHzE @3601 DATA
    _ZN4inet13physicallayer19Ieee80211HtmcsTable14htMcs39BW20MHzE @3602 DATA
    _ZN4inet13physicallayer19Ieee80211HtmcsTable14htMcs39BW40MHzE @3603 DATA
    _ZN4inet13physicallayer19Ieee80211HtmcsTable14htMcs40BW20MHzE @3604 DATA
    _ZN4inet13physicallayer19Ieee80211HtmcsTable14htMcs40BW40MHzE @3605 DATA
    _ZN4inet13physicallayer19Ieee80211HtmcsTable14htMcs41BW20MHzE @3606 DATA
    _ZN4inet13physicallayer19Ieee80211HtmcsTable14htMcs41BW40MHzE @3607 DATA
    _ZN4inet13physicallayer19Ieee80211HtmcsTable14htMcs42BW20MHzE @3608 DATA
    _ZN4inet13physicallayer19Ieee80211HtmcsTable14htMcs42BW40MHzE @3609 DATA
    _ZN4inet13physicallayer19Ieee80211HtmcsTable14htMcs43BW20MHzE @3610 DATA
    _ZN4inet13physicallayer19Ieee80211HtmcsTable14htMcs43BW40MHzE @3611 DATA
    _ZN4inet13physicallayer19Ieee80211HtmcsTable14htMcs44BW20MHzE @3612 DATA
    _ZN4inet13physicallayer19Ieee80211HtmcsTable14htMcs44BW40MHzE @3613 DATA
    _ZN4inet13physicallayer19Ieee80211HtmcsTable14htMcs45BW20MHzE @3614 DATA
    _ZN4inet13physicallayer19Ieee80211HtmcsTable14htMcs45BW40MHzE @3615 DATA
    _ZN4inet13physicallayer19Ieee80211HtmcsTable14htMcs46BW20MHzE @3616 DATA
    _ZN4inet13physicallayer19Ieee80211HtmcsTable14htMcs46BW40MHzE @3617 DATA
    _ZN4inet13physicallayer19Ieee80211HtmcsTable14htMcs47BW20MHzE @3618 DATA
    _ZN4inet13physicallayer19Ieee80211HtmcsTable14htMcs47BW40MHzE @3619 DATA
    _ZN4inet13physicallayer19Ieee80211HtmcsTable14htMcs48BW20MHzE @3620 DATA
    _ZN4inet13physicallayer19Ieee80211HtmcsTable14htMcs48BW40MHzE @3621 DATA
    _ZN4inet13physicallayer19Ieee80211HtmcsTable14htMcs49BW20MHzE @3622 DATA
    _ZN4inet13physicallayer19Ieee80211HtmcsTable14htMcs49BW40MHzE @3623 DATA
    _ZN4inet13physicallayer19Ieee80211HtmcsTable14htMcs50BW20MHzE @3624 DATA
    _ZN4inet13physicallayer19Ieee80211HtmcsTable14htMcs50BW40MHzE @3625 DATA
    _ZN4inet13physicallayer19Ieee80211HtmcsTable14htMcs51BW20MHzE @3626 DATA
    _ZN4inet13physicallayer19Ieee80211HtmcsTable14htMcs51BW40MHzE @3627 DATA
    _ZN4inet13physicallayer19Ieee80211HtmcsTable14htMcs52BW20MHzE @3628 DATA
    _ZN4inet13physicallayer19Ieee80211HtmcsTable14htMcs52BW40MHzE @3629 DATA
    _ZN4inet13physicallayer19Ieee80211HtmcsTable14htMcs53BW20MHzE @3630 DATA
    _ZN4inet13physicallayer19Ieee80211HtmcsTable14htMcs53BW40MHzE @3631 DATA
    _ZN4inet13physicallayer19Ieee80211HtmcsTable14htMcs54BW20MHzE @3632 DATA
    _ZN4inet13physicallayer19Ieee80211HtmcsTable14htMcs54BW40MHzE @3633 DATA
    _ZN4inet13physicallayer19Ieee80211HtmcsTable14htMcs55BW20MHzE @3634 DATA
    _ZN4inet13physicallayer19Ieee80211HtmcsTable14htMcs55BW40MHzE @3635 DATA
    _ZN4inet13physicallayer19Ieee80211HtmcsTable14htMcs56BW20MHzE @3636 DATA
    _ZN4inet13physicallayer19Ieee80211HtmcsTable14htMcs56BW40MHzE @3637 DATA
    _ZN4inet13physicallayer19Ieee80211HtmcsTable14htMcs57BW20MHzE @3638 DATA
    _ZN4inet13physicallayer19Ieee80211HtmcsTable14htMcs57BW40MHzE @3639 DATA
    _ZN4inet13physicallayer19Ieee80211HtmcsTable14htMcs58BW20MHzE @3640 DATA
    _ZN4inet13physicallayer19Ieee80211HtmcsTable14htMcs58BW40MHzE @3641 DATA
    _ZN4inet13physicallayer19Ieee80211HtmcsTable14htMcs59BW20MHzE @3642 DATA
    _ZN4inet13physicallayer19Ieee80211HtmcsTable14htMcs59BW40MHzE @3643 DATA
    _ZN4inet13physicallayer19Ieee80211HtmcsTable14htMcs60BW20MHzE @3644 DATA
    _ZN4inet13physicallayer19Ieee80211HtmcsTable14htMcs60BW40MHzE @3645 DATA
    _ZN4inet13physicallayer19Ieee80211HtmcsTable14htMcs61BW20MHzE @3646 DATA
    _ZN4inet13physicallayer19Ieee80211HtmcsTable14htMcs61BW40MHzE @3647 DATA
    _ZN4inet13physicallayer19Ieee80211HtmcsTable14htMcs62BW20MHzE @3648 DATA
    _ZN4inet13physicallayer19Ieee80211HtmcsTable14htMcs62BW40MHzE @3649 DATA
    _ZN4inet13physicallayer19Ieee80211HtmcsTable14htMcs63BW20MHzE @3650 DATA
    _ZN4inet13physicallayer19Ieee80211HtmcsTable14htMcs63BW40MHzE @3651 DATA
    _ZN4inet13physicallayer19Ieee80211HtmcsTable14htMcs64BW20MHzE @3652 DATA
    _ZN4inet13physicallayer19Ieee80211HtmcsTable14htMcs64BW40MHzE @3653 DATA
    _ZN4inet13physicallayer19Ieee80211HtmcsTable14htMcs65BW20MHzE @3654 DATA
    _ZN4inet13physicallayer19Ieee80211HtmcsTable14htMcs65BW40MHzE @3655 DATA
    _ZN4inet13physicallayer19Ieee80211HtmcsTable14htMcs66BW20MHzE @3656 DATA
    _ZN4inet13physicallayer19Ieee80211HtmcsTable14htMcs66BW40MHzE @3657 DATA
    _ZN4inet13physicallayer19Ieee80211HtmcsTable14htMcs67BW20MHzE @3658 DATA
    _ZN4inet13physicallayer19Ieee80211HtmcsTable14htMcs67BW40MHzE @3659 DATA
    _ZN4inet13physicallayer19Ieee80211HtmcsTable14htMcs68BW20MHzE @3660 DATA
    _ZN4inet13physicallayer19Ieee80211HtmcsTable14htMcs68BW40MHzE @3661 DATA
    _ZN4inet13physicallayer19Ieee80211HtmcsTable14htMcs69BW20MHzE @3662 DATA
    _ZN4inet13physicallayer19Ieee80211HtmcsTable14htMcs69BW40MHzE @3663 DATA
    _ZN4inet13physicallayer19Ieee80211HtmcsTable14htMcs70BW20MHzE @3664 DATA
    _ZN4inet13physicallayer19Ieee80211HtmcsTable14htMcs70BW40MHzE @3665 DATA
    _ZN4inet13physicallayer19Ieee80211HtmcsTable14htMcs71BW20MHzE @3666 DATA
    _ZN4inet13physicallayer19Ieee80211HtmcsTable14htMcs71BW40MHzE @3667 DATA
    _ZN4inet13physicallayer19Ieee80211HtmcsTable14htMcs72BW20MHzE @3668 DATA
    _ZN4inet13physicallayer19Ieee80211HtmcsTable14htMcs72BW40MHzE @3669 DATA
    _ZN4inet13physicallayer19Ieee80211HtmcsTable14htMcs73BW20MHzE @3670 DATA
    _ZN4inet13physicallayer19Ieee80211HtmcsTable14htMcs73BW40MHzE @3671 DATA
    _ZN4inet13physicallayer19Ieee80211HtmcsTable14htMcs74BW20MHzE @3672 DATA
    _ZN4inet13physicallayer19Ieee80211HtmcsTable14htMcs74BW40MHzE @3673 DATA
    _ZN4inet13physicallayer19Ieee80211HtmcsTable14htMcs75BW20MHzE @3674 DATA
    _ZN4inet13physicallayer19Ieee80211HtmcsTable14htMcs75BW40MHzE @3675 DATA
    _ZN4inet13physicallayer19Ieee80211HtmcsTable14htMcs76BW20MHzE @3676 DATA
    _ZN4inet13physicallayer19Ieee80211HtmcsTable14htMcs76BW40MHzE @3677 DATA
    _ZN4inet13physicallayer19Ieee80211IrDataModeC1EPKNS0_17PpmModulationBaseE @3678
    _ZN4inet13physicallayer19Ieee80211IrDataModeC2EPKNS0_17PpmModulationBaseE @3679
    _ZN4inet13physicallayer19Ieee80211OfdmSymbol14pushApskSymbolEPKNS0_10ApskSymbolEi @3680
    _ZN4inet13physicallayer19Ieee802154UwbIrMode15mandatory_pulseE @3681 DATA
    _ZN4inet13physicallayer19Ieee802154UwbIrMode16cfg_mandatory_4ME @3682 DATA
    _ZN4inet13physicallayer19Ieee802154UwbIrMode17cfg_mandatory_16ME @3683 DATA
    _ZN4inet13physicallayer19Ieee802154UwbIrMode3C31E @3684 DATA
    _ZN4inet13physicallayer19Ieee802154UwbIrMode6last_sE @3685 DATA
    _ZN4inet13physicallayer19Ieee802154UwbIrMode7s_arrayE @3686 DATA
    _ZN4inet13physicallayer19Ieee802154UwbIrMode8maxPulseE @3687 DATA
    _ZN4inet13physicallayer19Ieee802154UwbIrMode8shortSFDE @3688 DATA
    _ZN4inet13physicallayer19LayeredTransmissionC1EPKNS0_24ITransmissionPacketModelEPKNS0_21ITransmissionBitModelEPKNS0_24ITransmissionSymbolModelEPKNS0_24ITransmissionSampleModelEPKNS0_24ITransmissionAnalogModelEPKNS0_6IRadioEPKNS_6PacketEN7omnetpp7SimTimeESO_SO_SO_SO_NS_5CoordESP_NS_10QuaternionESQ_ @3689
    _ZN4inet13physicallayer19LayeredTransmissionC2EPKNS0_24ITransmissionPacketModelEPKNS0_21ITransmissionBitModelEPKNS0_24ITransmissionSymbolModelEPKNS0_24ITransmissionSampleModelEPKNS0_24ITransmissionAnalogModelEPKNS0_6IRadioEPKNS_6PacketEN7omnetpp7SimTimeESO_SO_SO_SO_NS_5CoordESP_NS_10QuaternionESQ_ @3690
    _ZN4inet13physicallayer19LayeredTransmissionD0Ev @3691
    _ZN4inet13physicallayer19LayeredTransmissionD1Ev @3692
    _ZN4inet13physicallayer19LayeredTransmissionD2Ev @3693
    _ZN4inet13physicallayer19NarrowbandNoiseBaseC2EN7omnetpp7SimTimeES3_NS_5units5valueIdNS4_3powINS4_5units1sELin1ELi1EEEEESA_ @3694
    _ZN4inet13physicallayer19NarrowbandRadioBase12setBandwidthENS_5units5valueIdNS2_3powINS2_5units1sELin1ELi1EEEEE @3695
    _ZN4inet13physicallayer19NarrowbandRadioBase13setModulationEPKNS0_11IModulationE @3696
    _ZN4inet13physicallayer19NarrowbandRadioBase18handleUpperCommandEPN7omnetpp8cMessageE @3697
    _ZN4inet13physicallayer19NarrowbandRadioBase18setCenterFrequencyENS_5units5valueIdNS2_3powINS2_5units1sELin1ELi1EEEEE @3698
    _ZN4inet13physicallayer19NarrowbandRadioBaseC1Ev @3699
    _ZN4inet13physicallayer19NarrowbandRadioBaseC2Ev @3700
    _ZN4inet13physicallayer19UnitDiskTransmitter10initializeEi @3701
    _ZN4inet13physicallayer19UnitDiskTransmitterC1Ev @3702
    _ZN4inet13physicallayer19UnitDiskTransmitterC2Ev @3703
    _ZN4inet13physicallayer20DimensionalReceptionC1EPKNS0_6IRadioEPKNS0_13ITransmissionEN7omnetpp7SimTimeES9_NS_5CoordESA_NS_10QuaternionESB_NS_5units5valueIdNSC_3powINSC_5units1sELin1ELi1EEEEESI_RKNS_12IntrusivePtrIKNS_4math9IFunctionINSD_IdNSC_7composeINSM_INSM_INSM_INSF_1mENSM_INSF_2kgENSE_ISG_Lin2ELi1EEEEEEESN_EESH_EENSE_ISH_Lin1ELi1EEEEEEENSK_6DomainIJNSD_IS9_SG_EESI_EEEEEEE @3704
    _ZN4inet13physicallayer20DimensionalReceptionC2EPKNS0_6IRadioEPKNS0_13ITransmissionEN7omnetpp7SimTimeES9_NS_5CoordESA_NS_10QuaternionESB_NS_5units5valueIdNSC_3powINSC_5units1sELin1ELi1EEEEESI_RKNS_12IntrusivePtrIKNS_4math9IFunctionINSD_IdNSC_7composeINSM_INSM_INSM_INSF_1mENSM_INSF_2kgENSE_ISG_Lin2ELi1EEEEEEESN_EESH_EENSE_ISH_Lin1ELi1EEEEEEENSK_6DomainIJNSD_IS9_SG_EESI_EEEEEEE @3705
    _ZN4inet13physicallayer20FlatTransmissionBaseC2EPKNS0_6IRadioEPKNS_6PacketEN7omnetpp7SimTimeES9_S9_S9_S9_NS_5CoordESA_NS_10QuaternionESB_NS_5units5valueIxNSC_5units1bEEESG_NSD_IdNSC_7composeISF_NSC_3powINSE_1sELin1ELi1EEEEEEEPKNS0_11IModulationENSD_IdSK_EESQ_ @3706
    _ZN4inet13physicallayer20ITracingObstacleLoss24obstaclePenetratedSignalE @3707 DATA
    _ZN4inet13physicallayer20Ieee80211ErpOfdmModeC1EPKcbPKNS0_25Ieee80211OfdmPreambleModeEPKNS0_23Ieee80211OfdmSignalModeEPKNS0_21Ieee80211OfdmDataModeE @3708
    _ZN4inet13physicallayer20Ieee80211ErpOfdmModeC2EPKcbPKNS0_25Ieee80211OfdmPreambleModeEPKNS0_23Ieee80211OfdmSignalModeEPKNS0_21Ieee80211OfdmDataModeE @3709
    _ZN4inet13physicallayer20Ieee80211HtPhyHeader12parsimUnpackEPN7omnetpp11cCommBufferE @3710
    _ZN4inet13physicallayer20Ieee80211HtPhyHeader4copyERKS1_ @3711
    _ZN4inet13physicallayer20Ieee80211HtPhyHeaderC1ERKS1_ @3712
    _ZN4inet13physicallayer20Ieee80211HtPhyHeaderC1Ev @3713
    _ZN4inet13physicallayer20Ieee80211HtPhyHeaderC2ERKS1_ @3714
    _ZN4inet13physicallayer20Ieee80211HtPhyHeaderC2Ev @3715
    _ZN4inet13physicallayer20Ieee80211HtPhyHeaderD0Ev @3716
    _ZN4inet13physicallayer20Ieee80211HtPhyHeaderD1Ev @3717
    _ZN4inet13physicallayer20Ieee80211HtPhyHeaderD2Ev @3718
    _ZN4inet13physicallayer20Ieee80211HtPhyHeaderaSERKS1_ @3719
    _ZN4inet13physicallayer20Ieee80211IrPhyHeader10setCrcModeENS_7CrcModeE @3720
    _ZN4inet13physicallayer20Ieee80211IrPhyHeader12parsimUnpackEPN7omnetpp11cCommBufferE @3721
    _ZN4inet13physicallayer20Ieee80211IrPhyHeader4copyERKS1_ @3722
    _ZN4inet13physicallayer20Ieee80211IrPhyHeader6setCrcEt @3723
    _ZN4inet13physicallayer20Ieee80211IrPhyHeaderC1ERKS1_ @3724
    _ZN4inet13physicallayer20Ieee80211IrPhyHeaderC1Ev @3725
    _ZN4inet13physicallayer20Ieee80211IrPhyHeaderC2ERKS1_ @3726
    _ZN4inet13physicallayer20Ieee80211IrPhyHeaderC2Ev @3727
    _ZN4inet13physicallayer20Ieee80211IrPhyHeaderD0Ev @3728
    _ZN4inet13physicallayer20Ieee80211IrPhyHeaderD1Ev @3729
    _ZN4inet13physicallayer20Ieee80211IrPhyHeaderD2Ev @3730
    _ZN4inet13physicallayer20Ieee80211IrPhyHeaderaSERKS1_ @3731
    _ZN4inet13physicallayer20Ieee80211ModeTagBase12parsimUnpackEPN7omnetpp11cCommBufferE @3732
    _ZN4inet13physicallayer20Ieee80211ModeTagBase4copyERKS1_ @3733
    _ZN4inet13physicallayer20Ieee80211ModeTagBase7setModeEPKNS0_14IIeee80211ModeE @3734
    _ZN4inet13physicallayer20Ieee80211ModeTagBaseC1ERKS1_ @3735
    _ZN4inet13physicallayer20Ieee80211ModeTagBaseC1Ev @3736
    _ZN4inet13physicallayer20Ieee80211ModeTagBaseC2ERKS1_ @3737
    _ZN4inet13physicallayer20Ieee80211ModeTagBaseC2Ev @3738
    _ZN4inet13physicallayer20Ieee80211ModeTagBaseD0Ev @3739
    _ZN4inet13physicallayer20Ieee80211ModeTagBaseD1Ev @3740
    _ZN4inet13physicallayer20Ieee80211ModeTagBaseD2Ev @3741
    _ZN4inet13physicallayer20Ieee80211ModeTagBaseaSERKS1_ @3742
    _ZN4inet13physicallayer20Ieee80211OfdmDecoderC1EPKNS0_17Ieee80211OfdmCodeE @3743
    _ZN4inet13physicallayer20Ieee80211OfdmDecoderC2EPKNS0_17Ieee80211OfdmCodeE @3744
    _ZN4inet13physicallayer20Ieee80211OfdmDecoderD0Ev @3745
    _ZN4inet13physicallayer20Ieee80211OfdmDecoderD1Ev @3746
    _ZN4inet13physicallayer20Ieee80211OfdmDecoderD2Ev @3747
    _ZN4inet13physicallayer20Ieee80211OfdmEncoderC1EPKNS0_17Ieee80211OfdmCodeE @3748
    _ZN4inet13physicallayer20Ieee80211OfdmEncoderC2EPKNS0_17Ieee80211OfdmCodeE @3749
    _ZN4inet13physicallayer20Ieee80211OfdmEncoderD0Ev @3750
    _ZN4inet13physicallayer20Ieee80211OfdmEncoderD1Ev @3751
    _ZN4inet13physicallayer20Ieee80211OfdmEncoderD2Ev @3752
    _ZN4inet13physicallayer20Ieee80211PhyPreamble12parsimUnpackEPN7omnetpp11cCommBufferE @3753
    _ZN4inet13physicallayer20Ieee80211PhyPreamble4copyERKS1_ @3754
    _ZN4inet13physicallayer20Ieee80211PhyPreambleC1ERKS1_ @3755
    _ZN4inet13physicallayer20Ieee80211PhyPreambleC1Ev @3756
    _ZN4inet13physicallayer20Ieee80211PhyPreambleC2ERKS1_ @3757
    _ZN4inet13physicallayer20Ieee80211PhyPreambleC2Ev @3758
    _ZN4inet13physicallayer20Ieee80211PhyPreambleD0Ev @3759
    _ZN4inet13physicallayer20Ieee80211PhyPreambleD1Ev @3760
    _ZN4inet13physicallayer20Ieee80211PhyPreambleD2Ev @3761
    _ZN4inet13physicallayer20Ieee80211PhyPreambleaSERKS1_ @3762
    _ZN4inet13physicallayer20Ieee80211VhtDataModeC1EPKNS0_15Ieee80211VhtmcsENS_5units5valueIdNS5_3powINS5_5units1sELin1ELi1EEEEENS0_20Ieee80211VhtModeBase17GuardIntervalTypeE @3763
    _ZN4inet13physicallayer20Ieee80211VhtDataModeC2EPKNS0_15Ieee80211VhtmcsENS_5units5valueIdNS5_3powINS5_5units1sELin1ELi1EEEEENS0_20Ieee80211VhtModeBase17GuardIntervalTypeE @3764
    _ZN4inet13physicallayer20Ieee80211VhtModeBaseC2EjjNS_5units5valueIdNS2_3powINS2_5units1sELin1ELi1EEEEENS1_17GuardIntervalTypeE @3765
    _ZN4inet13physicallayer20Ieee80211VhtmcsTable18vhtMcs0BW20MHzNss1E @3766 DATA
    _ZN4inet13physicallayer20Ieee80211VhtmcsTable18vhtMcs0BW20MHzNss2E @3767 DATA
    _ZN4inet13physicallayer20Ieee80211VhtmcsTable18vhtMcs0BW20MHzNss3E @3768 DATA
    _ZN4inet13physicallayer20Ieee80211VhtmcsTable18vhtMcs0BW20MHzNss4E @3769 DATA
    _ZN4inet13physicallayer20Ieee80211VhtmcsTable18vhtMcs0BW20MHzNss5E @3770 DATA
    _ZN4inet13physicallayer20Ieee80211VhtmcsTable18vhtMcs0BW20MHzNss6E @3771 DATA
    _ZN4inet13physicallayer20Ieee80211VhtmcsTable18vhtMcs0BW20MHzNss7E @3772 DATA
    _ZN4inet13physicallayer20Ieee80211VhtmcsTable18vhtMcs0BW20MHzNss8E @3773 DATA
    _ZN4inet13physicallayer20Ieee80211VhtmcsTable18vhtMcs0BW40MHzNss1E @3774 DATA
    _ZN4inet13physicallayer20Ieee80211VhtmcsTable18vhtMcs0BW40MHzNss2E @3775 DATA
    _ZN4inet13physicallayer20Ieee80211VhtmcsTable18vhtMcs0BW40MHzNss3E @3776 DATA
    _ZN4inet13physicallayer20Ieee80211VhtmcsTable18vhtMcs0BW40MHzNss4E @3777 DATA
    _ZN4inet13physicallayer20Ieee80211VhtmcsTable18vhtMcs0BW40MHzNss5E @3778 DATA
    _ZN4inet13physicallayer20Ieee80211VhtmcsTable18vhtMcs0BW40MHzNss6E @3779 DATA
    _ZN4inet13physicallayer20Ieee80211VhtmcsTable18vhtMcs0BW40MHzNss7E @3780 DATA
    _ZN4inet13physicallayer20Ieee80211VhtmcsTable18vhtMcs0BW40MHzNss8E @3781 DATA
    _ZN4inet13physicallayer20Ieee80211VhtmcsTable18vhtMcs0BW80MHzNss1E @3782 DATA
    _ZN4inet13physicallayer20Ieee80211VhtmcsTable18vhtMcs0BW80MHzNss2E @3783 DATA
    _ZN4inet13physicallayer20Ieee80211VhtmcsTable18vhtMcs0BW80MHzNss3E @3784 DATA
    _ZN4inet13physicallayer20Ieee80211VhtmcsTable18vhtMcs0BW80MHzNss4E @3785 DATA
    _ZN4inet13physicallayer20Ieee80211VhtmcsTable18vhtMcs0BW80MHzNss5E @3786 DATA
    _ZN4inet13physicallayer20Ieee80211VhtmcsTable18vhtMcs0BW80MHzNss6E @3787 DATA
    _ZN4inet13physicallayer20Ieee80211VhtmcsTable18vhtMcs0BW80MHzNss7E @3788 DATA
    _ZN4inet13physicallayer20Ieee80211VhtmcsTable18vhtMcs0BW80MHzNss8E @3789 DATA
    _ZN4inet13physicallayer20Ieee80211VhtmcsTable18vhtMcs1BW20MHzNss1E @3790 DATA
    _ZN4inet13physicallayer20Ieee80211VhtmcsTable18vhtMcs1BW20MHzNss2E @3791 DATA
    _ZN4inet13physicallayer20Ieee80211VhtmcsTable18vhtMcs1BW20MHzNss3E @3792 DATA
    _ZN4inet13physicallayer20Ieee80211VhtmcsTable18vhtMcs1BW20MHzNss4E @3793 DATA
    _ZN4inet13physicallayer20Ieee80211VhtmcsTable18vhtMcs1BW20MHzNss5E @3794 DATA
    _ZN4inet13physicallayer20Ieee80211VhtmcsTable18vhtMcs1BW20MHzNss6E @3795 DATA
    _ZN4inet13physicallayer20Ieee80211VhtmcsTable18vhtMcs1BW20MHzNss7E @3796 DATA
    _ZN4inet13physicallayer20Ieee80211VhtmcsTable18vhtMcs1BW20MHzNss8E @3797 DATA
    _ZN4inet13physicallayer20Ieee80211VhtmcsTable18vhtMcs1BW40MHzNss1E @3798 DATA
    _ZN4inet13physicallayer20Ieee80211VhtmcsTable18vhtMcs1BW40MHzNss2E @3799 DATA
    _ZN4inet13physicallayer20Ieee80211VhtmcsTable18vhtMcs1BW40MHzNss3E @3800 DATA
    _ZN4inet13physicallayer20Ieee80211VhtmcsTable18vhtMcs1BW40MHzNss4E @3801 DATA
    _ZN4inet13physicallayer20Ieee80211VhtmcsTable18vhtMcs1BW40MHzNss5E @3802 DATA
    _ZN4inet13physicallayer20Ieee80211VhtmcsTable18vhtMcs1BW40MHzNss6E @3803 DATA
    _ZN4inet13physicallayer20Ieee80211VhtmcsTable18vhtMcs1BW40MHzNss7E @3804 DATA
    _ZN4inet13physicallayer20Ieee80211VhtmcsTable18vhtMcs1BW40MHzNss8E @3805 DATA
    _ZN4inet13physicallayer20Ieee80211VhtmcsTable18vhtMcs1BW80MHzNss1E @3806 DATA
    _ZN4inet13physicallayer20Ieee80211VhtmcsTable18vhtMcs1BW80MHzNss2E @3807 DATA
    _ZN4inet13physicallayer20Ieee80211VhtmcsTable18vhtMcs1BW80MHzNss3E @3808 DATA
    _ZN4inet13physicallayer20Ieee80211VhtmcsTable18vhtMcs1BW80MHzNss4E @3809 DATA
    _ZN4inet13physicallayer20Ieee80211VhtmcsTable18vhtMcs1BW80MHzNss5E @3810 DATA
    _ZN4inet13physicallayer20Ieee80211VhtmcsTable18vhtMcs1BW80MHzNss6E @3811 DATA
    _ZN4inet13physicallayer20Ieee80211VhtmcsTable18vhtMcs1BW80MHzNss7E @3812 DATA
    _ZN4inet13physicallayer20Ieee80211VhtmcsTable18vhtMcs1BW80MHzNss8E @3813 DATA
    _ZN4inet13physicallayer20Ieee80211VhtmcsTable18vhtMcs2BW20MHzNss1E @3814 DATA
    _ZN4inet13physicallayer20Ieee80211VhtmcsTable18vhtMcs2BW20MHzNss2E @3815 DATA
    _ZN4inet13physicallayer20Ieee80211VhtmcsTable18vhtMcs2BW20MHzNss3E @3816 DATA
    _ZN4inet13physicallayer20Ieee80211VhtmcsTable18vhtMcs2BW20MHzNss4E @3817 DATA
    _ZN4inet13physicallayer20Ieee80211VhtmcsTable18vhtMcs2BW20MHzNss5E @3818 DATA
    _ZN4inet13physicallayer20Ieee80211VhtmcsTable18vhtMcs2BW20MHzNss6E @3819 DATA
    _ZN4inet13physicallayer20Ieee80211VhtmcsTable18vhtMcs2BW20MHzNss7E @3820 DATA
    _ZN4inet13physicallayer20Ieee80211VhtmcsTable18vhtMcs2BW20MHzNss8E @3821 DATA
    _ZN4inet13physicallayer20Ieee80211VhtmcsTable18vhtMcs2BW40MHzNss1E @3822 DATA
    _ZN4inet13physicallayer20Ieee80211VhtmcsTable18vhtMcs2BW40MHzNss2E @3823 DATA
    _ZN4inet13physicallayer20Ieee80211VhtmcsTable18vhtMcs2BW40MHzNss3E @3824 DATA
    _ZN4inet13physicallayer20Ieee80211VhtmcsTable18vhtMcs2BW40MHzNss4E @3825 DATA
    _ZN4inet13physicallayer20Ieee80211VhtmcsTable18vhtMcs2BW40MHzNss5E @3826 DATA
    _ZN4inet13physicallayer20Ieee80211VhtmcsTable18vhtMcs2BW40MHzNss6E @3827 DATA
    _ZN4inet13physicallayer20Ieee80211VhtmcsTable18vhtMcs2BW40MHzNss7E @3828 DATA
    _ZN4inet13physicallayer20Ieee80211VhtmcsTable18vhtMcs2BW40MHzNss8E @3829 DATA
    _ZN4inet13physicallayer20Ieee80211VhtmcsTable18vhtMcs2BW80MHzNss1E @3830 DATA
    _ZN4inet13physicallayer20Ieee80211VhtmcsTable18vhtMcs2BW80MHzNss2E @3831 DATA
    _ZN4inet13physicallayer20Ieee80211VhtmcsTable18vhtMcs2BW80MHzNss3E @3832 DATA
    _ZN4inet13physicallayer20Ieee80211VhtmcsTable18vhtMcs2BW80MHzNss4E @3833 DATA
    _ZN4inet13physicallayer20Ieee80211VhtmcsTable18vhtMcs2BW80MHzNss5E @3834 DATA
    _ZN4inet13physicallayer20Ieee80211VhtmcsTable18vhtMcs2BW80MHzNss6E @3835 DATA
    _ZN4inet13physicallayer20Ieee80211VhtmcsTable18vhtMcs2BW80MHzNss7E @3836 DATA
    _ZN4inet13physicallayer20Ieee80211VhtmcsTable18vhtMcs2BW80MHzNss8E @3837 DATA
    _ZN4inet13physicallayer20Ieee80211VhtmcsTable18vhtMcs3BW20MHzNss1E @3838 DATA
    _ZN4inet13physicallayer20Ieee80211VhtmcsTable18vhtMcs3BW20MHzNss2E @3839 DATA
    _ZN4inet13physicallayer20Ieee80211VhtmcsTable18vhtMcs3BW20MHzNss3E @3840 DATA
    _ZN4inet13physicallayer20Ieee80211VhtmcsTable18vhtMcs3BW20MHzNss4E @3841 DATA
    _ZN4inet13physicallayer20Ieee80211VhtmcsTable18vhtMcs3BW20MHzNss5E @3842 DATA
    _ZN4inet13physicallayer20Ieee80211VhtmcsTable18vhtMcs3BW20MHzNss6E @3843 DATA
    _ZN4inet13physicallayer20Ieee80211VhtmcsTable18vhtMcs3BW20MHzNss7E @3844 DATA
    _ZN4inet13physicallayer20Ieee80211VhtmcsTable18vhtMcs3BW20MHzNss8E @3845 DATA
    _ZN4inet13physicallayer20Ieee80211VhtmcsTable18vhtMcs3BW40MHzNss1E @3846 DATA
    _ZN4inet13physicallayer20Ieee80211VhtmcsTable18vhtMcs3BW40MHzNss2E @3847 DATA
    _ZN4inet13physicallayer20Ieee80211VhtmcsTable18vhtMcs3BW40MHzNss3E @3848 DATA
    _ZN4inet13physicallayer20Ieee80211VhtmcsTable18vhtMcs3BW40MHzNss4E @3849 DATA
    _ZN4inet13physicallayer20Ieee80211VhtmcsTable18vhtMcs3BW40MHzNss5E @3850 DATA
    _ZN4inet13physicallayer20Ieee80211VhtmcsTable18vhtMcs3BW40MHzNss6E @3851 DATA
    _ZN4inet13physicallayer20Ieee80211VhtmcsTable18vhtMcs3BW40MHzNss7E @3852 DATA
    _ZN4inet13physicallayer20Ieee80211VhtmcsTable18vhtMcs3BW40MHzNss8E @3853 DATA
    _ZN4inet13physicallayer20Ieee80211VhtmcsTable18vhtMcs3BW80MHzNss1E @3854 DATA
    _ZN4inet13physicallayer20Ieee80211VhtmcsTable18vhtMcs3BW80MHzNss2E @3855 DATA
    _ZN4inet13physicallayer20Ieee80211VhtmcsTable18vhtMcs3BW80MHzNss3E @3856 DATA
    _ZN4inet13physicallayer20Ieee80211VhtmcsTable18vhtMcs3BW80MHzNss4E @3857 DATA
    _ZN4inet13physicallayer20Ieee80211VhtmcsTable18vhtMcs3BW80MHzNss5E @3858 DATA
    _ZN4inet13physicallayer20Ieee80211VhtmcsTable18vhtMcs3BW80MHzNss6E @3859 DATA
    _ZN4inet13physicallayer20Ieee80211VhtmcsTable18vhtMcs3BW80MHzNss7E @3860 DATA
    _ZN4inet13physicallayer20Ieee80211VhtmcsTable18vhtMcs3BW80MHzNss8E @3861 DATA
    _ZN4inet13physicallayer20Ieee80211VhtmcsTable18vhtMcs4BW20MHzNss1E @3862 DATA
    _ZN4inet13physicallayer20Ieee80211VhtmcsTable18vhtMcs4BW20MHzNss2E @3863 DATA
    _ZN4inet13physicallayer20Ieee80211VhtmcsTable18vhtMcs4BW20MHzNss3E @3864 DATA
    _ZN4inet13physicallayer20Ieee80211VhtmcsTable18vhtMcs4BW20MHzNss4E @3865 DATA
    _ZN4inet13physicallayer20Ieee80211VhtmcsTable18vhtMcs4BW20MHzNss5E @3866 DATA
    _ZN4inet13physicallayer20Ieee80211VhtmcsTable18vhtMcs4BW20MHzNss6E @3867 DATA
    _ZN4inet13physicallayer20Ieee80211VhtmcsTable18vhtMcs4BW20MHzNss7E @3868 DATA
    _ZN4inet13physicallayer20Ieee80211VhtmcsTable18vhtMcs4BW20MHzNss8E @3869 DATA
    _ZN4inet13physicallayer20Ieee80211VhtmcsTable18vhtMcs4BW40MHzNss1E @3870 DATA
    _ZN4inet13physicallayer20Ieee80211VhtmcsTable18vhtMcs4BW40MHzNss2E @3871 DATA
    _ZN4inet13physicallayer20Ieee80211VhtmcsTable18vhtMcs4BW40MHzNss3E @3872 DATA
    _ZN4inet13physicallayer20Ieee80211VhtmcsTable18vhtMcs4BW40MHzNss4E @3873 DATA
    _ZN4inet13physicallayer20Ieee80211VhtmcsTable18vhtMcs4BW40MHzNss5E @3874 DATA
    _ZN4inet13physicallayer20Ieee80211VhtmcsTable18vhtMcs4BW40MHzNss6E @3875 DATA
    _ZN4inet13physicallayer20Ieee80211VhtmcsTable18vhtMcs4BW40MHzNss7E @3876 DATA
    _ZN4inet13physicallayer20Ieee80211VhtmcsTable18vhtMcs4BW40MHzNss8E @3877 DATA
    _ZN4inet13physicallayer20Ieee80211VhtmcsTable18vhtMcs4BW80MHzNss1E @3878 DATA
    _ZN4inet13physicallayer20Ieee80211VhtmcsTable18vhtMcs4BW80MHzNss2E @3879 DATA
    _ZN4inet13physicallayer20Ieee80211VhtmcsTable18vhtMcs4BW80MHzNss3E @3880 DATA
    _ZN4inet13physicallayer20Ieee80211VhtmcsTable18vhtMcs4BW80MHzNss4E @3881 DATA
    _ZN4inet13physicallayer20Ieee80211VhtmcsTable18vhtMcs4BW80MHzNss5E @3882 DATA
    _ZN4inet13physicallayer20Ieee80211VhtmcsTable18vhtMcs4BW80MHzNss6E @3883 DATA
    _ZN4inet13physicallayer20Ieee80211VhtmcsTable18vhtMcs4BW80MHzNss7E @3884 DATA
    _ZN4inet13physicallayer20Ieee80211VhtmcsTable18vhtMcs4BW80MHzNss8E @3885 DATA
    _ZN4inet13physicallayer20Ieee80211VhtmcsTable18vhtMcs5BW20MHzNss1E @3886 DATA
    _ZN4inet13physicallayer20Ieee80211VhtmcsTable18vhtMcs5BW20MHzNss2E @3887 DATA
    _ZN4inet13physicallayer20Ieee80211VhtmcsTable18vhtMcs5BW20MHzNss3E @3888 DATA
    _ZN4inet13physicallayer20Ieee80211VhtmcsTable18vhtMcs5BW20MHzNss4E @3889 DATA
    _ZN4inet13physicallayer20Ieee80211VhtmcsTable18vhtMcs5BW20MHzNss5E @3890 DATA
    _ZN4inet13physicallayer20Ieee80211VhtmcsTable18vhtMcs5BW20MHzNss6E @3891 DATA
    _ZN4inet13physicallayer20Ieee80211VhtmcsTable18vhtMcs5BW20MHzNss7E @3892 DATA
    _ZN4inet13physicallayer20Ieee80211VhtmcsTable18vhtMcs5BW20MHzNss8E @3893 DATA
    _ZN4inet13physicallayer20Ieee80211VhtmcsTable18vhtMcs5BW40MHzNss1E @3894 DATA
    _ZN4inet13physicallayer20Ieee80211VhtmcsTable18vhtMcs5BW40MHzNss2E @3895 DATA
    _ZN4inet13physicallayer20Ieee80211VhtmcsTable18vhtMcs5BW40MHzNss3E @3896 DATA
    _ZN4inet13physicallayer20Ieee80211VhtmcsTable18vhtMcs5BW40MHzNss4E @3897 DATA
    _ZN4inet13physicallayer20Ieee80211VhtmcsTable18vhtMcs5BW40MHzNss5E @3898 DATA
    _ZN4inet13physicallayer20Ieee80211VhtmcsTable18vhtMcs5BW40MHzNss6E @3899 DATA
    _ZN4inet13physicallayer20Ieee80211VhtmcsTable18vhtMcs5BW40MHzNss7E @3900 DATA
    _ZN4inet13physicallayer20Ieee80211VhtmcsTable18vhtMcs5BW40MHzNss8E @3901 DATA
    _ZN4inet13physicallayer20Ieee80211VhtmcsTable18vhtMcs5BW80MHzNss1E @3902 DATA
    _ZN4inet13physicallayer20Ieee80211VhtmcsTable18vhtMcs5BW80MHzNss2E @3903 DATA
    _ZN4inet13physicallayer20Ieee80211VhtmcsTable18vhtMcs5BW80MHzNss3E @3904 DATA
    _ZN4inet13physicallayer20Ieee80211VhtmcsTable18vhtMcs5BW80MHzNss4E @3905 DATA
    _ZN4inet13physicallayer20Ieee80211VhtmcsTable18vhtMcs5BW80MHzNss5E @3906 DATA
    _ZN4inet13physicallayer20Ieee80211VhtmcsTable18vhtMcs5BW80MHzNss6E @3907 DATA
    _ZN4inet13physicallayer20Ieee80211VhtmcsTable18vhtMcs5BW80MHzNss7E @3908 DATA
    _ZN4inet13physicallayer20Ieee80211VhtmcsTable18vhtMcs5BW80MHzNss8E @3909 DATA
    _ZN4inet13physicallayer20Ieee80211VhtmcsTable18vhtMcs6BW20MHzNss1E @3910 DATA
    _ZN4inet13physicallayer20Ieee80211VhtmcsTable18vhtMcs6BW20MHzNss2E @3911 DATA
    _ZN4inet13physicallayer20Ieee80211VhtmcsTable18vhtMcs6BW20MHzNss3E @3912 DATA
    _ZN4inet13physicallayer20Ieee80211VhtmcsTable18vhtMcs6BW20MHzNss4E @3913 DATA
    _ZN4inet13physicallayer20Ieee80211VhtmcsTable18vhtMcs6BW20MHzNss5E @3914 DATA
    _ZN4inet13physicallayer20Ieee80211VhtmcsTable18vhtMcs6BW20MHzNss6E @3915 DATA
    _ZN4inet13physicallayer20Ieee80211VhtmcsTable18vhtMcs6BW20MHzNss7E @3916 DATA
    _ZN4inet13physicallayer20Ieee80211VhtmcsTable18vhtMcs6BW20MHzNss8E @3917 DATA
    _ZN4inet13physicallayer20Ieee80211VhtmcsTable18vhtMcs6BW40MHzNss1E @3918 DATA
    _ZN4inet13physicallayer20Ieee80211VhtmcsTable18vhtMcs6BW40MHzNss2E @3919 DATA
    _ZN4inet13physicallayer20Ieee80211VhtmcsTable18vhtMcs6BW40MHzNss3E @3920 DATA
    _ZN4inet13physicallayer20Ieee80211VhtmcsTable18vhtMcs6BW40MHzNss4E @3921 DATA
    _ZN4inet13physicallayer20Ieee80211VhtmcsTable18vhtMcs6BW40MHzNss5E @3922 DATA
    _ZN4inet13physicallayer20Ieee80211VhtmcsTable18vhtMcs6BW40MHzNss6E @3923 DATA
    _ZN4inet13physicallayer20Ieee80211VhtmcsTable18vhtMcs6BW40MHzNss7E @3924 DATA
    _ZN4inet13physicallayer20Ieee80211VhtmcsTable18vhtMcs6BW40MHzNss8E @3925 DATA
    _ZN4inet13physicallayer20Ieee80211VhtmcsTable18vhtMcs6BW80MHzNss1E @3926 DATA
    _ZN4inet13physicallayer20Ieee80211VhtmcsTable18vhtMcs6BW80MHzNss2E @3927 DATA
    _ZN4inet13physicallayer20Ieee80211VhtmcsTable18vhtMcs6BW80MHzNss3E @3928 DATA
    _ZN4inet13physicallayer20Ieee80211VhtmcsTable18vhtMcs6BW80MHzNss4E @3929 DATA
    _ZN4inet13physicallayer20Ieee80211VhtmcsTable18vhtMcs6BW80MHzNss5E @3930 DATA
    _ZN4inet13physicallayer20Ieee80211VhtmcsTable18vhtMcs6BW80MHzNss6E @3931 DATA
    _ZN4inet13physicallayer20Ieee80211VhtmcsTable18vhtMcs6BW80MHzNss7E @3932 DATA
    _ZN4inet13physicallayer20Ieee80211VhtmcsTable18vhtMcs6BW80MHzNss8E @3933 DATA
    _ZN4inet13physicallayer20Ieee80211VhtmcsTable18vhtMcs7BW20MHzNss1E @3934 DATA
    _ZN4inet13physicallayer20Ieee80211VhtmcsTable18vhtMcs7BW20MHzNss2E @3935 DATA
    _ZN4inet13physicallayer20Ieee80211VhtmcsTable18vhtMcs7BW20MHzNss3E @3936 DATA
    _ZN4inet13physicallayer20Ieee80211VhtmcsTable18vhtMcs7BW20MHzNss4E @3937 DATA
    _ZN4inet13physicallayer20Ieee80211VhtmcsTable18vhtMcs7BW20MHzNss5E @3938 DATA
    _ZN4inet13physicallayer20Ieee80211VhtmcsTable18vhtMcs7BW20MHzNss6E @3939 DATA
    _ZN4inet13physicallayer20Ieee80211VhtmcsTable18vhtMcs7BW20MHzNss7E @3940 DATA
    _ZN4inet13physicallayer20Ieee80211VhtmcsTable18vhtMcs7BW20MHzNss8E @3941 DATA
    _ZN4inet13physicallayer20Ieee80211VhtmcsTable18vhtMcs7BW40MHzNss1E @3942 DATA
    _ZN4inet13physicallayer20Ieee80211VhtmcsTable18vhtMcs7BW40MHzNss2E @3943 DATA
    _ZN4inet13physicallayer20Ieee80211VhtmcsTable18vhtMcs7BW40MHzNss3E @3944 DATA
    _ZN4inet13physicallayer20Ieee80211VhtmcsTable18vhtMcs7BW40MHzNss4E @3945 DATA
    _ZN4inet13physicallayer20Ieee80211VhtmcsTable18vhtMcs7BW40MHzNss5E @3946 DATA
    _ZN4inet13physicallayer20Ieee80211VhtmcsTable18vhtMcs7BW40MHzNss6E @3947 DATA
    _ZN4inet13physicallayer20Ieee80211VhtmcsTable18vhtMcs7BW40MHzNss7E @3948 DATA
    _ZN4inet13physicallayer20Ieee80211VhtmcsTable18vhtMcs7BW40MHzNss8E @3949 DATA
    _ZN4inet13physicallayer20Ieee80211VhtmcsTable18vhtMcs7BW80MHzNss1E @3950 DATA
    _ZN4inet13physicallayer20Ieee80211VhtmcsTable18vhtMcs7BW80MHzNss2E @3951 DATA
    _ZN4inet13physicallayer20Ieee80211VhtmcsTable18vhtMcs7BW80MHzNss3E @3952 DATA
    _ZN4inet13physicallayer20Ieee80211VhtmcsTable18vhtMcs7BW80MHzNss4E @3953 DATA
    _ZN4inet13physicallayer20Ieee80211VhtmcsTable18vhtMcs7BW80MHzNss5E @3954 DATA
    _ZN4inet13physicallayer20Ieee80211VhtmcsTable18vhtMcs7BW80MHzNss6E @3955 DATA
    _ZN4inet13physicallayer20Ieee80211VhtmcsTable18vhtMcs7BW80MHzNss7E @3956 DATA
    _ZN4inet13physicallayer20Ieee80211VhtmcsTable18vhtMcs7BW80MHzNss8E @3957 DATA
    _ZN4inet13physicallayer20Ieee80211VhtmcsTable18vhtMcs8BW20MHzNss1E @3958 DATA
    _ZN4inet13physicallayer20Ieee80211VhtmcsTable18vhtMcs8BW20MHzNss2E @3959 DATA
    _ZN4inet13physicallayer20Ieee80211VhtmcsTable18vhtMcs8BW20MHzNss3E @3960 DATA
    _ZN4inet13physicallayer20Ieee80211VhtmcsTable18vhtMcs8BW20MHzNss4E @3961 DATA
    _ZN4inet13physicallayer20Ieee80211VhtmcsTable18vhtMcs8BW20MHzNss5E @3962 DATA
    _ZN4inet13physicallayer20Ieee80211VhtmcsTable18vhtMcs8BW20MHzNss6E @3963 DATA
    _ZN4inet13physicallayer20Ieee80211VhtmcsTable18vhtMcs8BW20MHzNss7E @3964 DATA
    _ZN4inet13physicallayer20Ieee80211VhtmcsTable18vhtMcs8BW20MHzNss8E @3965 DATA
    _ZN4inet13physicallayer20Ieee80211VhtmcsTable18vhtMcs8BW40MHzNss1E @3966 DATA
    _ZN4inet13physicallayer20Ieee80211VhtmcsTable18vhtMcs8BW40MHzNss2E @3967 DATA
    _ZN4inet13physicallayer20Ieee80211VhtmcsTable18vhtMcs8BW40MHzNss3E @3968 DATA
    _ZN4inet13physicallayer20Ieee80211VhtmcsTable18vhtMcs8BW40MHzNss4E @3969 DATA
    _ZN4inet13physicallayer20Ieee80211VhtmcsTable18vhtMcs8BW40MHzNss5E @3970 DATA
    _ZN4inet13physicallayer20Ieee80211VhtmcsTable18vhtMcs8BW40MHzNss6E @3971 DATA
    _ZN4inet13physicallayer20Ieee80211VhtmcsTable18vhtMcs8BW40MHzNss7E @3972 DATA
    _ZN4inet13physicallayer20Ieee80211VhtmcsTable18vhtMcs8BW40MHzNss8E @3973 DATA
    _ZN4inet13physicallayer20Ieee80211VhtmcsTable18vhtMcs8BW80MHzNss1E @3974 DATA
    _ZN4inet13physicallayer20Ieee80211VhtmcsTable18vhtMcs8BW80MHzNss2E @3975 DATA
    _ZN4inet13physicallayer20Ieee80211VhtmcsTable18vhtMcs8BW80MHzNss3E @3976 DATA
    _ZN4inet13physicallayer20Ieee80211VhtmcsTable18vhtMcs8BW80MHzNss4E @3977 DATA
    _ZN4inet13physicallayer20Ieee80211VhtmcsTable18vhtMcs8BW80MHzNss5E @3978 DATA
    _ZN4inet13physicallayer20Ieee80211VhtmcsTable18vhtMcs8BW80MHzNss6E @3979 DATA
    _ZN4inet13physicallayer20Ieee80211VhtmcsTable18vhtMcs8BW80MHzNss7E @3980 DATA
    _ZN4inet13physicallayer20Ieee80211VhtmcsTable18vhtMcs8BW80MHzNss8E @3981 DATA
    _ZN4inet13physicallayer20Ieee80211VhtmcsTable18vhtMcs9BW20MHzNss1E @3982 DATA
    _ZN4inet13physicallayer20Ieee80211VhtmcsTable18vhtMcs9BW20MHzNss2E @3983 DATA
    _ZN4inet13physicallayer20Ieee80211VhtmcsTable18vhtMcs9BW20MHzNss3E @3984 DATA
    _ZN4inet13physicallayer20Ieee80211VhtmcsTable18vhtMcs9BW20MHzNss4E @3985 DATA
    _ZN4inet13physicallayer20Ieee80211VhtmcsTable18vhtMcs9BW20MHzNss5E @3986 DATA
    _ZN4inet13physicallayer20Ieee80211VhtmcsTable18vhtMcs9BW20MHzNss6E @3987 DATA
    _ZN4inet13physicallayer20Ieee80211VhtmcsTable18vhtMcs9BW20MHzNss7E @3988 DATA
    _ZN4inet13physicallayer20Ieee80211VhtmcsTable18vhtMcs9BW20MHzNss8E @3989 DATA
    _ZN4inet13physicallayer20Ieee80211VhtmcsTable18vhtMcs9BW40MHzNss1E @3990 DATA
    _ZN4inet13physicallayer20Ieee80211VhtmcsTable18vhtMcs9BW40MHzNss2E @3991 DATA
    _ZN4inet13physicallayer20Ieee80211VhtmcsTable18vhtMcs9BW40MHzNss3E @3992 DATA
    _ZN4inet13physicallayer20Ieee80211VhtmcsTable18vhtMcs9BW40MHzNss4E @3993 DATA
    _ZN4inet13physicallayer20Ieee80211VhtmcsTable18vhtMcs9BW40MHzNss5E @3994 DATA
    _ZN4inet13physicallayer20Ieee80211VhtmcsTable18vhtMcs9BW40MHzNss6E @3995 DATA
    _ZN4inet13physicallayer20Ieee80211VhtmcsTable18vhtMcs9BW40MHzNss7E @3996 DATA
    _ZN4inet13physicallayer20Ieee80211VhtmcsTable18vhtMcs9BW40MHzNss8E @3997 DATA
    _ZN4inet13physicallayer20Ieee80211VhtmcsTable18vhtMcs9BW80MHzNss1E @3998 DATA
    _ZN4inet13physicallayer20Ieee80211VhtmcsTable18vhtMcs9BW80MHzNss2E @3999 DATA
    _ZN4inet13physicallayer20Ieee80211VhtmcsTable18vhtMcs9BW80MHzNss3E @4000 DATA
    _ZN4inet13physicallayer20Ieee80211VhtmcsTable18vhtMcs9BW80MHzNss4E @4001 DATA
    _ZN4inet13physicallayer20Ieee80211VhtmcsTable18vhtMcs9BW80MHzNss5E @4002 DATA
    _ZN4inet13physicallayer20Ieee80211VhtmcsTable18vhtMcs9BW80MHzNss6E @4003 DATA
    _ZN4inet13physicallayer20Ieee80211VhtmcsTable18vhtMcs9BW80MHzNss7E @4004 DATA
    _ZN4inet13physicallayer20Ieee80211VhtmcsTable18vhtMcs9BW80MHzNss8E @4005 DATA
    _ZN4inet13physicallayer20Ieee80211VhtmcsTable19vhtMcs0BW160MHzNss1E @4006 DATA
    _ZN4inet13physicallayer20Ieee80211VhtmcsTable19vhtMcs0BW160MHzNss2E @4007 DATA
    _ZN4inet13physicallayer20Ieee80211VhtmcsTable19vhtMcs0BW160MHzNss3E @4008 DATA
    _ZN4inet13physicallayer20Ieee80211VhtmcsTable19vhtMcs0BW160MHzNss4E @4009 DATA
    _ZN4inet13physicallayer20Ieee80211VhtmcsTable19vhtMcs0BW160MHzNss5E @4010 DATA
    _ZN4inet13physicallayer20Ieee80211VhtmcsTable19vhtMcs0BW160MHzNss6E @4011 DATA
    _ZN4inet13physicallayer20Ieee80211VhtmcsTable19vhtMcs0BW160MHzNss7E @4012 DATA
    _ZN4inet13physicallayer20Ieee80211VhtmcsTable19vhtMcs0BW160MHzNss8E @4013 DATA
    _ZN4inet13physicallayer20Ieee80211VhtmcsTable19vhtMcs1BW160MHzNss1E @4014 DATA
    _ZN4inet13physicallayer20Ieee80211VhtmcsTable19vhtMcs1BW160MHzNss2E @4015 DATA
    _ZN4inet13physicallayer20Ieee80211VhtmcsTable19vhtMcs1BW160MHzNss3E @4016 DATA
    _ZN4inet13physicallayer20Ieee80211VhtmcsTable19vhtMcs1BW160MHzNss4E @4017 DATA
    _ZN4inet13physicallayer20Ieee80211VhtmcsTable19vhtMcs1BW160MHzNss5E @4018 DATA
    _ZN4inet13physicallayer20Ieee80211VhtmcsTable19vhtMcs1BW160MHzNss6E @4019 DATA
    _ZN4inet13physicallayer20Ieee80211VhtmcsTable19vhtMcs1BW160MHzNss7E @4020 DATA
    _ZN4inet13physicallayer20Ieee80211VhtmcsTable19vhtMcs1BW160MHzNss8E @4021 DATA
    _ZN4inet13physicallayer20Ieee80211VhtmcsTable19vhtMcs2BW160MHzNss1E @4022 DATA
    _ZN4inet13physicallayer20Ieee80211VhtmcsTable19vhtMcs2BW160MHzNss2E @4023 DATA
    _ZN4inet13physicallayer20Ieee80211VhtmcsTable19vhtMcs2BW160MHzNss3E @4024 DATA
    _ZN4inet13physicallayer20Ieee80211VhtmcsTable19vhtMcs2BW160MHzNss4E @4025 DATA
    _ZN4inet13physicallayer20Ieee80211VhtmcsTable19vhtMcs2BW160MHzNss5E @4026 DATA
    _ZN4inet13physicallayer20Ieee80211VhtmcsTable19vhtMcs2BW160MHzNss6E @4027 DATA
    _ZN4inet13physicallayer20Ieee80211VhtmcsTable19vhtMcs2BW160MHzNss7E @4028 DATA
    _ZN4inet13physicallayer20Ieee80211VhtmcsTable19vhtMcs2BW160MHzNss8E @4029 DATA
    _ZN4inet13physicallayer20Ieee80211VhtmcsTable19vhtMcs3BW160MHzNss1E @4030 DATA
    _ZN4inet13physicallayer20Ieee80211VhtmcsTable19vhtMcs3BW160MHzNss2E @4031 DATA
    _ZN4inet13physicallayer20Ieee80211VhtmcsTable19vhtMcs3BW160MHzNss3E @4032 DATA
    _ZN4inet13physicallayer20Ieee80211VhtmcsTable19vhtMcs3BW160MHzNss4E @4033 DATA
    _ZN4inet13physicallayer20Ieee80211VhtmcsTable19vhtMcs3BW160MHzNss5E @4034 DATA
    _ZN4inet13physicallayer20Ieee80211VhtmcsTable19vhtMcs3BW160MHzNss6E @4035 DATA
    _ZN4inet13physicallayer20Ieee80211VhtmcsTable19vhtMcs3BW160MHzNss7E @4036 DATA
    _ZN4inet13physicallayer20Ieee80211VhtmcsTable19vhtMcs3BW160MHzNss8E @4037 DATA
    _ZN4inet13physicallayer20Ieee80211VhtmcsTable19vhtMcs4BW160MHzNss1E @4038 DATA
    _ZN4inet13physicallayer20Ieee80211VhtmcsTable19vhtMcs4BW160MHzNss2E @4039 DATA
    _ZN4inet13physicallayer20Ieee80211VhtmcsTable19vhtMcs4BW160MHzNss3E @4040 DATA
    _ZN4inet13physicallayer20Ieee80211VhtmcsTable19vhtMcs4BW160MHzNss4E @4041 DATA
    _ZN4inet13physicallayer20Ieee80211VhtmcsTable19vhtMcs4BW160MHzNss5E @4042 DATA
    _ZN4inet13physicallayer20Ieee80211VhtmcsTable19vhtMcs4BW160MHzNss6E @4043 DATA
    _ZN4inet13physicallayer20Ieee80211VhtmcsTable19vhtMcs4BW160MHzNss7E @4044 DATA
    _ZN4inet13physicallayer20Ieee80211VhtmcsTable19vhtMcs4BW160MHzNss8E @4045 DATA
    _ZN4inet13physicallayer20Ieee80211VhtmcsTable19vhtMcs5BW160MHzNss1E @4046 DATA
    _ZN4inet13physicallayer20Ieee80211VhtmcsTable19vhtMcs5BW160MHzNss2E @4047 DATA
    _ZN4inet13physicallayer20Ieee80211VhtmcsTable19vhtMcs5BW160MHzNss3E @4048 DATA
    _ZN4inet13physicallayer20Ieee80211VhtmcsTable19vhtMcs5BW160MHzNss4E @4049 DATA
    _ZN4inet13physicallayer20Ieee80211VhtmcsTable19vhtMcs5BW160MHzNss5E @4050 DATA
    _ZN4inet13physicallayer20Ieee80211VhtmcsTable19vhtMcs5BW160MHzNss6E @4051 DATA
    _ZN4inet13physicallayer20Ieee80211VhtmcsTable19vhtMcs5BW160MHzNss7E @4052 DATA
    _ZN4inet13physicallayer20Ieee80211VhtmcsTable19vhtMcs5BW160MHzNss8E @4053 DATA
    _ZN4inet13physicallayer20Ieee80211VhtmcsTable19vhtMcs6BW160MHzNss1E @4054 DATA
    _ZN4inet13physicallayer20Ieee80211VhtmcsTable19vhtMcs6BW160MHzNss2E @4055 DATA
    _ZN4inet13physicallayer20Ieee80211VhtmcsTable19vhtMcs6BW160MHzNss3E @4056 DATA
    _ZN4inet13physicallayer20Ieee80211VhtmcsTable19vhtMcs6BW160MHzNss4E @4057 DATA
    _ZN4inet13physicallayer20Ieee80211VhtmcsTable19vhtMcs6BW160MHzNss5E @4058 DATA
    _ZN4inet13physicallayer20Ieee80211VhtmcsTable19vhtMcs6BW160MHzNss6E @4059 DATA
    _ZN4inet13physicallayer20Ieee80211VhtmcsTable19vhtMcs6BW160MHzNss7E @4060 DATA
    _ZN4inet13physicallayer20Ieee80211VhtmcsTable19vhtMcs6BW160MHzNss8E @4061 DATA
    _ZN4inet13physicallayer20Ieee80211VhtmcsTable19vhtMcs7BW160MHzNss1E @4062 DATA
    _ZN4inet13physicallayer20Ieee80211VhtmcsTable19vhtMcs7BW160MHzNss2E @4063 DATA
    _ZN4inet13physicallayer20Ieee80211VhtmcsTable19vhtMcs7BW160MHzNss3E @4064 DATA
    _ZN4inet13physicallayer20Ieee80211VhtmcsTable19vhtMcs7BW160MHzNss4E @4065 DATA
    _ZN4inet13physicallayer20Ieee80211VhtmcsTable19vhtMcs7BW160MHzNss5E @4066 DATA
    _ZN4inet13physicallayer20Ieee80211VhtmcsTable19vhtMcs7BW160MHzNss6E @4067 DATA
    _ZN4inet13physicallayer20Ieee80211VhtmcsTable19vhtMcs7BW160MHzNss7E @4068 DATA
    _ZN4inet13physicallayer20Ieee80211VhtmcsTable19vhtMcs7BW160MHzNss8E @4069 DATA
    _ZN4inet13physicallayer20Ieee80211VhtmcsTable19vhtMcs8BW160MHzNss1E @4070 DATA
    _ZN4inet13physicallayer20Ieee80211VhtmcsTable19vhtMcs8BW160MHzNss2E @4071 DATA
    _ZN4inet13physicallayer20Ieee80211VhtmcsTable19vhtMcs8BW160MHzNss3E @4072 DATA
    _ZN4inet13physicallayer20Ieee80211VhtmcsTable19vhtMcs8BW160MHzNss4E @4073 DATA
    _ZN4inet13physicallayer20Ieee80211VhtmcsTable19vhtMcs8BW160MHzNss5E @4074 DATA
    _ZN4inet13physicallayer20Ieee80211VhtmcsTable19vhtMcs8BW160MHzNss6E @4075 DATA
    _ZN4inet13physicallayer20Ieee80211VhtmcsTable19vhtMcs8BW160MHzNss7E @4076 DATA
    _ZN4inet13physicallayer20Ieee80211VhtmcsTable19vhtMcs8BW160MHzNss8E @4077 DATA
    _ZN4inet13physicallayer20Ieee80211VhtmcsTable19vhtMcs9BW160MHzNss1E @4078 DATA
    _ZN4inet13physicallayer20Ieee80211VhtmcsTable19vhtMcs9BW160MHzNss2E @4079 DATA
    _ZN4inet13physicallayer20Ieee80211VhtmcsTable19vhtMcs9BW160MHzNss3E @4080 DATA
    _ZN4inet13physicallayer20Ieee80211VhtmcsTable19vhtMcs9BW160MHzNss4E @4081 DATA
    _ZN4inet13physicallayer20Ieee80211VhtmcsTable19vhtMcs9BW160MHzNss5E @4082 DATA
    _ZN4inet13physicallayer20Ieee80211VhtmcsTable19vhtMcs9BW160MHzNss6E @4083 DATA
    _ZN4inet13physicallayer20Ieee80211VhtmcsTable19vhtMcs9BW160MHzNss7E @4084 DATA
    _ZN4inet13physicallayer20Ieee80211VhtmcsTable19vhtMcs9BW160MHzNss8E @4085 DATA
    _ZN4inet13physicallayer20InterpolatingAntenna10initializeEi @4086
    _ZN4inet13physicallayer20InterpolatingAntennaC1Ev @4087
    _ZN4inet13physicallayer20InterpolatingAntennaC2Ev @4088
    _ZN4inet13physicallayer20ReceptionPacketModelC1EPKNS_6PacketENS_5units5valueIdNS5_7composeINS5_5units1bENS5_3powINS8_1sELin1ELi1EEEEEEE @4089
    _ZN4inet13physicallayer20ReceptionPacketModelC2EPKNS_6PacketENS_5units5valueIdNS5_7composeINS5_5units1bENS5_3powINS8_1sELin1ELi1EEEEEEE @4090
    _ZN4inet13physicallayer20ReceptionSampleModelC1EidPKSt6vectorINS_5units5valueIdNS3_7composeINS5_INS5_INS3_5units1mENS5_INS6_2kgENS3_3powINS6_1sELin2ELi1EEEEEEES7_EENS9_ISA_Lin1ELi1EEEEEEESaISH_EESH_ @4091
    _ZN4inet13physicallayer20ReceptionSampleModelC2EidPKSt6vectorINS_5units5valueIdNS3_7composeINS5_INS5_INS3_5units1mENS5_INS6_2kgENS3_3powINS6_1sELin2ELi1EEEEEEES7_EENS9_ISA_Lin1ELi1EEEEEEESaISH_EESH_ @4092
    _ZN4inet13physicallayer20ReceptionSymbolModelC1EididPKSt6vectorIPKNS0_7ISymbolESaIS5_EE @4093
    _ZN4inet13physicallayer20ReceptionSymbolModelC2EididPKSt6vectorIPKNS0_7ISymbolESaIS5_EE @4094
    _ZN4inet13physicallayer20StochasticErrorModel10initializeEi @4095
    _ZN4inet13physicallayer20StochasticErrorModelC1Ev @4096
    _ZN4inet13physicallayer20StochasticErrorModelC2Ev @4097
    _ZN4inet13physicallayer20TransmissionBitModelC1ENS_5units5valueIxNS2_5units1bEEENS3_IdNS2_7composeIS5_NS2_3powINS4_1sELin1ELi1EEEEEEES6_SC_PKNS_9BitVectorEPKNS0_23IForwardErrorCorrectionEPKNS0_11IScramblingEPKNS0_13IInterleavingE @4098
    _ZN4inet13physicallayer20TransmissionBitModelC1EPKNS_9BitVectorEPKNS0_23IForwardErrorCorrectionEPKNS0_11IScramblingEPKNS0_13IInterleavingE @4099
    _ZN4inet13physicallayer20TransmissionBitModelC2ENS_5units5valueIxNS2_5units1bEEENS3_IdNS2_7composeIS5_NS2_3powINS4_1sELin1ELi1EEEEEEES6_SC_PKNS_9BitVectorEPKNS0_23IForwardErrorCorrectionEPKNS0_11IScramblingEPKNS0_13IInterleavingE @4100
    _ZN4inet13physicallayer20TransmissionBitModelC2EPKNS_9BitVectorEPKNS0_23IForwardErrorCorrectionEPKNS0_11IScramblingEPKNS0_13IInterleavingE @4101
    _ZN4inet13physicallayer20UnitDiskTransmissionC1EPKNS0_6IRadioEPKNS_6PacketEN7omnetpp7SimTimeES9_S9_S9_S9_NS_5CoordESA_NS_10QuaternionESB_NS_5units5valueIdNSC_5units1mEEESG_SG_ @4102
    _ZN4inet13physicallayer20UnitDiskTransmissionC2EPKNS0_6IRadioEPKNS_6PacketEN7omnetpp7SimTimeES9_S9_S9_S9_NS_5CoordESA_NS_10QuaternionESB_NS_5units5valueIdNSC_5units1mEEESG_SG_ @4103
    _ZN4inet13physicallayer21ApskLayeredErrorModelC1Ev @4104
    _ZN4inet13physicallayer21ApskLayeredErrorModelC2Ev @4105
    _ZN4inet13physicallayer21ApskScalarTransmitterC1Ev @4106
    _ZN4inet13physicallayer21ApskScalarTransmitterC2Ev @4107
    _ZN4inet13physicallayer21ConfigureRadioCommand10setBitrateENS_5units5valueIdNS2_7composeINS2_5units1bENS2_3powINS5_1sELin1ELi1EEEEEEE @4108
    _ZN4inet13physicallayer21ConfigureRadioCommand12parsimUnpackEPN7omnetpp11cCommBufferE @4109
    _ZN4inet13physicallayer21ConfigureRadioCommand12setBandwidthENS_5units5valueIdNS2_3powINS2_5units1sELin1ELi1EEEEE @4110
    _ZN4inet13physicallayer21ConfigureRadioCommand12setRadioModeEi @4111
    _ZN4inet13physicallayer21ConfigureRadioCommand13setModulationEPNS0_11IModulationE @4112
    _ZN4inet13physicallayer21ConfigureRadioCommand18setCenterFrequencyENS_5units5valueIdNS2_3powINS2_5units1sELin1ELi1EEEEE @4113
    _ZN4inet13physicallayer21ConfigureRadioCommand4copyERKS1_ @4114
    _ZN4inet13physicallayer21ConfigureRadioCommand8setPowerENS_5units5valueIdNS2_7composeINS4_INS4_INS2_5units1mENS4_INS5_2kgENS2_3powINS5_1sELin2ELi1EEEEEEES6_EENS8_IS9_Lin1ELi1EEEEEEE @4115
    _ZN4inet13physicallayer21ConfigureRadioCommandC1ERKS1_ @4116
    _ZN4inet13physicallayer21ConfigureRadioCommandC1Ev @4117
    _ZN4inet13physicallayer21ConfigureRadioCommandC2ERKS1_ @4118
    _ZN4inet13physicallayer21ConfigureRadioCommandC2Ev @4119
    _ZN4inet13physicallayer21ConfigureRadioCommandD0Ev @4120
    _ZN4inet13physicallayer21ConfigureRadioCommandD1Ev @4121
    _ZN4inet13physicallayer21ConfigureRadioCommandD2Ev @4122
    _ZN4inet13physicallayer21ConfigureRadioCommandaSERKS1_ @4123
    _ZN4inet13physicallayer21DsssOqpsk16Modulation9singletonE @4124 DATA
    _ZN4inet13physicallayer21DsssOqpsk16ModulationC1Ev @4125
    _ZN4inet13physicallayer21DsssOqpsk16ModulationC2Ev @4126
    _ZN4inet13physicallayer21DsssOqpsk16ModulationD0Ev @4127
    _ZN4inet13physicallayer21DsssOqpsk16ModulationD1Ev @4128
    _ZN4inet13physicallayer21DsssOqpsk16ModulationD2Ev @4129
    _ZN4inet13physicallayer21Ieee80211DsssDataModeC1EPKNS0_18DpskModulationBaseE @4130
    _ZN4inet13physicallayer21Ieee80211DsssDataModeC2EPKNS0_18DpskModulationBaseE @4131
    _ZN4inet13physicallayer21Ieee80211DsssOfdmModeC1EPKcPKNS0_25Ieee80211DsssPreambleModeEPKNS0_23Ieee80211DsssHeaderModeEPKNS0_25Ieee80211OfdmPreambleModeEPKNS0_23Ieee80211OfdmSignalModeEPKNS0_21Ieee80211OfdmDataModeE @4132
    _ZN4inet13physicallayer21Ieee80211DsssOfdmModeC2EPKcPKNS0_25Ieee80211DsssPreambleModeEPKNS0_23Ieee80211DsssHeaderModeEPKNS0_25Ieee80211OfdmPreambleModeEPKNS0_23Ieee80211OfdmSignalModeEPKNS0_21Ieee80211OfdmDataModeE @4133
    _ZN4inet13physicallayer21Ieee80211FhssDataModeC1EPKNS0_18GfskModulationBaseE @4134
    _ZN4inet13physicallayer21Ieee80211FhssDataModeC2EPKNS0_18GfskModulationBaseE @4135
    _ZN4inet13physicallayer21Ieee80211HtSignalModeC1EjPKNS0_23Ieee80211OfdmModulationEPKNS0_15Ieee80211HtCodeENS_5units5valueIdNS8_3powINS8_5units1sELin1ELi1EEEEENS0_19Ieee80211HtModeBase17GuardIntervalTypeE @4136
    _ZN4inet13physicallayer21Ieee80211HtSignalModeC1EjPKNS0_23Ieee80211OfdmModulationEPKNS0_26Ieee80211ConvolutionalCodeENS_5units5valueIdNS8_3powINS8_5units1sELin1ELi1EEEEENS0_19Ieee80211HtModeBase17GuardIntervalTypeE @4137
    _ZN4inet13physicallayer21Ieee80211HtSignalModeC2EjPKNS0_23Ieee80211OfdmModulationEPKNS0_15Ieee80211HtCodeENS_5units5valueIdNS8_3powINS8_5units1sELin1ELi1EEEEENS0_19Ieee80211HtModeBase17GuardIntervalTypeE @4138
    _ZN4inet13physicallayer21Ieee80211HtSignalModeC2EjPKNS0_23Ieee80211OfdmModulationEPKNS0_26Ieee80211ConvolutionalCodeENS_5units5valueIdNS8_3powINS8_5units1sELin1ELi1EEEEENS0_19Ieee80211HtModeBase17GuardIntervalTypeE @4139
    _ZN4inet13physicallayer21Ieee80211HtSignalModeD0Ev @4140
    _ZN4inet13physicallayer21Ieee80211HtSignalModeD1Ev @4141
    _ZN4inet13physicallayer21Ieee80211HtSignalModeD2Ev @4142
    _ZN4inet13physicallayer21Ieee80211IrHeaderModeC1EPKNS0_17PpmModulationBaseE @4143
    _ZN4inet13physicallayer21Ieee80211IrHeaderModeC2EPKNS0_17PpmModulationBaseE @4144
    _ZN4inet13physicallayer21Ieee80211OfdmDataModeC1EPKNS0_17Ieee80211OfdmCodeEPKNS0_23Ieee80211OfdmModulationENS_5units5valueIdNS8_3powINS8_5units1sELin1ELi1EEEEESE_ @4145
    _ZN4inet13physicallayer21Ieee80211OfdmDataModeC2EPKNS0_17Ieee80211OfdmCodeEPKNS0_23Ieee80211OfdmModulationENS_5units5valueIdNS8_3powINS8_5units1sELin1ELi1EEEEESE_ @4146
    _ZN4inet13physicallayer21Ieee80211OfdmModeBaseC1EPKNS0_23Ieee80211OfdmModulationEPKNS0_17Ieee80211OfdmCodeENS_5units5valueIdNS8_3powINS8_5units1sELin1ELi1EEEEESE_ @4147
    _ZN4inet13physicallayer21Ieee80211OfdmModeBaseC2EPKNS0_23Ieee80211OfdmModulationEPKNS0_17Ieee80211OfdmCodeENS_5units5valueIdNS8_3powINS8_5units1sELin1ELi1EEEEESE_ @4148
    _ZN4inet13physicallayer21Ieee80211ReceiverBase10initializeEi @4149
    _ZN4inet13physicallayer21Ieee80211ReceiverBase10setChannelEPKNS0_16Ieee80211ChannelE @4150
    _ZN4inet13physicallayer21Ieee80211ReceiverBase10setModeSetEPKNS0_16Ieee80211ModeSetE @4151
    _ZN4inet13physicallayer21Ieee80211ReceiverBase16setChannelNumberEi @4152
    _ZN4inet13physicallayer21Ieee80211ReceiverBase7setBandEPKNS0_14IIeee80211BandE @4153
    _ZN4inet13physicallayer21Ieee80211ReceiverBaseC1Ev @4154
    _ZN4inet13physicallayer21Ieee80211ReceiverBaseC2Ev @4155
    _ZN4inet13physicallayer21Ieee80211ReceiverBaseD0Ev @4156
    _ZN4inet13physicallayer21Ieee80211ReceiverBaseD1Ev @4157
    _ZN4inet13physicallayer21Ieee80211ReceiverBaseD2Ev @4158
    _ZN4inet13physicallayer21Ieee80211VhtPhyHeader12parsimUnpackEPN7omnetpp11cCommBufferE @4159
    _ZN4inet13physicallayer21Ieee80211VhtPhyHeader4copyERKS1_ @4160
    _ZN4inet13physicallayer21Ieee80211VhtPhyHeaderC1ERKS1_ @4161
    _ZN4inet13physicallayer21Ieee80211VhtPhyHeaderC1Ev @4162
    _ZN4inet13physicallayer21Ieee80211VhtPhyHeaderC2ERKS1_ @4163
    _ZN4inet13physicallayer21Ieee80211VhtPhyHeaderC2Ev @4164
    _ZN4inet13physicallayer21Ieee80211VhtPhyHeaderD0Ev @4165
    _ZN4inet13physicallayer21Ieee80211VhtPhyHeaderD1Ev @4166
    _ZN4inet13physicallayer21Ieee80211VhtPhyHeaderD2Ev @4167
    _ZN4inet13physicallayer21Ieee80211VhtPhyHeaderaSERKS1_ @4168
    _ZN4inet13physicallayer21MapCommunicationCache11removeRadioEPKNS0_6IRadioE @4169
    _ZN4inet13physicallayer21MapCommunicationCache15addTransmissionEPKNS0_13ITransmissionE @4170
    _ZN4inet13physicallayer21MapCommunicationCache18getRadioCacheEntryEPKNS0_6IRadioE @4171
    _ZN4inet13physicallayer21MapCommunicationCache18removeTransmissionEPKNS0_13ITransmissionE @4172
    _ZN4inet13physicallayer21MapCommunicationCache22getReceptionCacheEntryEPKNS0_6IRadioEPKNS0_13ITransmissionE @4173
    _ZN4inet13physicallayer21MapCommunicationCache25getTransmissionCacheEntryEPKNS0_13ITransmissionE @4174
    _ZN4inet13physicallayer21MapCommunicationCache33removeNonInterferingTransmissionsESt8functionIFvPKNS0_13ITransmissionEEE @4175
    _ZN4inet13physicallayer21MapCommunicationCache8addRadioEPKNS0_6IRadioE @4176
    _ZN4inet13physicallayer21MapCommunicationCacheD0Ev @4177
    _ZN4inet13physicallayer21MapCommunicationCacheD1Ev @4178
    _ZN4inet13physicallayer21MapCommunicationCacheD2Ev @4179
    _ZN4inet13physicallayer21QuadTreeNeighborCache10initializeEi @4180
    _ZN4inet13physicallayer21QuadTreeNeighborCache11removeRadioEPKNS0_6IRadioE @4181
    _ZN4inet13physicallayer21QuadTreeNeighborCache13handleMessageEPN7omnetpp8cMessageE @4182
    _ZN4inet13physicallayer21QuadTreeNeighborCache15rebuildQuadTreeEv @4183
    _ZN4inet13physicallayer21QuadTreeNeighborCache22fillQuadTreeWithRadiosEv @4184
    _ZN4inet13physicallayer21QuadTreeNeighborCache8addRadioEPKNS0_6IRadioE @4185
    _ZN4inet13physicallayer21QuadTreeNeighborCacheC1Ev @4186
    _ZN4inet13physicallayer21QuadTreeNeighborCacheC2Ev @4187
    _ZN4inet13physicallayer21QuadTreeNeighborCacheD0Ev @4188
    _ZN4inet13physicallayer21QuadTreeNeighborCacheD1Ev @4189
    _ZN4inet13physicallayer21QuadTreeNeighborCacheD2Ev @4190
    _ZN4inet13physicallayer21ScalarAnalogModelBase10initializeEi @4191
    _ZN4inet13physicallayer22ApskLayeredTransmitter10initializeEi @4192
    _ZN4inet13physicallayer22ApskLayeredTransmitterC1Ev @4193
    _ZN4inet13physicallayer22ApskLayeredTransmitterC2Ev @4194
    _ZN4inet13physicallayer22ApskScalarTransmissionC1EPKNS0_6IRadioEPKNS_6PacketEN7omnetpp7SimTimeES9_S9_S9_S9_NS_5CoordESA_NS_10QuaternionESB_PKNS0_11IModulationENS_5units5valueIxNSF_5units1bEEESJ_NSG_IdNSF_3powINSH_1sELin1ELi1EEEEESN_NSG_IdNSF_7composeISI_SM_EEEENSG_IdNSO_INSO_INSO_INSH_1mENSO_INSH_2kgENSK_ISL_Lin2ELi1EEEEEEESR_EESM_EEEE @4195
    _ZN4inet13physicallayer22ApskScalarTransmissionC2EPKNS0_6IRadioEPKNS_6PacketEN7omnetpp7SimTimeES9_S9_S9_S9_NS_5CoordESA_NS_10QuaternionESB_PKNS0_11IModulationENS_5units5valueIxNSF_5units1bEEESJ_NSG_IdNSF_3powINSH_1sELin1ELi1EEEEESN_NSG_IdNSF_7composeISI_SM_EEEENSG_IdNSO_INSO_INSO_INSH_1mENSO_INSH_2kgENSK_ISL_Lin2ELi1EEEEEEESR_EESM_EEEE @4196
    _ZN4inet13physicallayer22CommunicationCacheBase13getCachedSNIREPKNS0_6IRadioEPKNS0_13ITransmissionE @4197
    _ZN4inet13physicallayer22CommunicationCacheBase13setCachedSNIREPKNS0_6IRadioEPKNS0_13ITransmissionEPKNS0_5ISnirE @4198
    _ZN4inet13physicallayer22CommunicationCacheBase14getCachedNoiseEPKNS0_6IRadioEPKNS0_13ITransmissionE @4199
    _ZN4inet13physicallayer22CommunicationCacheBase14setCachedNoiseEPKNS0_6IRadioEPKNS0_13ITransmissionEPKNS0_6INoiseE @4200
    _ZN4inet13physicallayer22CommunicationCacheBase15getCachedSignalEPKNS0_13ITransmissionE @4201
    _ZN4inet13physicallayer22CommunicationCacheBase15getCachedSignalEPKNS0_6IRadioEPKNS0_13ITransmissionE @4202
    _ZN4inet13physicallayer22CommunicationCacheBase15setCachedSignalEPKNS0_13ITransmissionEPKNS0_7ISignalE @4203
    _ZN4inet13physicallayer22CommunicationCacheBase15setCachedSignalEPKNS0_6IRadioEPKNS0_13ITransmissionEPKNS0_7ISignalE @4204
    _ZN4inet13physicallayer22CommunicationCacheBase16getCachedArrivalEPKNS0_6IRadioEPKNS0_13ITransmissionE @4205
    _ZN4inet13physicallayer22CommunicationCacheBase16removeCachedSNIREPKNS0_6IRadioEPKNS0_13ITransmissionE @4206
    _ZN4inet13physicallayer22CommunicationCacheBase16setCachedArrivalEPKNS0_6IRadioEPKNS0_13ITransmissionEPKNS0_8IArrivalE @4207
    _ZN4inet13physicallayer22CommunicationCacheBase17getCachedIntervalEPKNS0_6IRadioEPKNS0_13ITransmissionE @4208
    _ZN4inet13physicallayer22CommunicationCacheBase17removeCachedNoiseEPKNS0_6IRadioEPKNS0_13ITransmissionE @4209
    _ZN4inet13physicallayer22CommunicationCacheBase17setCachedIntervalEPKNS0_6IRadioEPKNS0_13ITransmissionEPKNS_12IntervalTree8IntervalE @4210
    _ZN4inet13physicallayer22CommunicationCacheBase18getCachedListeningEPKNS0_6IRadioEPKNS0_13ITransmissionE @4211
    _ZN4inet13physicallayer22CommunicationCacheBase18getCachedReceptionEPKNS0_6IRadioEPKNS0_13ITransmissionE @4212
    _ZN4inet13physicallayer22CommunicationCacheBase18removeCachedSignalEPKNS0_13ITransmissionE @4213
    _ZN4inet13physicallayer22CommunicationCacheBase18removeCachedSignalEPKNS0_6IRadioEPKNS0_13ITransmissionE @4214
    _ZN4inet13physicallayer22CommunicationCacheBase18setCachedListeningEPKNS0_6IRadioEPKNS0_13ITransmissionEPKNS0_10IListeningE @4215
    _ZN4inet13physicallayer22CommunicationCacheBase18setCachedReceptionEPKNS0_6IRadioEPKNS0_13ITransmissionEPKNS0_10IReceptionE @4216
    _ZN4inet13physicallayer22CommunicationCacheBase19removeCachedArrivalEPKNS0_6IRadioEPKNS0_13ITransmissionE @4217
    _ZN4inet13physicallayer22CommunicationCacheBase20removeCachedIntervalEPKNS0_6IRadioEPKNS0_13ITransmissionE @4218
    _ZN4inet13physicallayer22CommunicationCacheBase21getCachedInterferenceEPKNS0_6IRadioEPKNS0_13ITransmissionE @4219
    _ZN4inet13physicallayer22CommunicationCacheBase21removeCachedListeningEPKNS0_6IRadioEPKNS0_13ITransmissionE @4220
    _ZN4inet13physicallayer22CommunicationCacheBase21removeCachedReceptionEPKNS0_6IRadioEPKNS0_13ITransmissionE @4221
    _ZN4inet13physicallayer22CommunicationCacheBase21setCachedInterferenceEPKNS0_6IRadioEPKNS0_13ITransmissionEPKNS0_13IInterferenceE @4222
    _ZN4inet13physicallayer22CommunicationCacheBase24getCachedReceptionResultEPKNS0_6IRadioEPKNS0_13ITransmissionE @4223
    _ZN4inet13physicallayer22CommunicationCacheBase24removeCachedInterferenceEPKNS0_6IRadioEPKNS0_13ITransmissionE @4224
    _ZN4inet13physicallayer22CommunicationCacheBase24setCachedReceptionResultEPKNS0_6IRadioEPKNS0_13ITransmissionEPKNS0_16IReceptionResultE @4225
    _ZN4inet13physicallayer22CommunicationCacheBase26getCachedReceptionDecisionEPKNS0_6IRadioEPKNS0_13ITransmissionENS0_12IRadioSignal10SignalPartE @4226
    _ZN4inet13physicallayer22CommunicationCacheBase26setCachedReceptionDecisionEPKNS0_6IRadioEPKNS0_13ITransmissionENS0_12IRadioSignal10SignalPartEPKNS0_18IReceptionDecisionE @4227
    _ZN4inet13physicallayer22CommunicationCacheBase27removeCachedReceptionResultEPKNS0_6IRadioEPKNS0_13ITransmissionE @4228
    _ZN4inet13physicallayer22CommunicationCacheBase28getCachedInterferenceEndTimeEPKNS0_13ITransmissionE @4229
    _ZN4inet13physicallayer22CommunicationCacheBase28setCachedInterferenceEndTimeEPKNS0_13ITransmissionEN7omnetpp7SimTimeE @4230
    _ZN4inet13physicallayer22CommunicationCacheBase29removeCachedReceptionDecisionEPKNS0_6IRadioEPKNS0_13ITransmissionENS0_12IRadioSignal10SignalPartE @4231
    _ZN4inet13physicallayer22CommunicationCacheBase31computeInterferingTransmissionsEPKNS0_6IRadioEN7omnetpp7SimTimeES6_ @4232
    _ZN4inet13physicallayer22CommunicationCacheBase31removeCachedInterferenceEndTimeEPKNS0_13ITransmissionE @4233
    _ZN4inet13physicallayer22DielectricObstacleLoss10initializeEi @4234
    _ZN4inet13physicallayer22DielectricObstacleLoss6finishEv @4235
    _ZN4inet13physicallayer22DielectricObstacleLossC1Ev @4236
    _ZN4inet13physicallayer22DielectricObstacleLossC2Ev @4237
    _ZN4inet13physicallayer22Ieee80211DsssPhyHeader10setCrcModeENS_7CrcModeE @4238
    _ZN4inet13physicallayer22Ieee80211DsssPhyHeader10setServiceEh @4239
    _ZN4inet13physicallayer22Ieee80211DsssPhyHeader12parsimUnpackEPN7omnetpp11cCommBufferE @4240
    _ZN4inet13physicallayer22Ieee80211DsssPhyHeader4copyERKS1_ @4241
    _ZN4inet13physicallayer22Ieee80211DsssPhyHeader6setCrcEt @4242
    _ZN4inet13physicallayer22Ieee80211DsssPhyHeader9setSignalEh @4243
    _ZN4inet13physicallayer22Ieee80211DsssPhyHeaderC1ERKS1_ @4244
    _ZN4inet13physicallayer22Ieee80211DsssPhyHeaderC1Ev @4245
    _ZN4inet13physicallayer22Ieee80211DsssPhyHeaderC2ERKS1_ @4246
    _ZN4inet13physicallayer22Ieee80211DsssPhyHeaderC2Ev @4247
    _ZN4inet13physicallayer22Ieee80211DsssPhyHeaderD0Ev @4248
    _ZN4inet13physicallayer22Ieee80211DsssPhyHeaderD1Ev @4249
    _ZN4inet13physicallayer22Ieee80211DsssPhyHeaderD2Ev @4250
    _ZN4inet13physicallayer22Ieee80211DsssPhyHeaderaSERKS1_ @4251
    _ZN4inet13physicallayer22Ieee80211FhssPhyHeader10setCrcModeENS_7CrcModeE @4252
    _ZN4inet13physicallayer22Ieee80211FhssPhyHeader12parsimUnpackEPN7omnetpp11cCommBufferE @4253
    _ZN4inet13physicallayer22Ieee80211FhssPhyHeader4copyERKS1_ @4254
    _ZN4inet13physicallayer22Ieee80211FhssPhyHeader6setCrcEt @4255
    _ZN4inet13physicallayer22Ieee80211FhssPhyHeader6setPlwEt @4256
    _ZN4inet13physicallayer22Ieee80211FhssPhyHeader6setPsfEh @4257
    _ZN4inet13physicallayer22Ieee80211FhssPhyHeaderC1ERKS1_ @4258
    _ZN4inet13physicallayer22Ieee80211FhssPhyHeaderC1Ev @4259
    _ZN4inet13physicallayer22Ieee80211FhssPhyHeaderC2ERKS1_ @4260
    _ZN4inet13physicallayer22Ieee80211FhssPhyHeaderC2Ev @4261
    _ZN4inet13physicallayer22Ieee80211FhssPhyHeaderD0Ev @4262
    _ZN4inet13physicallayer22Ieee80211FhssPhyHeaderD1Ev @4263
    _ZN4inet13physicallayer22Ieee80211FhssPhyHeaderD2Ev @4264
    _ZN4inet13physicallayer22Ieee80211FhssPhyHeaderaSERKS1_ @4265
    _ZN4inet13physicallayer22Ieee80211HtPhyPreamble12parsimUnpackEPN7omnetpp11cCommBufferE @4266
    _ZN4inet13physicallayer22Ieee80211HtPhyPreamble4copyERKS1_ @4267
    _ZN4inet13physicallayer22Ieee80211HtPhyPreambleC1ERKS1_ @4268
    _ZN4inet13physicallayer22Ieee80211HtPhyPreambleC1Ev @4269
    _ZN4inet13physicallayer22Ieee80211HtPhyPreambleC2ERKS1_ @4270
    _ZN4inet13physicallayer22Ieee80211HtPhyPreambleC2Ev @4271
    _ZN4inet13physicallayer22Ieee80211HtPhyPreambleD0Ev @4272
    _ZN4inet13physicallayer22Ieee80211HtPhyPreambleD1Ev @4273
    _ZN4inet13physicallayer22Ieee80211HtPhyPreambleD2Ev @4274
    _ZN4inet13physicallayer22Ieee80211HtPhyPreambleaSERKS1_ @4275
    _ZN4inet13physicallayer22Ieee80211IrPhyPreamble12parsimUnpackEPN7omnetpp11cCommBufferE @4276
    _ZN4inet13physicallayer22Ieee80211IrPhyPreamble4copyERKS1_ @4277
    _ZN4inet13physicallayer22Ieee80211IrPhyPreambleC1ERKS1_ @4278
    _ZN4inet13physicallayer22Ieee80211IrPhyPreambleC1Ev @4279
    _ZN4inet13physicallayer22Ieee80211IrPhyPreambleC2ERKS1_ @4280
    _ZN4inet13physicallayer22Ieee80211IrPhyPreambleC2Ev @4281
    _ZN4inet13physicallayer22Ieee80211IrPhyPreambleD0Ev @4282
    _ZN4inet13physicallayer22Ieee80211IrPhyPreambleD1Ev @4283
    _ZN4inet13physicallayer22Ieee80211IrPhyPreambleD2Ev @4284
    _ZN4inet13physicallayer22Ieee80211IrPhyPreambleaSERKS1_ @4285
    _ZN4inet13physicallayer22Ieee80211OfdmModulator23negativePilotSubcarrierE @4286 DATA
    _ZN4inet13physicallayer22Ieee80211OfdmModulator23positivePilotSubcarrierE @4287 DATA
    _ZN4inet13physicallayer22Ieee80211OfdmModulator29pilotSubcarrierPolarityVectorE @4288 DATA
    _ZN4inet13physicallayer22Ieee80211OfdmModulatorC1EPKNS0_23Ieee80211OfdmModulationEj @4289
    _ZN4inet13physicallayer22Ieee80211OfdmModulatorC2EPKNS0_23Ieee80211OfdmModulationEj @4290
    _ZN4inet13physicallayer22Ieee80211OfdmPhyHeader10setServiceEt @4291
    _ZN4inet13physicallayer22Ieee80211OfdmPhyHeader11setReservedEb @4292
    _ZN4inet13physicallayer22Ieee80211OfdmPhyHeader12parsimUnpackEPN7omnetpp11cCommBufferE @4293
    _ZN4inet13physicallayer22Ieee80211OfdmPhyHeader4copyERKS1_ @4294
    _ZN4inet13physicallayer22Ieee80211OfdmPhyHeader7setRateEh @4295
    _ZN4inet13physicallayer22Ieee80211OfdmPhyHeader7setTailEh @4296
    _ZN4inet13physicallayer22Ieee80211OfdmPhyHeader9setParityEb @4297
    _ZN4inet13physicallayer22Ieee80211OfdmPhyHeaderC1ERKS1_ @4298
    _ZN4inet13physicallayer22Ieee80211OfdmPhyHeaderC1Ev @4299
    _ZN4inet13physicallayer22Ieee80211OfdmPhyHeaderC2ERKS1_ @4300
    _ZN4inet13physicallayer22Ieee80211OfdmPhyHeaderC2Ev @4301
    _ZN4inet13physicallayer22Ieee80211OfdmPhyHeaderD0Ev @4302
    _ZN4inet13physicallayer22Ieee80211OfdmPhyHeaderD1Ev @4303
    _ZN4inet13physicallayer22Ieee80211OfdmPhyHeaderD2Ev @4304
    _ZN4inet13physicallayer22Ieee80211OfdmPhyHeaderaSERKS1_ @4305
    _ZN4inet13physicallayer22Ieee80211VhtSignalModeC1EjPKNS0_23Ieee80211OfdmModulationEPKNS0_16Ieee80211VhtCodeENS_5units5valueIdNS8_3powINS8_5units1sELin1ELi1EEEEENS0_20Ieee80211VhtModeBase17GuardIntervalTypeE @4306
    _ZN4inet13physicallayer22Ieee80211VhtSignalModeC1EjPKNS0_23Ieee80211OfdmModulationEPKNS0_26Ieee80211ConvolutionalCodeENS_5units5valueIdNS8_3powINS8_5units1sELin1ELi1EEEEENS0_20Ieee80211VhtModeBase17GuardIntervalTypeE @4307
    _ZN4inet13physicallayer22Ieee80211VhtSignalModeC2EjPKNS0_23Ieee80211OfdmModulationEPKNS0_16Ieee80211VhtCodeENS_5units5valueIdNS8_3powINS8_5units1sELin1ELi1EEEEENS0_20Ieee80211VhtModeBase17GuardIntervalTypeE @4308
    _ZN4inet13physicallayer22Ieee80211VhtSignalModeC2EjPKNS0_23Ieee80211OfdmModulationEPKNS0_26Ieee80211ConvolutionalCodeENS_5units5valueIdNS8_3powINS8_5units1sELin1ELi1EEEEENS0_20Ieee80211VhtModeBase17GuardIntervalTypeE @4309
    _ZN4inet13physicallayer22Ieee80211VhtSignalModeD0Ev @4310
    _ZN4inet13physicallayer22Ieee80211VhtSignalModeD1Ev @4311
    _ZN4inet13physicallayer22Ieee80211VhtSignalModeD2Ev @4312
    _ZN4inet13physicallayer22LayeredReceptionResultC1EPKNS0_10IReceptionEPKSt6vectorIPKNS0_18IReceptionDecisionESaIS8_EEPKNS0_21IReceptionPacketModelEPKNS0_18IReceptionBitModelEPKNS0_21IReceptionSymbolModelEPKNS0_21IReceptionSampleModelEPKNS0_21IReceptionAnalogModelE @4313
    _ZN4inet13physicallayer22LayeredReceptionResultC2EPKNS0_10IReceptionEPKSt6vectorIPKNS0_18IReceptionDecisionESaIS8_EEPKNS0_21IReceptionPacketModelEPKNS0_18IReceptionBitModelEPKNS0_21IReceptionSymbolModelEPKNS0_21IReceptionSampleModelEPKNS0_21IReceptionAnalogModelE @4314
    _ZN4inet13physicallayer22LayeredReceptionResultD0Ev @4315
    _ZN4inet13physicallayer22LayeredReceptionResultD1Ev @4316
    _ZN4inet13physicallayer22LayeredReceptionResultD2Ev @4317
    _ZN4inet13physicallayer22NarrowbandReceiverBase10initializeEi @4318
    _ZN4inet13physicallayer22NarrowbandReceiverBaseC2Ev @4319
    _ZN4inet13physicallayer22TwoRayGroundReflection10initializeEi @4320
    _ZN4inet13physicallayer23AdditiveScramblerModule10initializeEi @4321
    _ZN4inet13physicallayer23AdditiveScramblerModuleD0Ev @4322
    _ZN4inet13physicallayer23AdditiveScramblerModuleD1Ev @4323
    _ZN4inet13physicallayer23AdditiveScramblerModuleD2Ev @4324
    _ZN4inet13physicallayer23ApskDimensionalReceiverC1Ev @4325
    _ZN4inet13physicallayer23ApskDimensionalReceiverC2Ev @4326
    _ZN4inet13physicallayer23AxiallySymmetricAntenna10initializeEi @4327
    _ZN4inet13physicallayer23AxiallySymmetricAntennaC1Ev @4328
    _ZN4inet13physicallayer23AxiallySymmetricAntennaC2Ev @4329
    _ZN4inet13physicallayer23ConstantTimePropagation10initializeEi @4330
    _ZN4inet13physicallayer23ConstantTimePropagationC1Ev @4331
    _ZN4inet13physicallayer23ConstantTimePropagationC2Ev @4332
    _ZN4inet13physicallayer23DimensionalTransmissionC1EPKNS0_6IRadioEPKNS_6PacketEN7omnetpp7SimTimeES9_S9_S9_S9_NS_5CoordESA_NS_10QuaternionESB_PKNS0_11IModulationENS_5units5valueIxNSF_5units1bEEESJ_NSG_IdNSF_3powINSH_1sELin1ELi1EEEEESN_NSG_IdNSF_7composeISI_SM_EEEERKNS_12IntrusivePtrIKNS_4math9IFunctionINSG_IdNSO_INSO_INSO_INSO_INSH_1mENSO_INSH_2kgENSK_ISL_Lin2ELi1EEEEEEESU_EESM_EENSK_ISM_Lin1ELi1EEEEEEENSS_6DomainIJNSG_IS9_SL_EESN_EEEEEEE @4333
    _ZN4inet13physicallayer23DimensionalTransmissionC2EPKNS0_6IRadioEPKNS_6PacketEN7omnetpp7SimTimeES9_S9_S9_S9_NS_5CoordESA_NS_10QuaternionESB_PKNS0_11IModulationENS_5units5valueIxNSF_5units1bEEESJ_NSG_IdNSF_3powINSH_1sELin1ELi1EEEEESN_NSG_IdNSF_7composeISI_SM_EEEERKNS_12IntrusivePtrIKNS_4math9IFunctionINSG_IdNSO_INSO_INSO_INSO_INSH_1mENSO_INSH_2kgENSK_ISL_Lin2ELi1EEEEEEESU_EESM_EENSK_ISM_Lin1ELi1EEEEEEENSS_6DomainIJNSG_IS9_SL_EESN_EEEEEEE @4334
    _ZN4inet13physicallayer23Ieee80211ChannelTagBase10setChannelEPKNS0_16Ieee80211ChannelE @4335
    _ZN4inet13physicallayer23Ieee80211ChannelTagBase12parsimUnpackEPN7omnetpp11cCommBufferE @4336
    _ZN4inet13physicallayer23Ieee80211ChannelTagBase4copyERKS1_ @4337
    _ZN4inet13physicallayer23Ieee80211ChannelTagBaseC1ERKS1_ @4338
    _ZN4inet13physicallayer23Ieee80211ChannelTagBaseC1Ev @4339
    _ZN4inet13physicallayer23Ieee80211ChannelTagBaseC2ERKS1_ @4340
    _ZN4inet13physicallayer23Ieee80211ChannelTagBaseC2Ev @4341
    _ZN4inet13physicallayer23Ieee80211ChannelTagBaseD0Ev @4342
    _ZN4inet13physicallayer23Ieee80211ChannelTagBaseD1Ev @4343
    _ZN4inet13physicallayer23Ieee80211ChannelTagBaseD2Ev @4344
    _ZN4inet13physicallayer23Ieee80211ChannelTagBaseaSERKS1_ @4345
    _ZN4inet13physicallayer23Ieee80211CompliantBands10band2_4GHzE @4346 DATA
    _ZN4inet13physicallayer23Ieee80211CompliantBands10band5_9GHzE @4347 DATA
    _ZN4inet13physicallayer23Ieee80211CompliantBands13band5GHz20MHzE @4348 DATA
    _ZN4inet13physicallayer23Ieee80211CompliantBands13band5GHz40MHzE @4349 DATA
    _ZN4inet13physicallayer23Ieee80211CompliantBands13band5GHz80MHzE @4350 DATA
    _ZN4inet13physicallayer23Ieee80211CompliantBands14band5GHz160MHzE @4351 DATA
    _ZN4inet13physicallayer23Ieee80211CompliantBands5bandsE @4352 DATA
    _ZN4inet13physicallayer23Ieee80211CompliantBands7getBandEPKc @4353
    _ZN4inet13physicallayer23Ieee80211CompliantBands8band5GHzE @4354 DATA
    _ZN4inet13physicallayer23Ieee80211CompliantBands8findBandEPKc @4355
    _ZN4inet13physicallayer23Ieee80211EnumeratedBandC1EPKcSt6vectorINS_5units5valueIdNS5_3powINS5_5units1sELin1ELi1EEEEESaISB_EE @4356
    _ZN4inet13physicallayer23Ieee80211EnumeratedBandC2EPKcSt6vectorINS_5units5valueIdNS5_3powINS5_5units1sELin1ELi1EEEEESaISB_EE @4357
    _ZN4inet13physicallayer23Ieee80211ErrorModelBaseC2Ev @4358
    _ZN4inet13physicallayer23Ieee80211HrDsssDataModeC1ENS_5units5valueIdNS2_7composeINS2_5units1bENS2_3powINS5_1sELin1ELi1EEEEEEE @4359
    _ZN4inet13physicallayer23Ieee80211HrDsssDataModeC2ENS_5units5valueIdNS2_7composeINS2_5units1bENS2_3powINS5_1sELin1ELi1EEEEEEE @4360
    _ZN4inet13physicallayer23Ieee80211HtInterleavingC1ERKSt6vectorIjSaIjEENS_5units5valueIdNS7_3powINS7_5units1sELin1ELi1EEEEE @4361
    _ZN4inet13physicallayer23Ieee80211HtInterleavingC2ERKSt6vectorIjSaIjEENS_5units5valueIdNS7_3powINS7_5units1sELin1ELi1EEEEE @4362
    _ZN4inet13physicallayer23Ieee80211HtPreambleModeC1EPKNS0_21Ieee80211HtSignalModeEPKNS0_23Ieee80211OfdmSignalModeENS1_27HighTroughputPreambleFormatEj @4363
    _ZN4inet13physicallayer23Ieee80211HtPreambleModeC2EPKNS0_21Ieee80211HtSignalModeEPKNS0_23Ieee80211OfdmSignalModeENS1_27HighTroughputPreambleFormatEj @4364
    _ZN4inet13physicallayer23Ieee80211IrPreambleModeC1Ei @4365
    _ZN4inet13physicallayer23Ieee80211IrPreambleModeC2Ei @4366
    _ZN4inet13physicallayer23Ieee80211OfdmErrorModel10initializeEi @4367
    _ZN4inet13physicallayer23Ieee80211OfdmModulationC1EPKNS0_18ApskModulationBaseE @4368
    _ZN4inet13physicallayer23Ieee80211OfdmModulationC2EPKNS0_18ApskModulationBaseE @4369
    _ZN4inet13physicallayer23Ieee80211OfdmSignalModeC1EPKNS0_17Ieee80211OfdmCodeEPKNS0_23Ieee80211OfdmModulationENS_5units5valueIdNS8_3powINS8_5units1sELin1ELi1EEEEESE_j @4370
    _ZN4inet13physicallayer23Ieee80211OfdmSignalModeC2EPKNS0_17Ieee80211OfdmCodeEPKNS0_23Ieee80211OfdmModulationENS_5units5valueIdNS8_3powINS8_5units1sELin1ELi1EEEEESE_j @4371
    _ZN4inet13physicallayer23Ieee80211ScalarReceiverC1Ev @4372
    _ZN4inet13physicallayer23Ieee80211ScalarReceiverC2Ev @4373
    _ZN4inet13physicallayer23Ieee80211VhtPhyPreamble12parsimUnpackEPN7omnetpp11cCommBufferE @4374
    _ZN4inet13physicallayer23Ieee80211VhtPhyPreamble4copyERKS1_ @4375
    _ZN4inet13physicallayer23Ieee80211VhtPhyPreambleC1ERKS1_ @4376
    _ZN4inet13physicallayer23Ieee80211VhtPhyPreambleC1Ev @4377
    _ZN4inet13physicallayer23Ieee80211VhtPhyPreambleC2ERKS1_ @4378
    _ZN4inet13physicallayer23Ieee80211VhtPhyPreambleC2Ev @4379
    _ZN4inet13physicallayer23Ieee80211VhtPhyPreambleD0Ev @4380
    _ZN4inet13physicallayer23Ieee80211VhtPhyPreambleD1Ev @4381
    _ZN4inet13physicallayer23Ieee80211VhtPhyPreambleD2Ev @4382
    _ZN4inet13physicallayer23Ieee80211VhtPhyPreambleaSERKS1_ @4383
    _ZN4inet13physicallayer23Ieee802154UwbIrReceiver10initializeEi @4384
    _ZN4inet13physicallayer23Ieee802154UwbIrReceiverC1Ev @4385
    _ZN4inet13physicallayer23Ieee802154UwbIrReceiverC2Ev @4386
    _ZN4inet13physicallayer23NarrowbandReceptionBaseC2EPKNS0_6IRadioEPKNS0_13ITransmissionEN7omnetpp7SimTimeES9_NS_5CoordESA_NS_10QuaternionESB_NS_5units5valueIdNSC_3powINSC_5units1sELin1ELi1EEEEESI_ @4387
    _ZN4inet13physicallayer23ScalarSignalAnalogModelC1EN7omnetpp7SimTimeENS_5units5valueIdNS4_3powINS4_5units1sELin1ELi1EEEEESA_NS5_IdNS4_7composeINSB_INSB_INS7_1mENSB_INS7_2kgENS6_IS8_Lin2ELi1EEEEEEESC_EES9_EEEE @4388
    _ZN4inet13physicallayer23ScalarSignalAnalogModelC2EN7omnetpp7SimTimeENS_5units5valueIdNS4_3powINS4_5units1sELin1ELi1EEEEESA_NS5_IdNS4_7composeINSB_INSB_INS7_1mENSB_INS7_2kgENS6_IS8_Lin2ELi1EEEEEEESC_EES9_EEEE @4389
    _ZN4inet13physicallayer23TransmissionPacketModelC1EPKNS_6PacketENS_5units5valueIdNS5_7composeINS5_5units1bENS5_3powINS8_1sELin1ELi1EEEEEEE @4390
    _ZN4inet13physicallayer23TransmissionPacketModelC2EPKNS_6PacketENS_5units5valueIdNS5_7composeINS5_5units1bENS5_3powINS8_1sELin1ELi1EEEEEEE @4391
    _ZN4inet13physicallayer23TransmissionSampleModelC1EidPKSt6vectorINS_5units5valueIdNS3_7composeINS5_INS5_INS3_5units1mENS5_INS6_2kgENS3_3powINS6_1sELin2ELi1EEEEEEES7_EENS9_ISA_Lin1ELi1EEEEEEESaISH_EE @4392
    _ZN4inet13physicallayer23TransmissionSampleModelC2EidPKSt6vectorINS_5units5valueIdNS3_7composeINS5_INS5_INS3_5units1mENS5_INS6_2kgENS3_3powINS6_1sELin2ELi1EEEEEEES7_EENS9_ISA_Lin1ELi1EEEEEEESaISH_EE @4393
    _ZN4inet13physicallayer23TransmissionSymbolModelC1EididPKSt6vectorIPKNS0_7ISymbolESaIS5_EEPKNS0_11IModulationESC_ @4394
    _ZN4inet13physicallayer23TransmissionSymbolModelC2EididPKSt6vectorIPKNS0_7ISymbolESaIS5_EEPKNS0_11IModulationESC_ @4395
    _ZN4inet13physicallayer23UwbIrStochasticPathLoss10initializeEi @4396
    _ZN4inet13physicallayer23UwbIrStochasticPathLoss2d0E @4397 DATA
    _ZN4inet13physicallayer23UwbIrStochasticPathLoss2fcE @4398 DATA
    _ZN4inet13physicallayer23UwbIrStochasticPathLoss5kappaE @4399 DATA
    _ZN4inet13physicallayer23UwbIrStochasticPathLoss8n1_limitE @4400 DATA
    _ZN4inet13physicallayer23UwbIrStochasticPathLoss8n2_limitE @4401 DATA
    _ZN4inet13physicallayer23UwbIrStochasticPathLoss8n3_limitE @4402 DATA
    _ZN4inet13physicallayer23UwbIrStochasticPathLossC1Ev @4403
    _ZN4inet13physicallayer23UwbIrStochasticPathLossC2Ev @4404
    _ZN4inet13physicallayer24ConstantSpeedPropagation10initializeEi @4405
    _ZN4inet13physicallayer24ConstantSpeedPropagationC1Ev @4406
    _ZN4inet13physicallayer24ConstantSpeedPropagationC2Ev @4407
    _ZN4inet13physicallayer24ConvolutionalCoderModule10initializeEi @4408
    _ZN4inet13physicallayer24ConvolutionalCoderModuleD0Ev @4409
    _ZN4inet13physicallayer24ConvolutionalCoderModuleD1Ev @4410
    _ZN4inet13physicallayer24ConvolutionalCoderModuleD2Ev @4411
    _ZN4inet13physicallayer24Ieee80211DsssPhyPreamble12parsimUnpackEPN7omnetpp11cCommBufferE @4412
    _ZN4inet13physicallayer24Ieee80211DsssPhyPreamble4copyERKS1_ @4413
    _ZN4inet13physicallayer24Ieee80211DsssPhyPreambleC1ERKS1_ @4414
    _ZN4inet13physicallayer24Ieee80211DsssPhyPreambleC1Ev @4415
    _ZN4inet13physicallayer24Ieee80211DsssPhyPreambleC2ERKS1_ @4416
    _ZN4inet13physicallayer24Ieee80211DsssPhyPreambleC2Ev @4417
    _ZN4inet13physicallayer24Ieee80211DsssPhyPreambleD0Ev @4418
    _ZN4inet13physicallayer24Ieee80211DsssPhyPreambleD1Ev @4419
    _ZN4inet13physicallayer24Ieee80211DsssPhyPreambleD2Ev @4420
    _ZN4inet13physicallayer24Ieee80211DsssPhyPreambleaSERKS1_ @4421
    _ZN4inet13physicallayer24Ieee80211FhssPhyPreamble12parsimUnpackEPN7omnetpp11cCommBufferE @4422
    _ZN4inet13physicallayer24Ieee80211FhssPhyPreamble4copyERKS1_ @4423
    _ZN4inet13physicallayer24Ieee80211FhssPhyPreambleC1ERKS1_ @4424
    _ZN4inet13physicallayer24Ieee80211FhssPhyPreambleC1Ev @4425
    _ZN4inet13physicallayer24Ieee80211FhssPhyPreambleC2ERKS1_ @4426
    _ZN4inet13physicallayer24Ieee80211FhssPhyPreambleC2Ev @4427
    _ZN4inet13physicallayer24Ieee80211FhssPhyPreambleD0Ev @4428
    _ZN4inet13physicallayer24Ieee80211FhssPhyPreambleD1Ev @4429
    _ZN4inet13physicallayer24Ieee80211FhssPhyPreambleD2Ev @4430
    _ZN4inet13physicallayer24Ieee80211FhssPhyPreambleaSERKS1_ @4431
    _ZN4inet13physicallayer24Ieee80211HrDsssPhyHeader12parsimUnpackEPN7omnetpp11cCommBufferE @4432
    _ZN4inet13physicallayer24Ieee80211HrDsssPhyHeader4copyERKS1_ @4433
    _ZN4inet13physicallayer24Ieee80211HrDsssPhyHeaderC1ERKS1_ @4434
    _ZN4inet13physicallayer24Ieee80211HrDsssPhyHeaderC1Ev @4435
    _ZN4inet13physicallayer24Ieee80211HrDsssPhyHeaderC2ERKS1_ @4436
    _ZN4inet13physicallayer24Ieee80211HrDsssPhyHeaderC2Ev @4437
    _ZN4inet13physicallayer24Ieee80211HrDsssPhyHeaderD0Ev @4438
    _ZN4inet13physicallayer24Ieee80211HrDsssPhyHeaderD1Ev @4439
    _ZN4inet13physicallayer24Ieee80211HrDsssPhyHeaderD2Ev @4440
    _ZN4inet13physicallayer24Ieee80211HrDsssPhyHeaderaSERKS1_ @4441
    _ZN4inet13physicallayer24Ieee80211OfdmDemodulatorC1EPKNS0_23Ieee80211OfdmModulationE @4442
    _ZN4inet13physicallayer24Ieee80211OfdmDemodulatorC2EPKNS0_23Ieee80211OfdmModulationE @4443
    _ZN4inet13physicallayer24Ieee80211OfdmInterleaverC1EPKNS0_25Ieee80211OfdmInterleavingE @4444
    _ZN4inet13physicallayer24Ieee80211OfdmInterleaverC2EPKNS0_25Ieee80211OfdmInterleavingE @4445
    _ZN4inet13physicallayer24Ieee80211OfdmPhyPreamble12parsimUnpackEPN7omnetpp11cCommBufferE @4446
    _ZN4inet13physicallayer24Ieee80211OfdmPhyPreamble4copyERKS1_ @4447
    _ZN4inet13physicallayer24Ieee80211OfdmPhyPreambleC1ERKS1_ @4448
    _ZN4inet13physicallayer24Ieee80211OfdmPhyPreambleC1Ev @4449
    _ZN4inet13physicallayer24Ieee80211OfdmPhyPreambleC2ERKS1_ @4450
    _ZN4inet13physicallayer24Ieee80211OfdmPhyPreambleC2Ev @4451
    _ZN4inet13physicallayer24Ieee80211OfdmPhyPreambleD0Ev @4452
    _ZN4inet13physicallayer24Ieee80211OfdmPhyPreambleD1Ev @4453
    _ZN4inet13physicallayer24Ieee80211OfdmPhyPreambleD2Ev @4454
    _ZN4inet13physicallayer24Ieee80211OfdmPhyPreambleaSERKS1_ @4455
    _ZN4inet13physicallayer24Ieee80211TransmitterBase10initializeEi @4456
    _ZN4inet13physicallayer24Ieee80211TransmitterBase10setChannelEPKNS0_16Ieee80211ChannelE @4457
    _ZN4inet13physicallayer24Ieee80211TransmitterBase10setModeSetEPKNS0_16Ieee80211ModeSetE @4458
    _ZN4inet13physicallayer24Ieee80211TransmitterBase16setChannelNumberEi @4459
    _ZN4inet13physicallayer24Ieee80211TransmitterBase7setBandEPKNS0_14IIeee80211BandE @4460
    _ZN4inet13physicallayer24Ieee80211TransmitterBase7setModeEPKNS0_14IIeee80211ModeE @4461
    _ZN4inet13physicallayer24Ieee80211TransmitterBaseC2Ev @4462
    _ZN4inet13physicallayer24Ieee80211TransmitterBaseD0Ev @4463
    _ZN4inet13physicallayer24Ieee80211TransmitterBaseD1Ev @4464
    _ZN4inet13physicallayer24Ieee80211TransmitterBaseD2Ev @4465
    _ZN4inet13physicallayer24Ieee80211VhtInterleavingC1ERKSt6vectorIjSaIjEENS_5units5valueIdNS7_3powINS7_5units1sELin1ELi1EEEEE @4466
    _ZN4inet13physicallayer24Ieee80211VhtInterleavingC2ERKSt6vectorIjSaIjEENS_5units5valueIdNS7_3powINS7_5units1sELin1ELi1EEEEE @4467
    _ZN4inet13physicallayer24Ieee80211VhtPreambleModeC1EPKNS0_22Ieee80211VhtSignalModeEPKNS0_23Ieee80211OfdmSignalModeENS1_27HighTroughputPreambleFormatEj @4468
    _ZN4inet13physicallayer24Ieee80211VhtPreambleModeC2EPKNS0_22Ieee80211VhtSignalModeEPKNS0_23Ieee80211OfdmSignalModeENS1_27HighTroughputPreambleFormatEj @4469
    _ZN4inet13physicallayer24VectorCommunicationCache11removeRadioEPKNS0_6IRadioE @4470
    _ZN4inet13physicallayer24VectorCommunicationCache15addTransmissionEPKNS0_13ITransmissionE @4471
    _ZN4inet13physicallayer24VectorCommunicationCache18getRadioCacheEntryEPKNS0_6IRadioE @4472
    _ZN4inet13physicallayer24VectorCommunicationCache18removeTransmissionEPKNS0_13ITransmissionE @4473
    _ZN4inet13physicallayer24VectorCommunicationCache22getReceptionCacheEntryEPKNS0_6IRadioEPKNS0_13ITransmissionE @4474
    _ZN4inet13physicallayer24VectorCommunicationCache25getTransmissionCacheEntryEPKNS0_13ITransmissionE @4475
    _ZN4inet13physicallayer24VectorCommunicationCache33removeNonInterferingTransmissionsESt8functionIFvPKNS0_13ITransmissionEEE @4476
    _ZN4inet13physicallayer24VectorCommunicationCache8addRadioEPKNS0_6IRadioE @4477
    _ZN4inet13physicallayer24VectorCommunicationCacheD0Ev @4478
    _ZN4inet13physicallayer24VectorCommunicationCacheD1Ev @4479
    _ZN4inet13physicallayer24VectorCommunicationCacheD2Ev @4480
    _ZN4inet13physicallayer25Ieee80211ArithmeticalBandC1EPKcNS_5units5valueIdNS4_3powINS4_5units1sELin1ELi1EEEEESA_i @4481
    _ZN4inet13physicallayer25Ieee80211ArithmeticalBandC2EPKcNS_5units5valueIdNS4_3powINS4_5units1sELin1ELi1EEEEESA_i @4482
    _ZN4inet13physicallayer25Ieee80211ErpOfdmPhyHeader12parsimUnpackEPN7omnetpp11cCommBufferE @4483
    _ZN4inet13physicallayer25Ieee80211ErpOfdmPhyHeader4copyERKS1_ @4484
    _ZN4inet13physicallayer25Ieee80211ErpOfdmPhyHeaderC1ERKS1_ @4485
    _ZN4inet13physicallayer25Ieee80211ErpOfdmPhyHeaderC1Ev @4486
    _ZN4inet13physicallayer25Ieee80211ErpOfdmPhyHeaderC2ERKS1_ @4487
    _ZN4inet13physicallayer25Ieee80211ErpOfdmPhyHeaderC2Ev @4488
    _ZN4inet13physicallayer25Ieee80211ErpOfdmPhyHeaderD0Ev @4489
    _ZN4inet13physicallayer25Ieee80211ErpOfdmPhyHeaderD1Ev @4490
    _ZN4inet13physicallayer25Ieee80211ErpOfdmPhyHeaderD2Ev @4491
    _ZN4inet13physicallayer25Ieee80211ErpOfdmPhyHeaderaSERKS1_ @4492
    _ZN4inet13physicallayer25Ieee80211HrDsssHeaderModeC1ENS0_27Ieee80211HrDsssPreambleTypeE @4493
    _ZN4inet13physicallayer25Ieee80211HrDsssHeaderModeC2ENS0_27Ieee80211HrDsssPreambleTypeE @4494
    _ZN4inet13physicallayer25Ieee80211HtCompliantCodes16getCompliantCodeEPKNS0_26Ieee80211ConvolutionalCodeEPKNS0_23Ieee80211OfdmModulationES7_S7_S7_NS_5units5valueIdNS8_3powINS8_5units1sELin1ELi1EEEEEb @4495
    _ZN4inet13physicallayer25Ieee80211HtCompliantCodes22htConvolutionalCode5_6E @4496 DATA
    _ZN4inet13physicallayer25Ieee80211HtCompliantModes16getCompliantModeEPKNS0_14Ieee80211HtmcsENS0_15Ieee80211HtMode8BandModeENS0_23Ieee80211HtPreambleMode27HighTroughputPreambleFormatENS0_19Ieee80211HtModeBase17GuardIntervalTypeE @4497
    _ZN4inet13physicallayer25Ieee80211HtCompliantModes9singletonE @4498 DATA
    _ZN4inet13physicallayer25Ieee80211HtCompliantModesC1Ev @4499
    _ZN4inet13physicallayer25Ieee80211HtCompliantModesC2Ev @4500
    _ZN4inet13physicallayer25Ieee80211HtCompliantModesD0Ev @4501
    _ZN4inet13physicallayer25Ieee80211HtCompliantModesD1Ev @4502
    _ZN4inet13physicallayer25Ieee80211HtCompliantModesD2Ev @4503
    _ZN4inet13physicallayer25Ieee80211IrCompliantModes11irMode1MbpsE @4504 DATA
    _ZN4inet13physicallayer25Ieee80211IrCompliantModes11irMode2MbpsE @4505 DATA
    _ZN4inet13physicallayer25Ieee80211IrCompliantModes15irDataMode1MbpsE @4506 DATA
    _ZN4inet13physicallayer25Ieee80211IrCompliantModes15irDataMode2MbpsE @4507 DATA
    _ZN4inet13physicallayer25Ieee80211IrCompliantModes17irHeaderMode1MbpsE @4508 DATA
    _ZN4inet13physicallayer25Ieee80211IrCompliantModes17irHeaderMode2MbpsE @4509 DATA
    _ZN4inet13physicallayer25Ieee80211IrCompliantModes25irPreambleMode64SyncSlotsE @4510 DATA
    _ZN4inet13physicallayer25Ieee80211OfdmInterleavingC1Eii @4511
    _ZN4inet13physicallayer25Ieee80211OfdmInterleavingC2Eii @4512
    _ZN4inet13physicallayer25Ieee80211OfdmPreambleModeC1ENS_5units5valueIdNS2_3powINS2_5units1sELin1ELi1EEEEE @4513
    _ZN4inet13physicallayer25Ieee80211OfdmPreambleModeC2ENS_5units5valueIdNS2_3powINS2_5units1sELin1ELi1EEEEE @4514
    _ZN4inet13physicallayer25Ieee80211TransmissionBaseC1EPKNS0_14IIeee80211ModeEPKNS0_16Ieee80211ChannelE @4515
    _ZN4inet13physicallayer25Ieee80211TransmissionBaseC2EPKNS0_14IIeee80211ModeEPKNS0_16Ieee80211ChannelE @4516
    _ZN4inet13physicallayer25Ieee80211UnitDiskReceiver10initializeEi @4517
    _ZN4inet13physicallayer25Ieee80211UnitDiskReceiverC1Ev @4518
    _ZN4inet13physicallayer25Ieee80211UnitDiskReceiverC2Ev @4519
    _ZN4inet13physicallayer25NarrowbandTransmitterBase10initializeEi @4520
    _ZN4inet13physicallayer25NarrowbandTransmitterBaseC2Ev @4521
    _ZN4inet13physicallayer25NeighborListNeighborCache10initializeEi @4522
    _ZN4inet13physicallayer25NeighborListNeighborCache11removeRadioEPKNS0_6IRadioE @4523
    _ZN4inet13physicallayer25NeighborListNeighborCache13handleMessageEPN7omnetpp8cMessageE @4524
    _ZN4inet13physicallayer25NeighborListNeighborCache18updateNeighborListEPNS1_10RadioEntryE @4525
    _ZN4inet13physicallayer25NeighborListNeighborCache19updateNeighborListsEv @4526
    _ZN4inet13physicallayer25NeighborListNeighborCache28removeRadioFromNeighborListsEPKNS0_6IRadioE @4527
    _ZN4inet13physicallayer25NeighborListNeighborCache8addRadioEPKNS0_6IRadioE @4528
    _ZN4inet13physicallayer25NeighborListNeighborCacheC1Ev @4529
    _ZN4inet13physicallayer25NeighborListNeighborCacheC2Ev @4530
    _ZN4inet13physicallayer25NeighborListNeighborCacheD0Ev @4531
    _ZN4inet13physicallayer25NeighborListNeighborCacheD1Ev @4532
    _ZN4inet13physicallayer25NeighborListNeighborCacheD2Ev @4533
    _ZN4inet13physicallayer26ApskDimensionalTransmitter10initializeEi @4534
    _ZN4inet13physicallayer26ApskDimensionalTransmitterC1Ev @4535
    _ZN4inet13physicallayer26ApskDimensionalTransmitterC2Ev @4536
    _ZN4inet13physicallayer26DimensionalAnalogModelBase10initializeEi @4537
    _ZN4inet13physicallayer26DimensionalBackgroundNoise10initializeEi @4538
    _ZN4inet13physicallayer26DimensionalBackgroundNoiseC1Ev @4539
    _ZN4inet13physicallayer26DimensionalBackgroundNoiseC2Ev @4540
    _ZN4inet13physicallayer26DimensionalTransmitterBase10initializeEi @4541
    _ZN4inet13physicallayer26DimensionalTransmitterBase14parseTimeGainsEPKc @4542
    _ZN4inet13physicallayer26DimensionalTransmitterBase19parseFrequencyGainsEPKc @4543
    _ZN4inet13physicallayer26Ieee80211ConvolutionalCodeC1Eii @4544
    _ZN4inet13physicallayer26Ieee80211ConvolutionalCodeC2Eii @4545
    _ZN4inet13physicallayer26Ieee80211HrDsssPhyPreamble12parsimUnpackEPN7omnetpp11cCommBufferE @4546
    _ZN4inet13physicallayer26Ieee80211HrDsssPhyPreamble4copyERKS1_ @4547
    _ZN4inet13physicallayer26Ieee80211HrDsssPhyPreambleC1ERKS1_ @4548
    _ZN4inet13physicallayer26Ieee80211HrDsssPhyPreambleC1Ev @4549
    _ZN4inet13physicallayer26Ieee80211HrDsssPhyPreambleC2ERKS1_ @4550
    _ZN4inet13physicallayer26Ieee80211HrDsssPhyPreambleC2Ev @4551
    _ZN4inet13physicallayer26Ieee80211HrDsssPhyPreambleD0Ev @4552
    _ZN4inet13physicallayer26Ieee80211HrDsssPhyPreambleD1Ev @4553
    _ZN4inet13physicallayer26Ieee80211HrDsssPhyPreambleD2Ev @4554
    _ZN4inet13physicallayer26Ieee80211HrDsssPhyPreambleaSERKS1_ @4555
    _ZN4inet13physicallayer26Ieee80211OfdmDecoderModule10initializeEi @4556
    _ZN4inet13physicallayer26Ieee80211OfdmDecoderModuleD0Ev @4557
    _ZN4inet13physicallayer26Ieee80211OfdmDecoderModuleD1Ev @4558
    _ZN4inet13physicallayer26Ieee80211OfdmDecoderModuleD2Ev @4559
    _ZN4inet13physicallayer26Ieee80211OfdmEncoderModule10initializeEi @4560
    _ZN4inet13physicallayer26Ieee80211OfdmEncoderModuleD0Ev @4561
    _ZN4inet13physicallayer26Ieee80211OfdmEncoderModuleD1Ev @4562
    _ZN4inet13physicallayer26Ieee80211OfdmEncoderModuleD2Ev @4563
    _ZN4inet13physicallayer26Ieee80211ScalarTransmitterC1Ev @4564
    _ZN4inet13physicallayer26Ieee80211ScalarTransmitterC2Ev @4565
    _ZN4inet13physicallayer26Ieee80211VhtCompliantCodes16getCompliantCodeEPKNS0_26Ieee80211ConvolutionalCodeEPKNS0_23Ieee80211OfdmModulationES7_S7_S7_S7_S7_S7_S7_NS_5units5valueIdNS8_3powINS8_5units1sELin1ELi1EEEEEb @4566
    _ZN4inet13physicallayer26Ieee80211VhtCompliantModes16getCompliantModeEPKNS0_15Ieee80211VhtmcsENS0_16Ieee80211VhtMode8BandModeENS0_24Ieee80211VhtPreambleMode27HighTroughputPreambleFormatENS0_20Ieee80211VhtModeBase17GuardIntervalTypeE @4567
    _ZN4inet13physicallayer26Ieee80211VhtCompliantModes9singletonE @4568 DATA
    _ZN4inet13physicallayer26Ieee80211VhtCompliantModesC1Ev @4569
    _ZN4inet13physicallayer26Ieee80211VhtCompliantModesC2Ev @4570
    _ZN4inet13physicallayer26Ieee80211VhtCompliantModesD0Ev @4571
    _ZN4inet13physicallayer26Ieee80211VhtCompliantModesD1Ev @4572
    _ZN4inet13physicallayer26Ieee80211VhtCompliantModesD2Ev @4573
    _ZN4inet13physicallayer26Ieee802154UwbIrTransmitter10initializeEi @4574
    _ZN4inet13physicallayer26Ieee802154UwbIrTransmitterC1Ev @4575
    _ZN4inet13physicallayer26Ieee802154UwbIrTransmitterC2Ev @4576
    _ZN4inet13physicallayer26NarrowbandTransmissionBaseC2EPKNS0_6IRadioEPKNS_6PacketEN7omnetpp7SimTimeES9_S9_S9_S9_NS_5CoordESA_NS_10QuaternionESB_PKNS0_11IModulationENS_5units5valueIdNSF_3powINSF_5units1sELin1ELi1EEEEESL_ @4577
    _ZN4inet13physicallayer26StateBasedCcEnergyConsumer10initializeEi @4578
    _ZN4inet13physicallayer26StateBasedCcEnergyConsumer13receiveSignalEPN7omnetpp10cComponentEidPNS2_7cObjectE @4579
    _ZN4inet13physicallayer26StateBasedCcEnergyConsumer13receiveSignalEPN7omnetpp10cComponentEilPNS2_7cObjectE @4580
    _ZN4inet13physicallayer26StateBasedEpEnergyConsumer10initializeEi @4581
    _ZN4inet13physicallayer26StateBasedEpEnergyConsumer13receiveSignalEPN7omnetpp10cComponentEilPNS2_7cObjectE @4582
    _ZN4inet13physicallayer27ApskDimensionalTransmissionC1EPKNS0_6IRadioEPKNS_6PacketEN7omnetpp7SimTimeES9_S9_S9_S9_NS_5CoordESA_NS_10QuaternionESB_PKNS0_11IModulationENS_5units5valueIxNSF_5units1bEEESJ_NSG_IdNSF_3powINSH_1sELin1ELi1EEEEESN_NSG_IdNSF_7composeISI_SM_EEEERKNS_12IntrusivePtrIKNS_4math9IFunctionINSG_IdNSO_INSO_INSO_INSO_INSH_1mENSO_INSH_2kgENSK_ISL_Lin2ELi1EEEEEEESU_EESM_EENSK_ISM_Lin1ELi1EEEEEEENSS_6DomainIJNSG_IS9_SL_EESN_EEEEEEE @4583
    _ZN4inet13physicallayer27ApskDimensionalTransmissionC2EPKNS0_6IRadioEPKNS_6PacketEN7omnetpp7SimTimeES9_S9_S9_S9_NS_5CoordESA_NS_10QuaternionESB_PKNS0_11IModulationENS_5units5valueIxNSF_5units1bEEESJ_NSG_IdNSF_3powINSH_1sELin1ELi1EEEEESN_NSG_IdNSF_7composeISI_SM_EEEERKNS_12IntrusivePtrIKNS_4math9IFunctionINSG_IdNSO_INSO_INSO_INSO_INSH_1mENSO_INSH_2kgENSK_ISL_Lin2ELi1EEEEEEESU_EESM_EENSK_ISM_Lin1ELi1EEEEEEENSS_6DomainIJNSG_IS9_SL_EESN_EEEEEEE @4584
    _ZN4inet13physicallayer27Ieee80211BerTableErrorModel10initializeEi @4585
    _ZN4inet13physicallayer27Ieee80211BerTableErrorModelC1Ev @4586
    _ZN4inet13physicallayer27Ieee80211BerTableErrorModelC2Ev @4587
    _ZN4inet13physicallayer27Ieee80211BerTableErrorModelD0Ev @4588
    _ZN4inet13physicallayer27Ieee80211BerTableErrorModelD1Ev @4589
    _ZN4inet13physicallayer27Ieee80211BerTableErrorModelD2Ev @4590
    _ZN4inet13physicallayer27Ieee80211DsssCompliantModes13dsssMode1MbpsE @4591 DATA
    _ZN4inet13physicallayer27Ieee80211DsssCompliantModes13dsssMode2MbpsE @4592 DATA
    _ZN4inet13physicallayer27Ieee80211DsssCompliantModes17dsssDataMode1MbpsE @4593 DATA
    _ZN4inet13physicallayer27Ieee80211DsssCompliantModes17dsssDataMode2MbpsE @4594 DATA
    _ZN4inet13physicallayer27Ieee80211DsssCompliantModes19dsssHeaderMode1MbpsE @4595 DATA
    _ZN4inet13physicallayer27Ieee80211DsssCompliantModes21dsssPreambleMode1MbpsE @4596 DATA
    _ZN4inet13physicallayer27Ieee80211ErpOfdmPhyPreamble12parsimUnpackEPN7omnetpp11cCommBufferE @4597
    _ZN4inet13physicallayer27Ieee80211ErpOfdmPhyPreamble4copyERKS1_ @4598
    _ZN4inet13physicallayer27Ieee80211ErpOfdmPhyPreambleC1ERKS1_ @4599
    _ZN4inet13physicallayer27Ieee80211ErpOfdmPhyPreambleC1Ev @4600
    _ZN4inet13physicallayer27Ieee80211ErpOfdmPhyPreambleC2ERKS1_ @4601
    _ZN4inet13physicallayer27Ieee80211ErpOfdmPhyPreambleC2Ev @4602
    _ZN4inet13physicallayer27Ieee80211ErpOfdmPhyPreambleD0Ev @4603
    _ZN4inet13physicallayer27Ieee80211ErpOfdmPhyPreambleD1Ev @4604
    _ZN4inet13physicallayer27Ieee80211ErpOfdmPhyPreambleD2Ev @4605
    _ZN4inet13physicallayer27Ieee80211ErpOfdmPhyPreambleaSERKS1_ @4606
    _ZN4inet13physicallayer27Ieee80211FhssCompliantModes13fhssMode1MbpsE @4607 DATA
    _ZN4inet13physicallayer27Ieee80211FhssCompliantModes13fhssMode2MbpsE @4608 DATA
    _ZN4inet13physicallayer27Ieee80211FhssCompliantModes17fhssDataMode1MbpsE @4609 DATA
    _ZN4inet13physicallayer27Ieee80211FhssCompliantModes17fhssDataMode2MbpsE @4610 DATA
    _ZN4inet13physicallayer27Ieee80211FhssCompliantModes19fhssHeaderMode1MbpsE @4611 DATA
    _ZN4inet13physicallayer27Ieee80211FhssCompliantModes21fhssPreambleMode1MbpsE @4612 DATA
    _ZN4inet13physicallayer27Ieee80211HrDsssPreambleModeC1ENS0_27Ieee80211HrDsssPreambleTypeE @4613
    _ZN4inet13physicallayer27Ieee80211HrDsssPreambleModeC2ENS0_27Ieee80211HrDsssPreambleTypeE @4614
    _ZN4inet13physicallayer27Ieee80211OfdmCompliantCodes14ofdmScramblingE @4615 DATA
    _ZN4inet13physicallayer27Ieee80211OfdmCompliantCodes20ofdmBPSKInterleavingE @4616 DATA
    _ZN4inet13physicallayer27Ieee80211OfdmCompliantCodes20ofdmQPSKInterleavingE @4617 DATA
    _ZN4inet13physicallayer27Ieee80211OfdmCompliantCodes21ofdmQAM16InterleavingE @4618 DATA
    _ZN4inet13physicallayer27Ieee80211OfdmCompliantCodes21ofdmQAM64InterleavingE @4619 DATA
    _ZN4inet13physicallayer27Ieee80211OfdmCompliantCodes22ofdmQAM256InterleavingE @4620 DATA
    _ZN4inet13physicallayer27Ieee80211OfdmCompliantCodes23ofdmQAM1024InterleavingE @4621 DATA
    _ZN4inet13physicallayer27Ieee80211OfdmCompliantCodes24ofdmConvolutionalCode1_2E @4622 DATA
    _ZN4inet13physicallayer27Ieee80211OfdmCompliantCodes24ofdmConvolutionalCode2_3E @4623 DATA
    _ZN4inet13physicallayer27Ieee80211OfdmCompliantCodes24ofdmConvolutionalCode3_4E @4624 DATA
    _ZN4inet13physicallayer27Ieee80211OfdmCompliantCodes24ofdmConvolutionalCode5_6E @4625 DATA
    _ZN4inet13physicallayer27Ieee80211OfdmCompliantCodes25ofdmCC1_2BPSKInterleavingE @4626 DATA
    _ZN4inet13physicallayer27Ieee80211OfdmCompliantCodes25ofdmCC1_2QPSKInterleavingE @4627 DATA
    _ZN4inet13physicallayer27Ieee80211OfdmCompliantCodes25ofdmCC3_4BPSKInterleavingE @4628 DATA
    _ZN4inet13physicallayer27Ieee80211OfdmCompliantCodes25ofdmCC3_4QPSKInterleavingE @4629 DATA
    _ZN4inet13physicallayer27Ieee80211OfdmCompliantCodes26ofdmCC1_2QAM16InterleavingE @4630 DATA
    _ZN4inet13physicallayer27Ieee80211OfdmCompliantCodes26ofdmCC2_3QAM64InterleavingE @4631 DATA
    _ZN4inet13physicallayer27Ieee80211OfdmCompliantCodes26ofdmCC3_4QAM16InterleavingE @4632 DATA
    _ZN4inet13physicallayer27Ieee80211OfdmCompliantCodes26ofdmCC3_4QAM64InterleavingE @4633 DATA
    _ZN4inet13physicallayer27Ieee80211OfdmCompliantCodes26ofdmCC5_6QAM64InterleavingE @4634 DATA
    _ZN4inet13physicallayer27Ieee80211OfdmCompliantCodes27ofdmCC3_4QAM256InterleavingE @4635 DATA
    _ZN4inet13physicallayer27Ieee80211OfdmCompliantCodes27ofdmCC5_6QAM256InterleavingE @4636 DATA
    _ZN4inet13physicallayer27Ieee80211OfdmCompliantCodes28ofdmCC3_4QAM1024InterleavingE @4637 DATA
    _ZN4inet13physicallayer27Ieee80211OfdmCompliantCodes28ofdmCC5_6QAM1024InterleavingE @4638 DATA
    _ZN4inet13physicallayer27Ieee80211OfdmCompliantCodes42ofdmCC1_2BPSKInterleavingWithoutScramblingE @4639 DATA
    _ZN4inet13physicallayer27Ieee80211OfdmCompliantModes14ofdmMode27MbpsE @4640 DATA
    _ZN4inet13physicallayer27Ieee80211OfdmCompliantModes14ofdmMode36MbpsE @4641 DATA
    _ZN4inet13physicallayer27Ieee80211OfdmCompliantModes14ofdmMode48MbpsE @4642 DATA
    _ZN4inet13physicallayer27Ieee80211OfdmCompliantModes14ofdmMode54MbpsE @4643 DATA
    _ZN4inet13physicallayer27Ieee80211OfdmCompliantModes15ofdmMode1_5MbpsE @4644 DATA
    _ZN4inet13physicallayer27Ieee80211OfdmCompliantModes16getCompliantModeEjNS_5units5valueIdNS2_3powINS2_5units1sELin1ELi1EEEEE @4645
    _ZN4inet13physicallayer27Ieee80211OfdmCompliantModes16ofdmMode13_5MbpsE @4646 DATA
    _ZN4inet13physicallayer27Ieee80211OfdmCompliantModes16ofdmMode2_25MbpsE @4647 DATA
    _ZN4inet13physicallayer27Ieee80211OfdmCompliantModes18ofdmDataMode27MbpsE @4648 DATA
    _ZN4inet13physicallayer27Ieee80211OfdmCompliantModes18ofdmDataMode36MbpsE @4649 DATA
    _ZN4inet13physicallayer27Ieee80211OfdmCompliantModes18ofdmDataMode48MbpsE @4650 DATA
    _ZN4inet13physicallayer27Ieee80211OfdmCompliantModes18ofdmDataMode54MbpsE @4651 DATA
    _ZN4inet13physicallayer27Ieee80211OfdmCompliantModes19ofdmDataMode1_5MbpsE @4652 DATA
    _ZN4inet13physicallayer27Ieee80211OfdmCompliantModes19ofdmMode3MbpsCS5MHzE @4653 DATA
    _ZN4inet13physicallayer27Ieee80211OfdmCompliantModes19ofdmMode6MbpsCS5MHzE @4654 DATA
    _ZN4inet13physicallayer27Ieee80211OfdmCompliantModes19ofdmMode9MbpsCS5MHzE @4655 DATA
    _ZN4inet13physicallayer27Ieee80211OfdmCompliantModes20ofdmDataMode13_5MbpsE @4656 DATA
    _ZN4inet13physicallayer27Ieee80211OfdmCompliantModes20ofdmDataMode2_25MbpsE @4657 DATA
    _ZN4inet13physicallayer27Ieee80211OfdmCompliantModes20ofdmMode12MbpsCS5MHzE @4658 DATA
    _ZN4inet13physicallayer27Ieee80211OfdmCompliantModes20ofdmMode3MbpsCS10MHzE @4659 DATA
    _ZN4inet13physicallayer27Ieee80211OfdmCompliantModes20ofdmMode6MbpsCS10MHzE @4660 DATA
    _ZN4inet13physicallayer27Ieee80211OfdmCompliantModes20ofdmMode6MbpsCS20MHzE @4661 DATA
    _ZN4inet13physicallayer27Ieee80211OfdmCompliantModes20ofdmMode9MbpsCS10MHzE @4662 DATA
    _ZN4inet13physicallayer27Ieee80211OfdmCompliantModes20ofdmMode9MbpsCS20MHzE @4663 DATA
    _ZN4inet13physicallayer27Ieee80211OfdmCompliantModes21ofdmMode12MbpsCS10MHzE @4664 DATA
    _ZN4inet13physicallayer27Ieee80211OfdmCompliantModes21ofdmMode12MbpsCS20MHzE @4665 DATA
    _ZN4inet13physicallayer27Ieee80211OfdmCompliantModes21ofdmMode18MbpsCS10MHzE @4666 DATA
    _ZN4inet13physicallayer27Ieee80211OfdmCompliantModes21ofdmMode18MbpsCS20MHzE @4667 DATA
    _ZN4inet13physicallayer27Ieee80211OfdmCompliantModes21ofdmMode24MbpsCS10MHzE @4668 DATA
    _ZN4inet13physicallayer27Ieee80211OfdmCompliantModes21ofdmMode24MbpsCS20MHzE @4669 DATA
    _ZN4inet13physicallayer27Ieee80211OfdmCompliantModes21ofdmMode4_5MbpsCS5MHzE @4670 DATA
    _ZN4inet13physicallayer27Ieee80211OfdmCompliantModes22ofdmMode4_5MbpsCS10MHzE @4671 DATA
    _ZN4inet13physicallayer27Ieee80211OfdmCompliantModes22ofdmPreambleModeCS5MHzE @4672 DATA
    _ZN4inet13physicallayer27Ieee80211OfdmCompliantModes23ofdmDataMode3MbpsCS5MHzE @4673 DATA
    _ZN4inet13physicallayer27Ieee80211OfdmCompliantModes23ofdmDataMode6MbpsCS5MHzE @4674 DATA
    _ZN4inet13physicallayer27Ieee80211OfdmCompliantModes23ofdmDataMode9MbpsCS5MHzE @4675 DATA
    _ZN4inet13physicallayer27Ieee80211OfdmCompliantModes23ofdmPreambleModeCS10MHzE @4676 DATA
    _ZN4inet13physicallayer27Ieee80211OfdmCompliantModes23ofdmPreambleModeCS20MHzE @4677 DATA
    _ZN4inet13physicallayer27Ieee80211OfdmCompliantModes24ofdmDataMode12MbpsCS5MHzE @4678 DATA
    _ZN4inet13physicallayer27Ieee80211OfdmCompliantModes24ofdmDataMode3MbpsCS10MHzE @4679 DATA
    _ZN4inet13physicallayer27Ieee80211OfdmCompliantModes24ofdmDataMode6MbpsCS10MHzE @4680 DATA
    _ZN4inet13physicallayer27Ieee80211OfdmCompliantModes24ofdmDataMode6MbpsCS20MHzE @4681 DATA
    _ZN4inet13physicallayer27Ieee80211OfdmCompliantModes24ofdmDataMode9MbpsCS10MHzE @4682 DATA
    _ZN4inet13physicallayer27Ieee80211OfdmCompliantModes24ofdmDataMode9MbpsCS20MHzE @4683 DATA
    _ZN4inet13physicallayer27Ieee80211OfdmCompliantModes24ofdmHeaderMode3MbpsRate1E @4684 DATA
    _ZN4inet13physicallayer27Ieee80211OfdmCompliantModes24ofdmHeaderMode3MbpsRate3E @4685 DATA
    _ZN4inet13physicallayer27Ieee80211OfdmCompliantModes24ofdmHeaderMode3MbpsRate5E @4686 DATA
    _ZN4inet13physicallayer27Ieee80211OfdmCompliantModes24ofdmHeaderMode3MbpsRate7E @4687 DATA
    _ZN4inet13physicallayer27Ieee80211OfdmCompliantModes24ofdmHeaderMode3MbpsRate9E @4688 DATA
    _ZN4inet13physicallayer27Ieee80211OfdmCompliantModes24ofdmHeaderMode6MbpsRate1E @4689 DATA
    _ZN4inet13physicallayer27Ieee80211OfdmCompliantModes24ofdmHeaderMode6MbpsRate3E @4690 DATA
    _ZN4inet13physicallayer27Ieee80211OfdmCompliantModes24ofdmHeaderMode6MbpsRate5E @4691 DATA
    _ZN4inet13physicallayer27Ieee80211OfdmCompliantModes24ofdmHeaderMode6MbpsRate7E @4692 DATA
    _ZN4inet13physicallayer27Ieee80211OfdmCompliantModes24ofdmHeaderMode6MbpsRate9E @4693 DATA
    _ZN4inet13physicallayer27Ieee80211OfdmCompliantModes25ofdmDataMode12MbpsCS10MHzE @4694 DATA
    _ZN4inet13physicallayer27Ieee80211OfdmCompliantModes25ofdmDataMode12MbpsCS20MHzE @4695 DATA
    _ZN4inet13physicallayer27Ieee80211OfdmCompliantModes25ofdmDataMode18MbpsCS10MHzE @4696 DATA
    _ZN4inet13physicallayer27Ieee80211OfdmCompliantModes25ofdmDataMode18MbpsCS20MHzE @4697 DATA
    _ZN4inet13physicallayer27Ieee80211OfdmCompliantModes25ofdmDataMode24MbpsCS10MHzE @4698 DATA
    _ZN4inet13physicallayer27Ieee80211OfdmCompliantModes25ofdmDataMode24MbpsCS20MHzE @4699 DATA
    _ZN4inet13physicallayer27Ieee80211OfdmCompliantModes25ofdmDataMode4_5MbpsCS5MHzE @4700 DATA
    _ZN4inet13physicallayer27Ieee80211OfdmCompliantModes25ofdmHeaderMode3MbpsRate11E @4701 DATA
    _ZN4inet13physicallayer27Ieee80211OfdmCompliantModes25ofdmHeaderMode3MbpsRate13E @4702 DATA
    _ZN4inet13physicallayer27Ieee80211OfdmCompliantModes25ofdmHeaderMode3MbpsRate15E @4703 DATA
    _ZN4inet13physicallayer27Ieee80211OfdmCompliantModes25ofdmHeaderMode6MbpsRate11E @4704 DATA
    _ZN4inet13physicallayer27Ieee80211OfdmCompliantModes25ofdmHeaderMode6MbpsRate13E @4705 DATA
    _ZN4inet13physicallayer27Ieee80211OfdmCompliantModes25ofdmHeaderMode6MbpsRate15E @4706 DATA
    _ZN4inet13physicallayer27Ieee80211OfdmCompliantModes26ofdmDataMode4_5MbpsCS10MHzE @4707 DATA
    _ZN4inet13physicallayer27Ieee80211OfdmCompliantModes26ofdmHeaderMode1_5MbpsRate1E @4708 DATA
    _ZN4inet13physicallayer27Ieee80211OfdmCompliantModes26ofdmHeaderMode1_5MbpsRate3E @4709 DATA
    _ZN4inet13physicallayer27Ieee80211OfdmCompliantModes26ofdmHeaderMode1_5MbpsRate5E @4710 DATA
    _ZN4inet13physicallayer27Ieee80211OfdmCompliantModes26ofdmHeaderMode1_5MbpsRate7E @4711 DATA
    _ZN4inet13physicallayer27Ieee80211OfdmCompliantModes26ofdmHeaderMode1_5MbpsRate9E @4712 DATA
    _ZN4inet13physicallayer27Ieee80211OfdmCompliantModes27ofdmHeaderMode1_5MbpsRate11E @4713 DATA
    _ZN4inet13physicallayer27Ieee80211OfdmCompliantModes27ofdmHeaderMode1_5MbpsRate13E @4714 DATA
    _ZN4inet13physicallayer27Ieee80211OfdmCompliantModes27ofdmHeaderMode1_5MbpsRate15E @4715 DATA
    _ZN4inet13physicallayer27Ieee80211ScalarTransmissionC1EPKNS0_6IRadioEPKNS_6PacketEN7omnetpp7SimTimeES9_S9_S9_S9_NS_5CoordESA_NS_10QuaternionESB_PKNS0_11IModulationENS_5units5valueIxNSF_5units1bEEESJ_NSG_IdNSF_3powINSH_1sELin1ELi1EEEEESN_NSG_IdNSF_7composeISI_SM_EEEENSG_IdNSO_INSO_INSO_INSH_1mENSO_INSH_2kgENSK_ISL_Lin2ELi1EEEEEEESR_EESM_EEEEPKNS0_14IIeee80211ModeEPKNS0_16Ieee80211ChannelE @4716
    _ZN4inet13physicallayer27Ieee80211ScalarTransmissionC2EPKNS0_6IRadioEPKNS_6PacketEN7omnetpp7SimTimeES9_S9_S9_S9_NS_5CoordESA_NS_10QuaternionESB_PKNS0_11IModulationENS_5units5valueIxNSF_5units1bEEESJ_NSG_IdNSF_3powINSH_1sELin1ELi1EEEEESN_NSG_IdNSF_7composeISI_SM_EEEENSG_IdNSO_INSO_INSO_INSH_1mENSO_INSH_2kgENSK_ISL_Lin2ELi1EEEEEEESR_EESM_EEEEPKNS0_14IIeee80211ModeEPKNS0_16Ieee80211ChannelE @4717
    _ZN4inet13physicallayer27NarrowbandSignalAnalogModelC2EN7omnetpp7SimTimeENS_5units5valueIdNS4_3powINS4_5units1sELin1ELi1EEEEESA_ @4718
    _ZN4inet13physicallayer27NoiseDimensionalTransmitter10initializeEi @4719
    _ZN4inet13physicallayer27ReferenceCommunicationCache11removeRadioEPKNS0_6IRadioE @4720
    _ZN4inet13physicallayer27ReferenceCommunicationCache15addTransmissionEPKNS0_13ITransmissionE @4721
    _ZN4inet13physicallayer27ReferenceCommunicationCache18getRadioCacheEntryEPKNS0_6IRadioE @4722
    _ZN4inet13physicallayer27ReferenceCommunicationCache18removeTransmissionEPKNS0_13ITransmissionE @4723
    _ZN4inet13physicallayer27ReferenceCommunicationCache22getReceptionCacheEntryEPKNS0_6IRadioEPKNS0_13ITransmissionE @4724
    _ZN4inet13physicallayer27ReferenceCommunicationCache25getTransmissionCacheEntryEPKNS0_13ITransmissionE @4725
    _ZN4inet13physicallayer27ReferenceCommunicationCache31computeInterferingTransmissionsEPKNS0_6IRadioEN7omnetpp7SimTimeES6_ @4726
    _ZN4inet13physicallayer27ReferenceCommunicationCache33removeNonInterferingTransmissionsESt8functionIFvPKNS0_13ITransmissionEEE @4727
    _ZN4inet13physicallayer27ReferenceCommunicationCache8addRadioEPKNS0_6IRadioE @4728
    _ZN4inet13physicallayer27ReferenceCommunicationCacheD0Ev @4729
    _ZN4inet13physicallayer27ReferenceCommunicationCacheD1Ev @4730
    _ZN4inet13physicallayer27ReferenceCommunicationCacheD2Ev @4731
    _ZN4inet13physicallayer27StochasticLayeredErrorModel10initializeEi @4732
    _ZN4inet13physicallayer27StochasticLayeredErrorModelC1Ev @4733
    _ZN4inet13physicallayer27StochasticLayeredErrorModelC2Ev @4734
    _ZN4inet13physicallayer28DimensionalSignalAnalogModelC1EN7omnetpp7SimTimeENS_5units5valueIdNS4_3powINS4_5units1sELin1ELi1EEEEESA_RKNS_12IntrusivePtrIKNS_4math9IFunctionINS5_IdNS4_7composeINSE_INSE_INSE_INS7_1mENSE_INS7_2kgENS6_IS8_Lin2ELi1EEEEEEESF_EES9_EENS6_IS9_Lin1ELi1EEEEEEENSC_6DomainIJNS5_IS3_S8_EESA_EEEEEEE @4735
    _ZN4inet13physicallayer28DimensionalSignalAnalogModelC2EN7omnetpp7SimTimeENS_5units5valueIdNS4_3powINS4_5units1sELin1ELi1EEEEESA_RKNS_12IntrusivePtrIKNS_4math9IFunctionINS5_IdNS4_7composeINSE_INSE_INSE_INS7_1mENSE_INS7_2kgENS6_IS8_Lin2ELi1EEEEEEESF_EES9_EENS6_IS9_Lin1ELi1EEEEEEENSC_6DomainIJNS5_IS3_S8_EESA_EEEEEEE @4736
    _ZN4inet13physicallayer28Ieee80211DimensionalReceiverC1Ev @4737
    _ZN4inet13physicallayer28Ieee80211DimensionalReceiverC2Ev @4738
    _ZN4inet13physicallayer28Ieee80211LayeredOfdmReceiver10initializeEi @4739
    _ZN4inet13physicallayer28Ieee80211LayeredOfdmReceiverD0Ev @4740
    _ZN4inet13physicallayer28Ieee80211LayeredOfdmReceiverD1Ev @4741
    _ZN4inet13physicallayer28Ieee80211LayeredOfdmReceiverD2Ev @4742
    _ZN4inet13physicallayer28Ieee80211LayeredTransmissionC1EPKNS0_24ITransmissionPacketModelEPKNS0_21ITransmissionBitModelEPKNS0_24ITransmissionSymbolModelEPKNS0_24ITransmissionSampleModelEPKNS0_24ITransmissionAnalogModelEPKNS0_6IRadioEPKNS_6PacketEN7omnetpp7SimTimeESO_SO_SO_SO_NS_5CoordESP_NS_10QuaternionESQ_PKNS0_14IIeee80211ModeEPKNS0_16Ieee80211ChannelE @4743
    _ZN4inet13physicallayer28Ieee80211LayeredTransmissionC2EPKNS0_24ITransmissionPacketModelEPKNS0_21ITransmissionBitModelEPKNS0_24ITransmissionSymbolModelEPKNS0_24ITransmissionSampleModelEPKNS0_24ITransmissionAnalogModelEPKNS0_6IRadioEPKNS_6PacketEN7omnetpp7SimTimeESO_SO_SO_SO_NS_5CoordESP_NS_10QuaternionESQ_PKNS0_14IIeee80211ModeEPKNS0_16Ieee80211ChannelE @4744
    _ZN4inet13physicallayer28Ieee80211OfdmModulatorModule10initializeEi @4745
    _ZN4inet13physicallayer28Ieee80211OfdmModulatorModuleD0Ev @4746
    _ZN4inet13physicallayer28Ieee80211OfdmModulatorModuleD1Ev @4747
    _ZN4inet13physicallayer28Ieee80211OfdmModulatorModuleD2Ev @4748
    _ZN4inet13physicallayer28Ieee80211UnitDiskTransmitter10initializeEi @4749
    _ZN4inet13physicallayer28Ieee80211UnitDiskTransmitterC1Ev @4750
    _ZN4inet13physicallayer28Ieee80211UnitDiskTransmitterC2Ev @4751
    _ZN4inet13physicallayer28ScalarAnalogDigitalConverterC1Ev @4752
    _ZN4inet13physicallayer28ScalarAnalogDigitalConverterC2Ev @4753
    _ZN4inet13physicallayer28ScalarDigitalAnalogConverterC1Ev @4754
    _ZN4inet13physicallayer28ScalarDigitalAnalogConverterC2Ev @4755
    _ZN4inet13physicallayer29Ieee80211HrDsssCompliantModes27hrDsssMode1MbpsLongPreambleE @4756 DATA
    _ZN4inet13physicallayer29Ieee80211HrDsssCompliantModes27hrDsssMode2MbpsLongPreambleE @4757 DATA
    _ZN4inet13physicallayer29Ieee80211HrDsssCompliantModes28hrDsssMode2MbpsShortPreambleE @4758 DATA
    _ZN4inet13physicallayer29Ieee80211HrDsssCompliantModes31hrDsssDataMode1MbpsLongPreambleE @4759 DATA
    _ZN4inet13physicallayer29Ieee80211HrDsssCompliantModes31hrDsssDataMode2MbpsLongPreambleE @4760 DATA
    _ZN4inet13physicallayer29Ieee80211HrDsssCompliantModes31hrDsssMode11MbpsCckLongPreambleE @4761 DATA
    _ZN4inet13physicallayer29Ieee80211HrDsssCompliantModes32hrDsssDataMode2MbpsShortPreambleE @4762 DATA
    _ZN4inet13physicallayer29Ieee80211HrDsssCompliantModes32hrDsssMode11MbpsCckShortPreambleE @4763 DATA
    _ZN4inet13physicallayer29Ieee80211HrDsssCompliantModes32hrDsssMode11MbpsPbccLongPreambleE @4764 DATA
    _ZN4inet13physicallayer29Ieee80211HrDsssCompliantModes32hrDsssMode5_5MbpsCckLongPreambleE @4765 DATA
    _ZN4inet13physicallayer29Ieee80211HrDsssCompliantModes33hrDsssHeaderMode1MbpsLongPreambleE @4766 DATA
    _ZN4inet13physicallayer29Ieee80211HrDsssCompliantModes33hrDsssMode11MbpsPbccShortPreambleE @4767 DATA
    _ZN4inet13physicallayer29Ieee80211HrDsssCompliantModes33hrDsssMode5_5MbpsCckShortPreambleE @4768 DATA
    _ZN4inet13physicallayer29Ieee80211HrDsssCompliantModes33hrDsssMode5_5MbpsPbccLongPreambleE @4769 DATA
    _ZN4inet13physicallayer29Ieee80211HrDsssCompliantModes34hrDsssHeaderMode2MbpsShortPreambleE @4770 DATA
    _ZN4inet13physicallayer29Ieee80211HrDsssCompliantModes35hrDsssDataMode11MbpsCckLongPreambleE @4771 DATA
    _ZN4inet13physicallayer29Ieee80211HrDsssCompliantModes35hrDsssPreambleMode1MbpsLongPreambleE @4772 DATA
    _ZN4inet13physicallayer29Ieee80211HrDsssCompliantModes36hrDsssDataMode11MbpsCckShortPreambleE @4773 DATA
    _ZN4inet13physicallayer29Ieee80211HrDsssCompliantModes36hrDsssDataMode11MbpsPbccLongPreambleE @4774 DATA
    _ZN4inet13physicallayer29Ieee80211HrDsssCompliantModes36hrDsssDataMode5_5MbpsCckLongPreambleE @4775 DATA
    _ZN4inet13physicallayer29Ieee80211HrDsssCompliantModes36hrDsssPreambleMode1MbpsShortPreambleE @4776 DATA
    _ZN4inet13physicallayer29Ieee80211HrDsssCompliantModes37hrDsssDataMode11MbpsPbccShortPreambleE @4777 DATA
    _ZN4inet13physicallayer29Ieee80211HrDsssCompliantModes37hrDsssDataMode5_5MbpsCckShortPreambleE @4778 DATA
    _ZN4inet13physicallayer29Ieee80211HrDsssCompliantModes37hrDsssDataMode5_5MbpsPbccLongPreambleE @4779 DATA
    _ZN4inet13physicallayer29Ieee80211UnitDiskTransmissionC1EPKNS0_6IRadioEPKNS_6PacketEN7omnetpp7SimTimeES9_S9_S9_S9_NS_5CoordESA_NS_10QuaternionESB_NS_5units5valueIdNSC_5units1mEEESG_SG_PKNS0_14IIeee80211ModeEPKNS0_16Ieee80211ChannelE @4780
    _ZN4inet13physicallayer29Ieee80211UnitDiskTransmissionC2EPKNS0_6IRadioEPKNS_6PacketEN7omnetpp7SimTimeES9_S9_S9_S9_NS_5CoordESA_NS_10QuaternionESB_NS_5units5valueIdNSC_5units1mEEESG_SG_PKNS0_14IIeee80211ModeEPKNS0_16Ieee80211ChannelE @4781
    _ZN4inet13physicallayer30Ieee80211ConfigureRadioCommand10setChannelEPNS0_16Ieee80211ChannelE @4782
    _ZN4inet13physicallayer30Ieee80211ConfigureRadioCommand10setModeSetEPKNS0_16Ieee80211ModeSetE @4783
    _ZN4inet13physicallayer30Ieee80211ConfigureRadioCommand12parsimUnpackEPN7omnetpp11cCommBufferE @4784
    _ZN4inet13physicallayer30Ieee80211ConfigureRadioCommand16setChannelNumberEi @4785
    _ZN4inet13physicallayer30Ieee80211ConfigureRadioCommand4copyERKS1_ @4786
    _ZN4inet13physicallayer30Ieee80211ConfigureRadioCommand7setBandEPNS0_14IIeee80211BandE @4787
    _ZN4inet13physicallayer30Ieee80211ConfigureRadioCommand7setModeEPKNS0_14IIeee80211ModeE @4788
    _ZN4inet13physicallayer30Ieee80211ConfigureRadioCommand9setOpModeEPKc @4789
    _ZN4inet13physicallayer30Ieee80211ConfigureRadioCommandC1ERKS1_ @4790
    _ZN4inet13physicallayer30Ieee80211ConfigureRadioCommandC1Ev @4791
    _ZN4inet13physicallayer30Ieee80211ConfigureRadioCommandC2ERKS1_ @4792
    _ZN4inet13physicallayer30Ieee80211ConfigureRadioCommandC2Ev @4793
    _ZN4inet13physicallayer30Ieee80211ConfigureRadioCommandD0Ev @4794
    _ZN4inet13physicallayer30Ieee80211ConfigureRadioCommandD1Ev @4795
    _ZN4inet13physicallayer30Ieee80211ConfigureRadioCommandD2Ev @4796
    _ZN4inet13physicallayer30Ieee80211ConfigureRadioCommandaSERKS1_ @4797
    _ZN4inet13physicallayer30Ieee80211ErpOfdmCompliantModes16erpOfdmMode6MbpsE @4798 DATA
    _ZN4inet13physicallayer30Ieee80211ErpOfdmCompliantModes16erpOfdmMode9MbpsE @4799 DATA
    _ZN4inet13physicallayer30Ieee80211ErpOfdmCompliantModes17erpOfdmMode12MbpsE @4800 DATA
    _ZN4inet13physicallayer30Ieee80211ErpOfdmCompliantModes17erpOfdmMode18MbpsE @4801 DATA
    _ZN4inet13physicallayer30Ieee80211ErpOfdmCompliantModes17erpOfdmMode24MbpsE @4802 DATA
    _ZN4inet13physicallayer30Ieee80211ErpOfdmCompliantModes17erpOfdmMode36MbpsE @4803 DATA
    _ZN4inet13physicallayer30Ieee80211ErpOfdmCompliantModes17erpOfdmMode48MbpsE @4804 DATA
    _ZN4inet13physicallayer30Ieee80211ErpOfdmCompliantModes17erpOfdmMode54MbpsE @4805 DATA
    _ZN4inet13physicallayer30Ieee80211ErpOfdmCompliantModes20erpOnlyOfdmMode6MbpsE @4806 DATA
    _ZN4inet13physicallayer30Ieee80211ErpOfdmCompliantModes20erpOnlyOfdmMode9MbpsE @4807 DATA
    _ZN4inet13physicallayer30Ieee80211ErpOfdmCompliantModes21erpOnlyOfdmMode12MbpsE @4808 DATA
    _ZN4inet13physicallayer30Ieee80211ErpOfdmCompliantModes21erpOnlyOfdmMode18MbpsE @4809 DATA
    _ZN4inet13physicallayer30Ieee80211ErpOfdmCompliantModes21erpOnlyOfdmMode24MbpsE @4810 DATA
    _ZN4inet13physicallayer30Ieee80211ErpOfdmCompliantModes21erpOnlyOfdmMode36MbpsE @4811 DATA
    _ZN4inet13physicallayer30Ieee80211ErpOfdmCompliantModes21erpOnlyOfdmMode48MbpsE @4812 DATA
    _ZN4inet13physicallayer30Ieee80211ErpOfdmCompliantModes21erpOnlyOfdmMode54MbpsE @4813 DATA
    _ZN4inet13physicallayer30Ieee80211OfdmDemodulatorModule10initializeEi @4814
    _ZN4inet13physicallayer30Ieee80211OfdmDemodulatorModuleD0Ev @4815
    _ZN4inet13physicallayer30Ieee80211OfdmDemodulatorModuleD1Ev @4816
    _ZN4inet13physicallayer30Ieee80211OfdmDemodulatorModuleD2Ev @4817
    _ZN4inet13physicallayer30Ieee80211OfdmInterleaverModule10initializeEi @4818
    _ZN4inet13physicallayer30Ieee80211OfdmInterleaverModuleD0Ev @4819
    _ZN4inet13physicallayer30Ieee80211OfdmInterleaverModuleD1Ev @4820
    _ZN4inet13physicallayer30Ieee80211OfdmInterleaverModuleD2Ev @4821
    _ZN4inet13physicallayer30IsotropicScalarBackgroundNoise10initializeEi @4822
    _ZN4inet13physicallayer31Ieee80211DimensionalTransmitter10initializeEi @4823
    _ZN4inet13physicallayer31Ieee80211DimensionalTransmitterC1Ev @4824
    _ZN4inet13physicallayer31Ieee80211DimensionalTransmitterC2Ev @4825
    _ZN4inet13physicallayer31Ieee80211LayeredOfdmTransmitter10initializeEi @4826
    _ZN4inet13physicallayer31Ieee80211LayeredOfdmTransmitterD0Ev @4827
    _ZN4inet13physicallayer31Ieee80211LayeredOfdmTransmitterD1Ev @4828
    _ZN4inet13physicallayer31Ieee80211LayeredOfdmTransmitterD2Ev @4829
    _ZN4inet13physicallayer32Ieee80211DimensionalTransmissionC1EPKNS0_6IRadioEPKNS_6PacketEN7omnetpp7SimTimeES9_S9_S9_S9_NS_5CoordESA_NS_10QuaternionESB_PKNS0_11IModulationENS_5units5valueIxNSF_5units1bEEESJ_NSG_IdNSF_3powINSH_1sELin1ELi1EEEEESN_NSG_IdNSF_7composeISI_SM_EEEERKNS_12IntrusivePtrIKNS_4math9IFunctionINSG_IdNSO_INSO_INSO_INSO_INSH_1mENSO_INSH_2kgENSK_ISL_Lin2ELi1EEEEEEESU_EESM_EENSK_ISM_Lin1ELi1EEEEEEENSS_6DomainIJNSG_IS9_SL_EESN_EEEEEEEPKNS0_14IIeee80211ModeEPKNS0_16Ieee80211ChannelE @4830
    _ZN4inet13physicallayer32Ieee80211DimensionalTransmissionC2EPKNS0_6IRadioEPKNS_6PacketEN7omnetpp7SimTimeES9_S9_S9_S9_NS_5CoordESA_NS_10QuaternionESB_PKNS0_11IModulationENS_5units5valueIxNSF_5units1bEEESJ_NSG_IdNSF_3powINSH_1sELin1ELi1EEEEESN_NSG_IdNSF_7composeISI_SM_EEEERKNS_12IntrusivePtrIKNS_4math9IFunctionINSG_IdNSO_INSO_INSO_INSO_INSH_1mENSO_INSH_2kgENSK_ISL_Lin2ELi1EEEEEEESU_EESM_EENSK_ISM_Lin1ELi1EEEEEEENSS_6DomainIJNSG_IS9_SL_EESN_EEEEEEEPKNS0_14IIeee80211ModeEPKNS0_16Ieee80211ChannelE @4831
    _ZN4inet13physicallayer32ScalarReceptionSignalAnalogModelC1EN7omnetpp7SimTimeENS_5units5valueIdNS4_3powINS4_5units1sELin1ELi1EEEEESA_NS5_IdNS4_7composeINSB_INSB_INS7_1mENSB_INS7_2kgENS6_IS8_Lin2ELi1EEEEEEESC_EES9_EEEE @4832
    _ZN4inet13physicallayer32ScalarReceptionSignalAnalogModelC2EN7omnetpp7SimTimeENS_5units5valueIdNS4_3powINS4_5units1sELin1ELi1EEEEESA_NS5_IdNS4_7composeINSB_INSB_INS7_1mENSB_INS7_2kgENS6_IS8_Lin2ELi1EEEEEEESC_EES9_EEEE @4833
    _ZN4inet13physicallayer33Ieee80211OfdmCompliantModulations14bpskModulationE @4834 DATA
    _ZN4inet13physicallayer33Ieee80211OfdmCompliantModulations14qpskModulationE @4835 DATA
    _ZN4inet13physicallayer33Ieee80211OfdmCompliantModulations15qam16ModulationE @4836 DATA
    _ZN4inet13physicallayer33Ieee80211OfdmCompliantModulations15qam64ModulationE @4837 DATA
    _ZN4inet13physicallayer33Ieee80211OfdmCompliantModulations15qbpskModulationE @4838 DATA
    _ZN4inet13physicallayer33Ieee80211OfdmCompliantModulations16qam256ModulationE @4839 DATA
    _ZN4inet13physicallayer33Ieee80211OfdmReceptionSymbolModelC1EididPKSt6vectorIPKNS0_7ISymbolESaIS5_EE @4840
    _ZN4inet13physicallayer33Ieee80211OfdmReceptionSymbolModelC2EididPKSt6vectorIPKNS0_7ISymbolESaIS5_EE @4841
    _ZN4inet13physicallayer33Ieee80211OfdmReceptionSymbolModelD0Ev @4842
    _ZN4inet13physicallayer33Ieee80211OfdmReceptionSymbolModelD1Ev @4843
    _ZN4inet13physicallayer33Ieee80211OfdmReceptionSymbolModelD2Ev @4844
    _ZN4inet13physicallayer34Ieee802154NarrowbandScalarReceiver10initializeEi @4845
    _ZN4inet13physicallayer34Ieee802154NarrowbandScalarReceiverC1Ev @4846
    _ZN4inet13physicallayer34Ieee802154NarrowbandScalarReceiverC2Ev @4847
    _ZN4inet13physicallayer35IsotropicDimensionalBackgroundNoise10initializeEi @4848
    _ZN4inet13physicallayer35ScalarTransmissionSignalAnalogModelC1EN7omnetpp7SimTimeENS_5units5valueIdNS4_3powINS4_5units1sELin1ELi1EEEEESA_NS5_IdNS4_7composeINSB_INSB_INS7_1mENSB_INS7_2kgENS6_IS8_Lin2ELi1EEEEEEESC_EES9_EEEE @4849
    _ZN4inet13physicallayer35ScalarTransmissionSignalAnalogModelC2EN7omnetpp7SimTimeENS_5units5valueIdNS4_3powINS4_5units1sELin1ELi1EEEEESA_NS5_IdNS4_7composeINSB_INSB_INS7_1mENSB_INS7_2kgENS6_IS8_Lin2ELi1EEEEEEESC_EES9_EEEE @4850
    _ZN4inet13physicallayer36Ieee80211OfdmTransmissionSymbolModelC1EididPKSt6vectorIPKNS0_7ISymbolESaIS5_EEPKNS0_11IModulationESC_ @4851
    _ZN4inet13physicallayer36Ieee80211OfdmTransmissionSymbolModelC2EididPKSt6vectorIPKNS0_7ISymbolESaIS5_EEPKNS0_11IModulationESC_ @4852
    _ZN4inet13physicallayer36Ieee80211OfdmTransmissionSymbolModelD0Ev @4853
    _ZN4inet13physicallayer36Ieee80211OfdmTransmissionSymbolModelD1Ev @4854
    _ZN4inet13physicallayer36Ieee80211OfdmTransmissionSymbolModelD2Ev @4855
    _ZN4inet13physicallayer37DimensionalReceptionSignalAnalogModelC1EN7omnetpp7SimTimeENS_5units5valueIdNS4_3powINS4_5units1sELin1ELi1EEEEESA_RKNS_12IntrusivePtrIKNS_4math9IFunctionINS5_IdNS4_7composeINSE_INSE_INSE_INS7_1mENSE_INS7_2kgENS6_IS8_Lin2ELi1EEEEEEESF_EES9_EENS6_IS9_Lin1ELi1EEEEEEENSC_6DomainIJNS5_IS3_S8_EESA_EEEEEEE @4856
    _ZN4inet13physicallayer37DimensionalReceptionSignalAnalogModelC2EN7omnetpp7SimTimeENS_5units5valueIdNS4_3powINS4_5units1sELin1ELi1EEEEESA_RKNS_12IntrusivePtrIKNS_4math9IFunctionINS5_IdNS4_7composeINSE_INSE_INSE_INS7_1mENSE_INS7_2kgENS6_IS8_Lin2ELi1EEEEEEESF_EES9_EENS6_IS9_Lin1ELi1EEEEEEENSC_6DomainIJNS5_IS3_S8_EESA_EEEEEEE @4857
    _ZN4inet13physicallayer37Ieee802154NarrowbandScalarTransmitterC1Ev @4858
    _ZN4inet13physicallayer37Ieee802154NarrowbandScalarTransmitterC2Ev @4859
    _ZN4inet13physicallayer39Ieee802154NarrowbandDimensionalReceiver10initializeEi @4860
    _ZN4inet13physicallayer39Ieee802154NarrowbandDimensionalReceiverC1Ev @4861
    _ZN4inet13physicallayer39Ieee802154NarrowbandDimensionalReceiverC2Ev @4862
    _ZN4inet13physicallayer40DimensionalTransmissionSignalAnalogModelC1EN7omnetpp7SimTimeENS_5units5valueIdNS4_3powINS4_5units1sELin1ELi1EEEEESA_RKNS_12IntrusivePtrIKNS_4math9IFunctionINS5_IdNS4_7composeINSE_INSE_INSE_INS7_1mENSE_INS7_2kgENS6_IS8_Lin2ELi1EEEEEEESF_EES9_EENS6_IS9_Lin1ELi1EEEEEEENSC_6DomainIJNS5_IS3_S8_EESA_EEEEEEE @4863
    _ZN4inet13physicallayer40DimensionalTransmissionSignalAnalogModelC2EN7omnetpp7SimTimeENS_5units5valueIdNS4_3powINS4_5units1sELin1ELi1EEEEESA_RKNS_12IntrusivePtrIKNS_4math9IFunctionINS5_IdNS4_7composeINSE_INSE_INSE_INS7_1mENSE_INS7_2kgENS6_IS8_Lin2ELi1EEEEEEESF_EES9_EENS6_IS9_Lin1ELi1EEEEEEENSC_6DomainIJNS5_IS3_S8_EESA_EEEEEEE @4864
    _ZN4inet13physicallayer42Ieee802154NarrowbandDimensionalTransmitter10initializeEi @4865
    _ZN4inet13physicallayer42Ieee802154NarrowbandDimensionalTransmitterC1Ev @4866
    _ZN4inet13physicallayer42Ieee802154NarrowbandDimensionalTransmitterC2Ev @4867
    _ZN4inet13physicallayer5Radio10initializeEi @4868
    _ZN4inet13physicallayer5Radio12endReceptionEPN7omnetpp8cMessageE @4869
    _ZN4inet13physicallayer5Radio12handleSignalEPNS0_6SignalE @4870
    _ZN4inet13physicallayer5Radio12setRadioModeENS0_6IRadio9RadioModeE @4871
    _ZN4inet13physicallayer5Radio14abortReceptionEPN7omnetpp8cMessageE @4872
    _ZN4inet13physicallayer5Radio14startReceptionEPN7omnetpp8cMessageENS0_12IRadioSignal10SignalPartE @4873
    _ZN4inet13physicallayer5Radio15endTransmissionEv @4874
    _ZN4inet13physicallayer5Radio16captureReceptionEPN7omnetpp8cMessageE @4875
    _ZN4inet13physicallayer5Radio17abortTransmissionEv @4876
    _ZN4inet13physicallayer5Radio17continueReceptionEPN7omnetpp8cMessageE @4877
    _ZN4inet13physicallayer5Radio17handleSelfMessageEPN7omnetpp8cMessageE @4878
    _ZN4inet13physicallayer5Radio17handleSwitchTimerEPN7omnetpp8cMessageE @4879
    _ZN4inet13physicallayer5Radio17handleUpperPacketEPNS_6PacketE @4880
    _ZN4inet13physicallayer5Radio17startTransmissionEPNS_6PacketENS0_12IRadioSignal10SignalPartE @4881
    _ZN4inet13physicallayer5Radio18handleLowerCommandEPN7omnetpp8cMessageE @4882
    _ZN4inet13physicallayer5Radio18handleUpperCommandEPN7omnetpp8cMessageE @4883
    _ZN4inet13physicallayer5Radio19handleStopOperationEPNS_18LifecycleOperationE @4884
    _ZN4inet13physicallayer5Radio19initializeRadioModeEv @4885
    _ZN4inet13physicallayer5Radio20continueTransmissionEv @4886
    _ZN4inet13physicallayer5Radio20handleCrashOperationEPNS_18LifecycleOperationE @4887
    _ZN4inet13physicallayer5Radio20handleReceptionTimerEPN7omnetpp8cMessageE @4888
    _ZN4inet13physicallayer5Radio20handleStartOperationEPNS_18LifecycleOperationE @4889
    _ZN4inet13physicallayer5Radio20startRadioModeSwitchENS0_6IRadio9RadioModeEN7omnetpp7SimTimeE @4890
    _ZN4inet13physicallayer5Radio21handleMessageWhenDownEPN7omnetpp8cMessageE @4891
    _ZN4inet13physicallayer5Radio21updateTransceiverPartEv @4892
    _ZN4inet13physicallayer5Radio22updateTransceiverStateEv @4893
    _ZN4inet13physicallayer5Radio23completeRadioModeSwitchENS0_6IRadio9RadioModeE @4894
    _ZN4inet13physicallayer5Radio23handleTransmissionTimerEPN7omnetpp8cMessageE @4895
    _ZN4inet13physicallayer5Radio28parseRadioModeSwitchingTimesEv @4896
    _ZN4inet13physicallayer5Radio6sendUpEPNS_6PacketE @4897
    _ZN4inet13physicallayer5RadioD0Ev @4898
    _ZN4inet13physicallayer5RadioD1Ev @4899
    _ZN4inet13physicallayer5RadioD2Ev @4900
    _ZN4inet13physicallayer6IRadio13radioModeEnumE @4901 DATA
    _ZN4inet13physicallayer6IRadio16getRadioModeNameENS1_9RadioModeE @4902
    _ZN4inet13physicallayer6IRadio18receptionStateEnumE @4903 DATA
    _ZN4inet13physicallayer6IRadio20receptionEndedSignalE @4904 DATA
    _ZN4inet13physicallayer6IRadio21transmissionStateEnumE @4905 DATA
    _ZN4inet13physicallayer6IRadio22listeningChangedSignalE @4906 DATA
    _ZN4inet13physicallayer6IRadio22radioModeChangedSignalE @4907 DATA
    _ZN4inet13physicallayer6IRadio22receptionStartedSignalE @4908 DATA
    _ZN4inet13physicallayer6IRadio23transmissionEndedSignalE @4909 DATA
    _ZN4inet13physicallayer6IRadio25transmissionStartedSignalE @4910 DATA
    _ZN4inet13physicallayer6IRadio26getRadioReceptionStateNameENS1_14ReceptionStateE @4911
    _ZN4inet13physicallayer6IRadio27receptionStateChangedSignalE @4912 DATA
    _ZN4inet13physicallayer6IRadio29getRadioTransmissionStateNameENS1_17TransmissionStateE @4913
    _ZN4inet13physicallayer6IRadio30transmissionStateChangedSignalE @4914 DATA
    _ZN4inet13physicallayer6IRadio31receivedSignalPartChangedSignalE @4915 DATA
    _ZN4inet13physicallayer6IRadio34transmittedSignalPartChangedSignalE @4916 DATA
    _ZN4inet13physicallayer6IRadio6nextIdE @4917 DATA
    _ZN4inet13physicallayer6SignalC1EPKNS0_13ITransmissionE @4918
    _ZN4inet13physicallayer6SignalC1ERKS1_ @4919
    _ZN4inet13physicallayer6SignalC2EPKNS0_13ITransmissionE @4920
    _ZN4inet13physicallayer6SignalC2ERKS1_ @4921
    _ZN4inet13physicallayer7ArrivalC1EN7omnetpp7SimTimeES3_S3_S3_S3_S3_S3_NS_5CoordES4_NS_10QuaternionES5_ @4922
    _ZN4inet13physicallayer7ArrivalC2EN7omnetpp7SimTimeES3_S3_S3_S3_S3_S3_NS_5CoordES4_NS_10QuaternionES5_ @4923
    _ZN4inet13physicallayer8ApskCodeC1EPKNS0_17ConvolutionalCodeEPKNS0_13IInterleavingEPKNS0_11IScramblingE @4924
    _ZN4inet13physicallayer8ApskCodeC2EPKNS0_17ConvolutionalCodeEPKNS0_13IInterleavingEPKNS0_11IScramblingE @4925
    _ZN4inet13physicallayer8ApskCodeD0Ev @4926
    _ZN4inet13physicallayer8ApskCodeD1Ev @4927
    _ZN4inet13physicallayer8ApskCodeD2Ev @4928
    _ZN4inet13physicallayer8EtherPhy10initializeEi @4929
    _ZN4inet13physicallayer8EtherPhy13handleMessageEPN7omnetpp8cMessageE @4930
    _ZN4inet13physicallayer8SnirBaseC2EPKNS0_10IReceptionEPKNS0_6INoiseE @4931
    _ZN4inet13physicallayer9ApskRadioC1Ev @4932
    _ZN4inet13physicallayer9ApskRadioC2Ev @4933
    _ZN4inet13physicallayer9NoiseBaseC1EN7omnetpp7SimTimeES3_ @4934
    _ZN4inet13physicallayer9NoiseBaseC2EN7omnetpp7SimTimeES3_ @4935
    _ZN4inet14BMacHeaderBase10setSrcAddrERKNS_10MacAddressE @4936
    _ZN4inet14BMacHeaderBase11setDestAddrERKNS_10MacAddressE @4937
    _ZN4inet14BMacHeaderBase12parsimUnpackEPN7omnetpp11cCommBufferE @4938
    _ZN4inet14BMacHeaderBase4copyERKS0_ @4939
    _ZN4inet14BMacHeaderBase7setTypeENS_8BMacTypeE @4940
    _ZN4inet14BMacHeaderBaseC1ERKS0_ @4941
    _ZN4inet14BMacHeaderBaseC1Ev @4942
    _ZN4inet14BMacHeaderBaseC2ERKS0_ @4943
    _ZN4inet14BMacHeaderBaseC2Ev @4944
    _ZN4inet14BMacHeaderBaseD0Ev @4945
    _ZN4inet14BMacHeaderBaseD1Ev @4946
    _ZN4inet14BMacHeaderBaseD2Ev @4947
    _ZN4inet14BMacHeaderBaseaSERKS0_ @4948
    _ZN4inet14ByteCountChunk12convertChunkERKSt9type_infoRKNS_12IntrusivePtrINS_5ChunkEEENS_5units5valueIxNS9_5units1bEEESD_i @4949
    _ZN4inet14ByteCountChunk14doInsertAtBackERKNS_12IntrusivePtrIKNS_5ChunkEEE @4950
    _ZN4inet14ByteCountChunk14doRemoveAtBackENS_5units5valueIxNS1_5units1bEEE @4951
    _ZN4inet14ByteCountChunk15doInsertAtFrontERKNS_12IntrusivePtrIKNS_5ChunkEEE @4952
    _ZN4inet14ByteCountChunk15doRemoveAtFrontENS_5units5valueIxNS1_5units1bEEE @4953
    _ZN4inet14ByteCountChunk7setDataEh @4954
    _ZN4inet14ByteCountChunk9setLengthENS_5units5valueIxNS1_8intscaleINS1_5units1bELi1ELi8EEEEE @4955
    _ZN4inet14ByteCountChunkC1ENS_5units5valueIxNS1_8intscaleINS1_5units1bELi1ELi8EEEEEh @4956
    _ZN4inet14ByteCountChunkC1ERKS0_ @4957
    _ZN4inet14ByteCountChunkC1Ev @4958
    _ZN4inet14ByteCountChunkC2ENS_5units5valueIxNS1_8intscaleINS1_5units1bELi1ELi8EEEEEh @4959
    _ZN4inet14ByteCountChunkC2ERKS0_ @4960
    _ZN4inet14ByteCountChunkC2Ev @4961
    _ZN4inet14CareOfTestInit12parsimUnpackEPN7omnetpp11cCommBufferE @4962
    _ZN4inet14CareOfTestInit19setCareOfInitCookieEj @4963
    _ZN4inet14CareOfTestInit4copyERKS0_ @4964
    _ZN4inet14CareOfTestInitC1ERKS0_ @4965
    _ZN4inet14CareOfTestInitC1Ev @4966
    _ZN4inet14CareOfTestInitC2ERKS0_ @4967
    _ZN4inet14CareOfTestInitC2Ev @4968
    _ZN4inet14CareOfTestInitD0Ev @4969
    _ZN4inet14CareOfTestInitD1Ev @4970
    _ZN4inet14CareOfTestInitD2Ev @4971
    _ZN4inet14CareOfTestInitaSERKS0_ @4972
    _ZN4inet14ChiangMobility10initializeEi @4973
    _ZN4inet14ChiangMobility17getNextStateIndexEi @4974
    _ZN4inet14ChiangMobility17setTargetPositionEv @4975
    _ZN4inet14ChiangMobility4moveEv @4976
    _ZN4inet14ChiangMobilityC1Ev @4977
    _ZN4inet14ChiangMobilityC2Ev @4978
    _ZN4inet14CircleMobility10initializeEi @4979
    _ZN4inet14CircleMobility18setInitialPositionEv @4980
    _ZN4inet14CircleMobility4moveEv @4981
    _ZN4inet14CircleMobilityC1Ev @4982
    _ZN4inet14CircleMobilityC2Ev @4983
    _ZN4inet14EtherAppClient10initializeEi @4984
    _ZN4inet14EtherAppClient10sendPacketEv @4985
    _ZN4inet14EtherAppClient11isGeneratorEv @4986
    _ZN4inet14EtherAppClient12socketClosedEPNS_17Ieee8022LlcSocketE @4987
    _ZN4inet14EtherAppClient16cancelNextPacketEv @4988
    _ZN4inet14EtherAppClient17socketDataArrivedEPNS_17Ieee8022LlcSocketEPNS_6PacketE @4989
    _ZN4inet14EtherAppClient18scheduleNextPacketEb @4990
    _ZN4inet14EtherAppClient19handleMessageWhenUpEPN7omnetpp8cMessageE @4991
    _ZN4inet14EtherAppClient19handleStopOperationEPNS_18LifecycleOperationE @4992
    _ZN4inet14EtherAppClient20handleCrashOperationEPNS_18LifecycleOperationE @4993
    _ZN4inet14EtherAppClient20handleStartOperationEPNS_18LifecycleOperationE @4994
    _ZN4inet14EtherAppClient21resolveDestMacAddressEv @4995
    _ZN4inet14EtherAppClient6finishEv @4996
    _ZN4inet14EtherAppClientD0Ev @4997
    _ZN4inet14EtherAppClientD1Ev @4998
    _ZN4inet14EtherAppClientD2Ev @4999
    _ZN4inet14EtherAppServer10initializeEi @5000
    _ZN4inet14EtherAppServer10sendPacketEPNS_6PacketERKNS_10MacAddressEi @5001
    _ZN4inet14EtherAppServer12registerDsapEi @5002
    _ZN4inet14EtherAppServer12socketClosedEPNS_17Ieee8022LlcSocketE @5003
    _ZN4inet14EtherAppServer17socketDataArrivedEPNS_17Ieee8022LlcSocketEPNS_6PacketE @5004
    _ZN4inet14EtherAppServer19handleMessageWhenUpEPN7omnetpp8cMessageE @5005
    _ZN4inet14EtherAppServer19handleStopOperationEPNS_18LifecycleOperationE @5006
    _ZN4inet14EtherAppServer20handleCrashOperationEPNS_18LifecycleOperationE @5007
    _ZN4inet14EtherAppServer20handleStartOperationEPNS_18LifecycleOperationE @5008
    _ZN4inet14EtherAppServer6finishEv @5009
    _ZN4inet14EthernetSignal12parsimUnpackEPN7omnetpp11cCommBufferE @5010
    _ZN4inet14EthernetSignal19setSrcMacFullDuplexEb @5011
    _ZN4inet14EthernetSignal4copyERKS0_ @5012
    _ZN4inet14EthernetSignalC1EPKcs @5013
    _ZN4inet14EthernetSignalC1ERKS0_ @5014
    _ZN4inet14EthernetSignalC2EPKcs @5015
    _ZN4inet14EthernetSignalC2ERKS0_ @5016
    _ZN4inet14EthernetSignalD0Ev @5017
    _ZN4inet14EthernetSignalD1Ev @5018
    _ZN4inet14EthernetSignalD2Ev @5019
    _ZN4inet14EthernetSignalaSERKS0_ @5020
    _ZN4inet14EthernetSocket11setCallbackEPNS0_9ICallbackE @5021
    _ZN4inet14EthernetSocket14processMessageEPN7omnetpp8cMessageE @5022
    _ZN4inet14EthernetSocket14sendToEthernetEPN7omnetpp8cMessageE @5023
    _ZN4inet14EthernetSocket4bindERKNS_10MacAddressES3_PNS_8ProtocolEi @5024
    _ZN4inet14EthernetSocket4sendEPNS_6PacketE @5025
    _ZN4inet14EthernetSocket5closeEv @5026
    _ZN4inet14EthernetSocket7destroyEv @5027
    _ZN4inet14EthernetSocketC1Ev @5028
    _ZN4inet14EthernetSocketC2Ev @5029
    _ZN4inet14FacingMobility10initializeEi @5030
    _ZN4inet14FacingMobility25getCurrentAngularPositionEv @5031
    _ZN4inet14FigureRecorder4initEPN7omnetpp10cComponentEPKcS5_PNS1_9cPropertyEPNS1_14opp_string_mapE @5032
    _ZN4inet14FigureRecorder7collectERKN7omnetpp7SimTimeEdPNS1_7cObjectE @5033
    _ZN4inet14FloodingHeader10setSrcAddrERKNS_9L3AddressE @5034
    _ZN4inet14FloodingHeader11setDestAddrERKNS_9L3AddressE @5035
    _ZN4inet14FloodingHeader12parsimUnpackEPN7omnetpp11cCommBufferE @5036
    _ZN4inet14FloodingHeader13setProtocolIdENS_12IpProtocolIdE @5037
    _ZN4inet14FloodingHeader21setPayloadLengthFieldENS_5units5valueIxNS1_8intscaleINS1_5units1bELi1ELi8EEEEE @5038
    _ZN4inet14FloodingHeader4copyERKS0_ @5039
    _ZN4inet14FloodingHeader6setTtlEi @5040
    _ZN4inet14FloodingHeader9setSeqNumEm @5041
    _ZN4inet14FloodingHeaderC1ERKS0_ @5042
    _ZN4inet14FloodingHeaderC1Ev @5043
    _ZN4inet14FloodingHeaderC2ERKS0_ @5044
    _ZN4inet14FloodingHeaderC2Ev @5045
    _ZN4inet14FloodingHeaderD0Ev @5046
    _ZN4inet14FloodingHeaderD1Ev @5047
    _ZN4inet14FloodingHeaderD2Ev @5048
    _ZN4inet14FloodingHeaderaSERKS0_ @5049
    _ZN4inet14HoldtimeOption11setHoldTimeEt @5050
    _ZN4inet14HoldtimeOption12parsimUnpackEPN7omnetpp11cCommBufferE @5051
    _ZN4inet14HoldtimeOption4copyERKS0_ @5052
    _ZN4inet14HoldtimeOptionC1ERKS0_ @5053
    _ZN4inet14HoldtimeOptionC1Ev @5054
    _ZN4inet14HoldtimeOptionC2ERKS0_ @5055
    _ZN4inet14HoldtimeOptionC2Ev @5056
    _ZN4inet14HoldtimeOptionD0Ev @5057
    _ZN4inet14HoldtimeOptionD1Ev @5058
    _ZN4inet14HoldtimeOptionD2Ev @5059
    _ZN4inet14HoldtimeOptionaSERKS0_ @5060
    _ZN4inet14Ieee8021dRelay10initializeEi @5061
    _ZN4inet14Ieee8021dRelay15chooseInterfaceEv @5062
    _ZN4inet14Ieee8021dRelay15registerAddressENS_10MacAddressE @5063
    _ZN4inet14Ieee8021dRelay17handleLowerPacketEPNS_6PacketE @5064
    _ZN4inet14Ieee8021dRelay17handleUpperPacketEPNS_6PacketE @5065
    _ZN4inet14Ieee8021dRelay17registerAddressesENS_10MacAddressES1_ @5066
    _ZN4inet14Ieee8021dRelay20getPortInterfaceDataEj @5067
    _ZN4inet14Ieee8021dRelay21isForwardingInterfaceEPNS_14InterfaceEntryE @5068
    _ZN4inet14Ieee8021dRelay22handleAndDispatchFrameEPNS_6PacketE @5069
    _ZN4inet14Ieee8021dRelay4stopEv @5070
    _ZN4inet14Ieee8021dRelay5learnENS_10MacAddressEi @5071
    _ZN4inet14Ieee8021dRelay5startEv @5072
    _ZN4inet14Ieee8021dRelay6finishEv @5073
    _ZN4inet14Ieee8021dRelay6sendUpEPNS_6PacketE @5074
    _ZN4inet14Ieee8021dRelay8dispatchEPNS_6PacketEPNS_14InterfaceEntryE @5075
    _ZN4inet14Ieee8021dRelay9broadcastEPNS_6PacketEi @5076
    _ZN4inet14Ieee8021dRelayC1Ev @5077
    _ZN4inet14Ieee8021dRelayC2Ev @5078
    _ZN4inet14Ieee8021qEncap10addVlanTagERKNS_12IntrusivePtrINS_17EthernetMacHeaderEEE @5079
    _ZN4inet14Ieee8021qEncap10initializeEi @5080
    _ZN4inet14Ieee8021qEncap11findVlanTagERKNS_12IntrusivePtrINS_17EthernetMacHeaderEEE @5081
    _ZN4inet14Ieee8021qEncap13handleMessageEPN7omnetpp8cMessageE @5082
    _ZN4inet14Ieee8021qEncap13processPacketEPNS_6PacketERSt6vectorIiSaIiEERSt3mapIiiSt4lessIiESaISt4pairIKiiEEEPN7omnetpp5cGateE @5083
    _ZN4inet14Ieee8021qEncap13removeVlanTagERKNS_12IntrusivePtrINS_17EthernetMacHeaderEEE @5084
    _ZN4inet14Ieee8021qEncap15parseParametersEPKcS2_RSt6vectorIiSaIiEERSt3mapIiiSt4lessIiESaISt4pairIKiiEEE @5085
    _ZN4inet14InterfaceEntry10initializeEi @5086
    _ZN4inet14InterfaceEntry10setCarrierEb @5087
    _ZN4inet14InterfaceEntry14resetInterfaceEv @5088
    _ZN4inet14InterfaceEntry20clearProtocolDataSetEv @5089
    _ZN4inet14InterfaceEntry22getEstimateCostProcessEi @5090
    _ZN4inet14InterfaceEntry22setEstimateCostProcessEiPNS_22MacEstimateCostProcessE @5091
    _ZN4inet14InterfaceEntry30changeMulticastGroupMembershipERKNS_9L3AddressENS_21McastSourceFilterModeERKSt6vectorIS1_SaIS1_EES4_S9_ @5092
    _ZN4inet14InterfaceEntry7changedEii @5093
    _ZN4inet14InterfaceEntry8setStateENS0_5StateE @5094
    _ZN4inet14InterfaceEntryC1Ev @5095
    _ZN4inet14InterfaceEntryC2Ev @5096
    _ZN4inet14InterfaceEntryD0Ev @5097
    _ZN4inet14InterfaceEntryD1Ev @5098
    _ZN4inet14InterfaceEntryD2Ev @5099
    _ZN4inet14InterfaceTable10initializeEi @5100
    _ZN4inet14InterfaceTable12addInterfaceEPNS_14InterfaceEntryE @5101
    _ZN4inet14InterfaceTable13receiveSignalEPN7omnetpp10cComponentEiPNS1_7cObjectES5_ @5102
    _ZN4inet14InterfaceTable15deleteInterfaceEPNS_14InterfaceEntryE @5103
    _ZN4inet14InterfaceTable15resetInterfacesEv @5104
    _ZN4inet14InterfaceTable16interfaceChangedEiPKNS_27InterfaceEntryChangeDetailsE @5105
    _ZN4inet14InterfaceTable19handleMessageWhenUpEPN7omnetpp8cMessageE @5106
    _ZN4inet14InterfaceTable19handleStopOperationEPNS_18LifecycleOperationE @5107
    _ZN4inet14InterfaceTable20handleCrashOperationEPNS_18LifecycleOperationE @5108
    _ZN4inet14InterfaceTable20handleStartOperationEPNS_18LifecycleOperationE @5109
    _ZN4inet14InterfaceTable23discoverConnectingGatesEPNS_14InterfaceEntryE @5110
    _ZN4inet14InterfaceTable26invalidateTmpInterfaceListEv @5111
    _ZN4inet14InterfaceTableC1Ev @5112
    _ZN4inet14InterfaceTableC2Ev @5113
    _ZN4inet14InterfaceTableD0Ev @5114
    _ZN4inet14InterfaceTableD1Ev @5115
    _ZN4inet14InterfaceTableD2Ev @5116
    _ZN4inet14Ipv4OptionsInd12parsimUnpackEPN7omnetpp11cCommBufferE @5117
    _ZN4inet14Ipv4OptionsInd4copyERKS0_ @5118
    _ZN4inet14Ipv4OptionsIndC1ERKS0_ @5119
    _ZN4inet14Ipv4OptionsIndC1Ev @5120
    _ZN4inet14Ipv4OptionsIndC2ERKS0_ @5121
    _ZN4inet14Ipv4OptionsIndC2Ev @5122
    _ZN4inet14Ipv4OptionsIndD0Ev @5123
    _ZN4inet14Ipv4OptionsIndD1Ev @5124
    _ZN4inet14Ipv4OptionsIndD2Ev @5125
    _ZN4inet14Ipv4OptionsIndaSERKS0_ @5126
    _ZN4inet14Ipv4OptionsReq12parsimUnpackEPN7omnetpp11cCommBufferE @5127
    _ZN4inet14Ipv4OptionsReq4copyERKS0_ @5128
    _ZN4inet14Ipv4OptionsReqC1ERKS0_ @5129
    _ZN4inet14Ipv4OptionsReqC1Ev @5130
    _ZN4inet14Ipv4OptionsReqC2ERKS0_ @5131
    _ZN4inet14Ipv4OptionsReqC2Ev @5132
    _ZN4inet14Ipv4OptionsReqD0Ev @5133
    _ZN4inet14Ipv4OptionsReqD1Ev @5134
    _ZN4inet14Ipv4OptionsReqD2Ev @5135
    _ZN4inet14Ipv4OptionsReqaSERKS0_ @5136
    _ZN4inet14JoinPruneGroup12parsimUnpackEPN7omnetpp11cCommBufferE @5137
    _ZN4inet14JoinPruneGroup15setGroupAddressERKNS_19EncodedGroupAddressE @5138
    _ZN4inet14JoinPruneGroup22setJoinedSourceAddressEyRKNS_20EncodedSourceAddressE @5139
    _ZN4inet14JoinPruneGroup22setPrunedSourceAddressEyRKNS_20EncodedSourceAddressE @5140
    _ZN4inet14JoinPruneGroup24eraseJoinedSourceAddressEy @5141
    _ZN4inet14JoinPruneGroup24erasePrunedSourceAddressEy @5142
    _ZN4inet14JoinPruneGroup25insertJoinedSourceAddressERKNS_20EncodedSourceAddressE @5143
    _ZN4inet14JoinPruneGroup25insertJoinedSourceAddressEyRKNS_20EncodedSourceAddressE @5144
    _ZN4inet14JoinPruneGroup25insertPrunedSourceAddressERKNS_20EncodedSourceAddressE @5145
    _ZN4inet14JoinPruneGroup25insertPrunedSourceAddressEyRKNS_20EncodedSourceAddressE @5146
    _ZN4inet14JoinPruneGroup31setJoinedSourceAddressArraySizeEy @5147
    _ZN4inet14JoinPruneGroup31setPrunedSourceAddressArraySizeEy @5148
    _ZN4inet14JoinPruneGroup4copyERKS0_ @5149
    _ZN4inet14JoinPruneGroupC1ERKS0_ @5150
    _ZN4inet14JoinPruneGroupC1Ev @5151
    _ZN4inet14JoinPruneGroupC2ERKS0_ @5152
    _ZN4inet14JoinPruneGroupC2Ev @5153
    _ZN4inet14JoinPruneGroupD0Ev @5154
    _ZN4inet14JoinPruneGroupD1Ev @5155
    _ZN4inet14JoinPruneGroupD2Ev @5156
    _ZN4inet14JoinPruneGroupaSERKS0_ @5157
    _ZN4inet14LMacHeaderBase10setSrcAddrERKNS_10MacAddressE @5158
    _ZN4inet14LMacHeaderBase11setDestAddrERKNS_10MacAddressE @5159
    _ZN4inet14LMacHeaderBase12parsimUnpackEPN7omnetpp11cCommBufferE @5160
    _ZN4inet14LMacHeaderBase16setOccupiedSlotsEyRKNS_10MacAddressE @5161
    _ZN4inet14LMacHeaderBase18eraseOccupiedSlotsEy @5162
    _ZN4inet14LMacHeaderBase19insertOccupiedSlotsERKNS_10MacAddressE @5163
    _ZN4inet14LMacHeaderBase19insertOccupiedSlotsEyRKNS_10MacAddressE @5164
    _ZN4inet14LMacHeaderBase25setOccupiedSlotsArraySizeEy @5165
    _ZN4inet14LMacHeaderBase4copyERKS0_ @5166
    _ZN4inet14LMacHeaderBase7setTypeENS_8LMacTypeE @5167
    _ZN4inet14LMacHeaderBase9setMySlotEi @5168
    _ZN4inet14LMacHeaderBaseC1ERKS0_ @5169
    _ZN4inet14LMacHeaderBaseC1Ev @5170
    _ZN4inet14LMacHeaderBaseC2ERKS0_ @5171
    _ZN4inet14LMacHeaderBaseC2Ev @5172
    _ZN4inet14LMacHeaderBaseD0Ev @5173
    _ZN4inet14LMacHeaderBaseD1Ev @5174
    _ZN4inet14LMacHeaderBaseD2Ev @5175
    _ZN4inet14LMacHeaderBaseaSERKS0_ @5176
    _ZN4inet14LinearMobility10initializeEi @5177
    _ZN4inet14LinearMobility4moveEv @5178
    _ZN4inet14LinearMobilityC1Ev @5179
    _ZN4inet14LinearMobilityC2Ev @5180
    _ZN4inet14MacAddressType8INSTANCEE @5181 DATA
    _ZN4inet14MacProtocolInd12parsimUnpackEPN7omnetpp11cCommBufferE @5182
    _ZN4inet14MacProtocolInd20setMacProtocolHeaderERKNS_12IntrusivePtrIKNS_5ChunkEEE @5183
    _ZN4inet14MacProtocolInd4copyERKS0_ @5184
    _ZN4inet14MacProtocolIndC1ERKS0_ @5185
    _ZN4inet14MacProtocolIndC1Ev @5186
    _ZN4inet14MacProtocolIndC2ERKS0_ @5187
    _ZN4inet14MacProtocolIndC2Ev @5188
    _ZN4inet14MacProtocolIndD0Ev @5189
    _ZN4inet14MacProtocolIndD1Ev @5190
    _ZN4inet14MacProtocolIndD2Ev @5191
    _ZN4inet14MacProtocolIndaSERKS0_ @5192
    _ZN4inet14MacProtocolReq12parsimUnpackEPN7omnetpp11cCommBufferE @5193
    _ZN4inet14MacProtocolReq4copyERKS0_ @5194
    _ZN4inet14MacProtocolReqC1ERKS0_ @5195
    _ZN4inet14MacProtocolReqC1Ev @5196
    _ZN4inet14MacProtocolReqC2ERKS0_ @5197
    _ZN4inet14MacProtocolReqC2Ev @5198
    _ZN4inet14MacProtocolReqD0Ev @5199
    _ZN4inet14MacProtocolReqD1Ev @5200
    _ZN4inet14MacProtocolReqD2Ev @5201
    _ZN4inet14MacProtocolReqaSERKS0_ @5202
    _ZN4inet14MatchableField8setFieldEPN7omnetpp7cObjectEPKc @5203
    _ZN4inet14MatchableField8setFieldEPN7omnetpp7cObjectEi @5204
    _ZN4inet14MatchableFieldC1EPN7omnetpp7cObjectEi @5205
    _ZN4inet14MatchableFieldC2EPN7omnetpp7cObjectEi @5206
    _ZN4inet14MessageChecker10initializeEv @5207
    _ZN4inet14MessageChecker12checkMessageEPN7omnetpp8cMessageE @5208
    _ZN4inet14MessageChecker13handleMessageEPN7omnetpp8cMessageE @5209
    _ZN4inet14MessageChecker14forwardMessageEPN7omnetpp8cMessageE @5210
    _ZN4inet14MessageChecker6finishEv @5211
    _ZN4inet14MessageCheckerC1Ev @5212
    _ZN4inet14MessageCheckerC2Ev @5213
    _ZN4inet14MobilityHeader12parsimUnpackEPN7omnetpp11cCommBufferE @5214
    _ZN4inet14MobilityHeader21setMobilityHeaderTypeENS_18MobilityHeaderTypeE @5215
    _ZN4inet14MobilityHeader4copyERKS0_ @5216
    _ZN4inet14MobilityHeaderC1ERKS0_ @5217
    _ZN4inet14MobilityHeaderC1Ev @5218
    _ZN4inet14MobilityHeaderC2ERKS0_ @5219
    _ZN4inet14MobilityHeaderC2Ev @5220
    _ZN4inet14MobilityHeaderD0Ev @5221
    _ZN4inet14MobilityHeaderD1Ev @5222
    _ZN4inet14MobilityHeaderD2Ev @5223
    _ZN4inet14MobilityHeaderaSERKS0_ @5224
    _ZN4inet14PacketDrillApp10initializeEi @5225
    _ZN4inet14PacketDrillApp10verifyTimeENS_11eventTime_tEN7omnetpp7SimTimeES3_S3_S3_PKc @5226
    _ZN4inet14PacketDrillApp11adjustTimesEPNS_16PacketDrillEventE @5227
    _ZN4inet14PacketDrillApp11handleTimerEPN7omnetpp8cMessageE @5228
    _ZN4inet14PacketDrillApp11syscallBindEPNS_12syscall_specEPN7omnetpp6cQueueEPPc @5229
    _ZN4inet14PacketDrillApp11syscallReadEPNS_16PacketDrillEventEPNS_12syscall_specEPN7omnetpp6cQueueEPPc @5230
    _ZN4inet14PacketDrillApp12socketClosedEPNS_10SctpSocketE @5231
    _ZN4inet14PacketDrillApp12socketClosedEPNS_9TcpSocketE @5232
    _ZN4inet14PacketDrillApp12socketClosedEPNS_9TunSocketE @5233
    _ZN4inet14PacketDrillApp12socketClosedEPNS_9UdpSocketE @5234
    _ZN4inet14PacketDrillApp12syscallCloseEPNS_12syscall_specEPN7omnetpp6cQueueEPPc @5235
    _ZN4inet14PacketDrillApp12syscallWriteEPNS_12syscall_specEPN7omnetpp6cQueueEPPc @5236
    _ZN4inet14PacketDrillApp13findSeqNumMapEj @5237
    _ZN4inet14PacketDrillApp13scheduleEventEv @5238
    _ZN4inet14PacketDrillApp13socketDeletedEPNS_10SctpSocketE @5239
    _ZN4inet14PacketDrillApp13socketFailureEPNS_10SctpSocketEi @5240
    _ZN4inet14PacketDrillApp13socketFailureEPNS_9TcpSocketEi @5241
    _ZN4inet14PacketDrillApp13syscallAcceptEPNS_12syscall_specEPN7omnetpp6cQueueEPPc @5242
    _ZN4inet14PacketDrillApp13syscallListenEPNS_12syscall_specEPN7omnetpp6cQueueEPPc @5243
    _ZN4inet14PacketDrillApp13syscallSendToEPNS_12syscall_specEPN7omnetpp6cQueueEPPc @5244
    _ZN4inet14PacketDrillApp13syscallSocketEPNS_12syscall_specEPN7omnetpp6cQueueEPPc @5245
    _ZN4inet14PacketDrillApp14syscallConnectEPNS_12syscall_specEPN7omnetpp6cQueueEPPc @5246
    _ZN4inet14PacketDrillApp15closeAllSocketsEv @5247
    _ZN4inet14PacketDrillApp15compareDatagramEPNS_6PacketES2_ @5248
    _ZN4inet14PacketDrillApp15socketAvailableEPNS_10SctpSocketEPNS_10IndicationE @5249
    _ZN4inet14PacketDrillApp15socketAvailableEPNS_9TcpSocketEPNS_16TcpAvailableInfoE @5250
    _ZN4inet14PacketDrillApp15syscallRecvFromEPNS_16PacketDrillEventEPNS_12syscall_specEPN7omnetpp6cQueueEPPc @5251
    _ZN4inet14PacketDrillApp15syscallSctpSendEPNS_12syscall_specEPN7omnetpp6cQueueEPPc @5252
    _ZN4inet14PacketDrillApp15syscallShutdownEPNS_12syscall_specEPN7omnetpp6cQueueEPPc @5253
    _ZN4inet14PacketDrillApp16compareTcpHeaderERKNS_12IntrusivePtrIKNS_3tcp9TcpHeaderEEES7_ @5254
    _ZN4inet14PacketDrillApp16compareUdpHeaderERKNS_12IntrusivePtrIKNS_9UdpHeaderEEES6_ @5255
    _ZN4inet14PacketDrillApp16socketPeerClosedEPNS_10SctpSocketE @5256
    _ZN4inet14PacketDrillApp16socketPeerClosedEPNS_9TcpSocketE @5257
    _ZN4inet14PacketDrillApp17compareDataPacketEPKNS_4sctp13SctpDataChunkES4_ @5258
    _ZN4inet14PacketDrillApp17compareInitPacketEPKNS_4sctp13SctpInitChunkES4_ @5259
    _ZN4inet14PacketDrillApp17compareSackPacketEPKNS_4sctp13SctpSackChunkES4_ @5260
    _ZN4inet14PacketDrillApp17compareSctpPacketERKNS_12IntrusivePtrIKNS_4sctp10SctpHeaderEEES7_ @5261
    _ZN4inet14PacketDrillApp17socketDataArrivedEPNS_10SctpSocketEPNS_6PacketEb @5262
    _ZN4inet14PacketDrillApp17socketDataArrivedEPNS_9TcpSocketEPNS_6PacketEb @5263
    _ZN4inet14PacketDrillApp17socketDataArrivedEPNS_9TunSocketEPNS_6PacketE @5264
    _ZN4inet14PacketDrillApp17socketDataArrivedEPNS_9UdpSocketEPNS_6PacketE @5265
    _ZN4inet14PacketDrillApp17socketEstablishedEPNS_10SctpSocketEm @5266
    _ZN4inet14PacketDrillApp17socketEstablishedEPNS_9TcpSocketE @5267
    _ZN4inet14PacketDrillApp17syscallGetsockoptEPNS_12syscall_specEPN7omnetpp6cQueueEPPc @5268
    _ZN4inet14PacketDrillApp17syscallSetsockoptEPNS_12syscall_specEPN7omnetpp6cQueueEPPc @5269
    _ZN4inet14PacketDrillApp18runSystemCallEventEPNS_16PacketDrillEventEPNS_12syscall_specE @5270
    _ZN4inet14PacketDrillApp18sendRequestArrivedEPNS_10SctpSocketE @5271
    _ZN4inet14PacketDrillApp18socketErrorArrivedEPNS_9UdpSocketEPNS_10IndicationE @5272
    _ZN4inet14PacketDrillApp18syscallSctpSendmsgEPNS_12syscall_specEPN7omnetpp6cQueueEPPc @5273
    _ZN4inet14PacketDrillApp19addressAddedArrivedEPNS_10SctpSocketENS_9L3AddressES3_ @5274
    _ZN4inet14PacketDrillApp19handleMessageWhenUpEPN7omnetpp8cMessageE @5275
    _ZN4inet14PacketDrillApp19handleStopOperationEPNS_18LifecycleOperationE @5276
    _ZN4inet14PacketDrillApp19msgAbandonedArrivedEPNS_10SctpSocketE @5277
    _ZN4inet14PacketDrillApp19socketStatusArrivedEPNS_10SctpSocketEPNS_13SctpStatusReqE @5278
    _ZN4inet14PacketDrillApp20compareInitAckPacketEPKNS_4sctp16SctpInitAckChunkES4_ @5279
    _ZN4inet14PacketDrillApp20handleCrashOperationEPNS_18LifecycleOperationE @5280
    _ZN4inet14PacketDrillApp20handleStartOperationEPNS_18LifecycleOperationE @5281
    _ZN4inet14PacketDrillApp20sendqueueFullArrivedEPNS_10SctpSocketE @5282
    _ZN4inet14PacketDrillApp20socketOptionsArrivedEPNS_10SctpSocketEPNS_10IndicationE @5283
    _ZN4inet14PacketDrillApp21compareReconfigPacketEPKNS_4sctp20SctpStreamResetChunkES4_ @5284
    _ZN4inet14PacketDrillApp22sendqueueAbatedArrivedEPNS_10SctpSocketEm @5285
    _ZN4inet14PacketDrillApp23shutdownReceivedArrivedEPNS_10SctpSocketE @5286
    _ZN4inet14PacketDrillApp29socketDataNotificationArrivedEPNS_10SctpSocketEPNS_7MessageE @5287
    _ZN4inet14PacketDrillApp6finishEv @5288
    _ZN4inet14PacketDrillApp8runEventEPNS_16PacketDrillEventE @5289
    _ZN4inet14PacketDrillAppC1Ev @5290
    _ZN4inet14PacketDrillAppC2Ev @5291
    _ZN4inet14PacketDrillAppD0Ev @5292
    _ZN4inet14PacketDrillAppD1Ev @5293
    _ZN4inet14PacketDrillAppD2Ev @5294
    _ZN4inet14PatternMatcher10setPatternEPKcbbb @5295
    _ZN4inet14PatternMatcher12debugStrFromB5cxx11Ei @5296
    _ZN4inet14PatternMatcher13parseNumRangeERPKccRlS4_ @5297
    _ZN4inet14PatternMatcher17containsWildcardsEPKc @5298
    _ZN4inet14PatternMatcher18parseLiteralStringERPKcRNS0_4ElemE @5299
    _ZN4inet14PatternMatcher20patternPrefixMatchesEPKci @5300
    _ZN4inet14PatternMatcher7doMatchEPKcii @5301
    _ZN4inet14PatternMatcher7isInSetEcPKc @5302
    _ZN4inet14PatternMatcher7matchesEPKc @5303
    _ZN4inet14PatternMatcher8parseSetERPKcRNS0_4ElemE @5304
    _ZN4inet14PatternMatcherC1EPKcbbb @5305
    _ZN4inet14PatternMatcherC1Ev @5306
    _ZN4inet14PatternMatcherC2EPKcbbb @5307
    _ZN4inet14PatternMatcherC2Ev @5308
    _ZN4inet14PatternMatcherD1Ev @5309
    _ZN4inet14PatternMatcherD2Ev @5310
    _ZN4inet14PolyhedronFace15computeCentroidEv @5311
    _ZN4inet14PolyhedronFace19computeNormalVectorEv @5312
    _ZN4inet14PolyhedronFace8findEdgeEPNS_14PolyhedronEdgeE @5313
    _ZN4inet14PolyhedronFace8pushEdgeEPNS_14PolyhedronEdgeE @5314
    _ZN4inet14PolyhedronFaceC1EPNS_15PolyhedronPointES2_S2_ @5315
    _ZN4inet14PolyhedronFaceC2EPNS_15PolyhedronPointES2_S2_ @5316
    _ZN4inet14PolyhedronFaceD0Ev @5317
    _ZN4inet14PolyhedronFaceD1Ev @5318
    _ZN4inet14PolyhedronFaceD2Ev @5319
    _ZN4inet14RotationMatrix21computeRotationMatrixERKdS2_S2_S2_ @5320
    _ZN4inet14RotationMatrixC1EPA3_Kd @5321
    _ZN4inet14RotationMatrixC1ERKNS_11EulerAnglesE @5322
    _ZN4inet14RotationMatrixC1Ev @5323
    _ZN4inet14RotationMatrixC2EPA3_Kd @5324
    _ZN4inet14RotationMatrixC2ERKNS_11EulerAnglesE @5325
    _ZN4inet14RotationMatrixC2Ev @5326
    _ZN4inet14RsvpClassifier10initializeEi @5327
    _ZN4inet14RsvpClassifier11lookupLabelEPNS_6PacketERSt6vectorINS_7LabelOpESaIS4_EERNSt7__cxx1112basic_stringIcSt11char_traitsIcESaIcEEERi @5328
    _ZN4inet14RsvpClassifier13handleMessageEPN7omnetpp8cMessageE @5329
    _ZN4inet14RsvpClassifier14processCommandERKN7omnetpp11cXMLElementE @5330
    _ZN4inet14RsvpClassifier15readItemFromXMLEPKN7omnetpp11cXMLElementE @5331
    _ZN4inet14RsvpClassifier16readTableFromXMLEPKN7omnetpp11cXMLElementE @5332
    _ZN4inet14RsvpClassifier4bindERKNS_10SessionObjERKNS_17SenderTemplateObjEi @5333
    _ZN4inet14RsvpClassifier7findFECEi @5334
    _ZN4inet14RtpApplication10initializeEi @5335
    _ZN4inet14RtpApplication13handleMessageEPN7omnetpp8cMessageE @5336
    _ZN4inet14SctpCommandReq10setNumMsgsEi @5337
    _ZN4inet14SctpCommandReq10setPrValueEd @5338
    _ZN4inet14SctpCommandReq11setSocketIdEi @5339
    _ZN4inet14SctpCommandReq12parsimUnpackEPN7omnetpp11cCommBufferE @5340
    _ZN4inet14SctpCommandReq12setLocalAddrERKNS_9L3AddressE @5341
    _ZN4inet14SctpCommandReq12setLocalPortEi @5342
    _ZN4inet14SctpCommandReq13setRemoteAddrERKNS_9L3AddressE @5343
    _ZN4inet14SctpCommandReq13setRemotePortEi @5344
    _ZN4inet14SctpCommandReq16setSendUnorderedEt @5345
    _ZN4inet14SctpCommandReq4copyERKS0_ @5346
    _ZN4inet14SctpCommandReq5setFdEi @5347
    _ZN4inet14SctpCommandReq6setSidEi @5348
    _ZN4inet14SctpCommandReq6setSsnEi @5349
    _ZN4inet14SctpCommandReq7setGateEi @5350
    _ZN4inet14SctpCommandReqC1ERKS0_ @5351
    _ZN4inet14SctpCommandReqC1Ev @5352
    _ZN4inet14SctpCommandReqC2ERKS0_ @5353
    _ZN4inet14SctpCommandReqC2Ev @5354
    _ZN4inet14SctpCommandReqD0Ev @5355
    _ZN4inet14SctpCommandReqD1Ev @5356
    _ZN4inet14SctpCommandReqD2Ev @5357
    _ZN4inet14SctpCommandReqaSERKS0_ @5358
    _ZN4inet14SctpConnectReq12parsimUnpackEPN7omnetpp11cCommBufferE @5359
    _ZN4inet14SctpConnectReq17setInboundStreamsEi @5360
    _ZN4inet14SctpConnectReq18setOutboundStreamsEi @5361
    _ZN4inet14SctpConnectReq18setRemoteAddressesERKSt6vectorINS_9L3AddressESaIS2_EE @5362
    _ZN4inet14SctpConnectReq4copyERKS0_ @5363
    _ZN4inet14SctpConnectReq9setStatusEi @5364
    _ZN4inet14SctpConnectReqC1ERKS0_ @5365
    _ZN4inet14SctpConnectReqC1Ev @5366
    _ZN4inet14SctpConnectReqC2ERKS0_ @5367
    _ZN4inet14SctpConnectReqC2Ev @5368
    _ZN4inet14SctpConnectReqD0Ev @5369
    _ZN4inet14SctpConnectReqD1Ev @5370
    _ZN4inet14SctpConnectReqD2Ev @5371
    _ZN4inet14SctpConnectReqaSERKS0_ @5372
    _ZN4inet14SenderTspecObjC1Ev @5373
    _ZN4inet14SenderTspecObjC2Ev @5374
    _ZN4inet14ShortBitVectorC1EPKc @5375
    _ZN4inet14ShortBitVectorC1Ej @5376
    _ZN4inet14ShortBitVectorC1Ejj @5377
    _ZN4inet14ShortBitVectorC1Ev @5378
    _ZN4inet14ShortBitVectorC2EPKc @5379
    _ZN4inet14ShortBitVectorC2Ej @5380
    _ZN4inet14ShortBitVectorC2Ejj @5381
    _ZN4inet14ShortBitVectorC2Ev @5382
    _ZN4inet14SignalPowerInd12parsimUnpackEPN7omnetpp11cCommBufferE @5383
    _ZN4inet14SignalPowerInd4copyERKS0_ @5384
    _ZN4inet14SignalPowerIndC1ERKS0_ @5385
    _ZN4inet14SignalPowerIndC1Ev @5386
    _ZN4inet14SignalPowerIndC2ERKS0_ @5387
    _ZN4inet14SignalPowerIndC2Ev @5388
    _ZN4inet14SignalPowerIndD0Ev @5389
    _ZN4inet14SignalPowerIndD1Ev @5390
    _ZN4inet14SignalPowerIndD2Ev @5391
    _ZN4inet14SignalPowerIndaSERKS0_ @5392
    _ZN4inet14SignalPowerReq12parsimUnpackEPN7omnetpp11cCommBufferE @5393
    _ZN4inet14SignalPowerReq4copyERKS0_ @5394
    _ZN4inet14SignalPowerReqC1ERKS0_ @5395
    _ZN4inet14SignalPowerReqC1Ev @5396
    _ZN4inet14SignalPowerReqC2ERKS0_ @5397
    _ZN4inet14SignalPowerReqC2Ev @5398
    _ZN4inet14SignalPowerReqD0Ev @5399
    _ZN4inet14SignalPowerReqD1Ev @5400
    _ZN4inet14SignalPowerReqD2Ev @5401
    _ZN4inet14SignalPowerReqaSERKS0_ @5402
    _ZN4inet14TcpConnectInfo12parsimUnpackEPN7omnetpp11cCommBufferE @5403
    _ZN4inet14TcpConnectInfo12setLocalAddrERKNS_9L3AddressE @5404
    _ZN4inet14TcpConnectInfo12setLocalPortEi @5405
    _ZN4inet14TcpConnectInfo13setRemoteAddrERKNS_9L3AddressE @5406
    _ZN4inet14TcpConnectInfo13setRemotePortEi @5407
    _ZN4inet14TcpConnectInfo4copyERKS0_ @5408
    _ZN4inet14TcpConnectInfoC1ERKS0_ @5409
    _ZN4inet14TcpConnectInfoC1Ev @5410
    _ZN4inet14TcpConnectInfoC2ERKS0_ @5411
    _ZN4inet14TcpConnectInfoC2Ev @5412
    _ZN4inet14TcpConnectInfoD0Ev @5413
    _ZN4inet14TcpConnectInfoD1Ev @5414
    _ZN4inet14TcpConnectInfoD2Ev @5415
    _ZN4inet14TcpConnectInfoaSERKS0_ @5416
    _ZN4inet14TcpOpenCommand12parsimUnpackEPN7omnetpp11cCommBufferE @5417
    _ZN4inet14TcpOpenCommand12setLocalAddrERKNS_9L3AddressE @5418
    _ZN4inet14TcpOpenCommand12setLocalPortEi @5419
    _ZN4inet14TcpOpenCommand13setRemoteAddrERKNS_9L3AddressE @5420
    _ZN4inet14TcpOpenCommand13setRemotePortEi @5421
    _ZN4inet14TcpOpenCommand20setTcpAlgorithmClassEPKc @5422
    _ZN4inet14TcpOpenCommand4copyERKS0_ @5423
    _ZN4inet14TcpOpenCommand7setForkEb @5424
    _ZN4inet14TcpOpenCommandC1ERKS0_ @5425
    _ZN4inet14TcpOpenCommandC1Ev @5426
    _ZN4inet14TcpOpenCommandC2ERKS0_ @5427
    _ZN4inet14TcpOpenCommandC2Ev @5428
    _ZN4inet14TcpOpenCommandD0Ev @5429
    _ZN4inet14TcpOpenCommandD1Ev @5430
    _ZN4inet14TcpOpenCommandD2Ev @5431
    _ZN4inet14TcpOpenCommandaSERKS0_ @5432
    _ZN4inet14TunControlInfo12parsimUnpackEPN7omnetpp11cCommBufferE @5433
    _ZN4inet14TunControlInfo4copyERKS0_ @5434
    _ZN4inet14TunControlInfoC1ERKS0_ @5435
    _ZN4inet14TunControlInfoC1Ev @5436
    _ZN4inet14TunControlInfoC2ERKS0_ @5437
    _ZN4inet14TunControlInfoC2Ev @5438
    _ZN4inet14TunControlInfoD0Ev @5439
    _ZN4inet14TunControlInfoD1Ev @5440
    _ZN4inet14TunControlInfoD2Ev @5441
    _ZN4inet14TunControlInfoaSERKS0_ @5442
    _ZN4inet14TunLoopbackApp10initializeEi @5443
    _ZN4inet14TunLoopbackApp13handleMessageEPN7omnetpp8cMessageE @5444
    _ZN4inet14TunLoopbackApp6finishEv @5445
    _ZN4inet14TunOpenCommand12parsimUnpackEPN7omnetpp11cCommBufferE @5446
    _ZN4inet14TunOpenCommand4copyERKS0_ @5447
    _ZN4inet14TunOpenCommandC1ERKS0_ @5448
    _ZN4inet14TunOpenCommandC1Ev @5449
    _ZN4inet14TunOpenCommandC2ERKS0_ @5450
    _ZN4inet14TunOpenCommandC2Ev @5451
    _ZN4inet14TunOpenCommandD0Ev @5452
    _ZN4inet14TunOpenCommandD1Ev @5453
    _ZN4inet14TunOpenCommandD2Ev @5454
    _ZN4inet14TunOpenCommandaSERKS0_ @5455
    _ZN4inet14TurtleMobility10initializeEi @5456
    _ZN4inet14TurtleMobility12resumeScriptEv @5457
    _ZN4inet14TurtleMobility15computeMaxSpeedEPN7omnetpp11cXMLElementE @5458
    _ZN4inet14TurtleMobility16executeStatementEPN7omnetpp11cXMLElementE @5459
    _ZN4inet14TurtleMobility17gotoNextStatementEv @5460
    _ZN4inet14TurtleMobility17setTargetPositionEv @5461
    _ZN4inet14TurtleMobility18setInitialPositionEv @5462
    _ZN4inet14TurtleMobility4moveEv @5463
    _ZN4inet14TurtleMobility8getValueEPKc @5464
    _ZN4inet14TurtleMobilityC1Ev @5465
    _ZN4inet14TurtleMobilityC2Ev @5466
    _ZN4inet14UdpBindCommand12parsimUnpackEPN7omnetpp11cCommBufferE @5467
    _ZN4inet14UdpBindCommand12setLocalAddrERKNS_9L3AddressE @5468
    _ZN4inet14UdpBindCommand12setLocalPortEi @5469
    _ZN4inet14UdpBindCommand4copyERKS0_ @5470
    _ZN4inet14UdpBindCommandC1ERKS0_ @5471
    _ZN4inet14UdpBindCommandC1Ev @5472
    _ZN4inet14UdpBindCommandC2ERKS0_ @5473
    _ZN4inet14UdpBindCommandC2Ev @5474
    _ZN4inet14UdpBindCommandD0Ev @5475
    _ZN4inet14UdpBindCommandD1Ev @5476
    _ZN4inet14UdpBindCommandD2Ev @5477
    _ZN4inet14UdpBindCommandaSERKS0_ @5478
    _ZN4inet14UdpControlInfo12parsimUnpackEPN7omnetpp11cCommBufferE @5479
    _ZN4inet14UdpControlInfo4copyERKS0_ @5480
    _ZN4inet14UdpControlInfoC1ERKS0_ @5481
    _ZN4inet14UdpControlInfoC1Ev @5482
    _ZN4inet14UdpControlInfoC2ERKS0_ @5483
    _ZN4inet14UdpControlInfoC2Ev @5484
    _ZN4inet14UdpControlInfoD0Ev @5485
    _ZN4inet14UdpControlInfoD1Ev @5486
    _ZN4inet14UdpControlInfoD2Ev @5487
    _ZN4inet14UdpControlInfoaSERKS0_ @5488
    _ZN4inet14XMacHeaderBase10setSrcAddrERKNS_10MacAddressE @5489
    _ZN4inet14XMacHeaderBase11setDestAddrERKNS_10MacAddressE @5490
    _ZN4inet14XMacHeaderBase12parsimUnpackEPN7omnetpp11cCommBufferE @5491
    _ZN4inet14XMacHeaderBase4copyERKS0_ @5492
    _ZN4inet14XMacHeaderBase7setTypeENS_9XMacTypesE @5493
    _ZN4inet14XMacHeaderBaseC1ERKS0_ @5494
    _ZN4inet14XMacHeaderBaseC1Ev @5495
    _ZN4inet14XMacHeaderBaseC2ERKS0_ @5496
    _ZN4inet14XMacHeaderBaseC2Ev @5497
    _ZN4inet14XMacHeaderBaseD0Ev @5498
    _ZN4inet14XMacHeaderBaseD1Ev @5499
    _ZN4inet14XMacHeaderBaseD2Ev @5500
    _ZN4inet14XMacHeaderBaseaSERKS0_ @5501
    _ZN4inet15AckingMacHeader12parsimUnpackEPN7omnetpp11cCommBufferE @5502
    _ZN4inet15AckingMacHeader14setSrcModuleIdEi @5503
    _ZN4inet15AckingMacHeader18setNetworkProtocolEi @5504
    _ZN4inet15AckingMacHeader4copyERKS0_ @5505
    _ZN4inet15AckingMacHeader6setSrcERKNS_10MacAddressE @5506
    _ZN4inet15AckingMacHeader7setDestERKNS_10MacAddressE @5507
    _ZN4inet15AckingMacHeaderC1ERKS0_ @5508
    _ZN4inet15AckingMacHeaderC1Ev @5509
    _ZN4inet15AckingMacHeaderC2ERKS0_ @5510
    _ZN4inet15AckingMacHeaderC2Ev @5511
    _ZN4inet15AckingMacHeaderD0Ev @5512
    _ZN4inet15AckingMacHeaderD1Ev @5513
    _ZN4inet15AckingMacHeaderD2Ev @5514
    _ZN4inet15AckingMacHeaderaSERKS0_ @5515
    _ZN4inet15ApplicationBaseC2Ev @5516
    _ZN4inet15CLNSAddressType8INSTANCEE @5517 DATA
    _ZN4inet15ChunkSerializer21totalSerializedLengthE @5518 DATA
    _ZN4inet15ChunkSerializer23totalDeserializedLengthE @5519 DATA
    _ZN4inet15CreationTimeTag12parsimUnpackEPN7omnetpp11cCommBufferE @5520
    _ZN4inet15CreationTimeTag15setCreationTimeEN7omnetpp7SimTimeE @5521
    _ZN4inet15CreationTimeTag4copyERKS0_ @5522
    _ZN4inet15CreationTimeTagC1ERKS0_ @5523
    _ZN4inet15CreationTimeTagC1Ev @5524
    _ZN4inet15CreationTimeTagC2ERKS0_ @5525
    _ZN4inet15CreationTimeTagC2Ev @5526
    _ZN4inet15CreationTimeTagD0Ev @5527
    _ZN4inet15CreationTimeTagD1Ev @5528
    _ZN4inet15CreationTimeTagD2Ev @5529
    _ZN4inet15CreationTimeTagaSERKS0_ @5530
    _ZN4inet15CsmaCaMacHeader12parsimUnpackEPN7omnetpp11cCommBufferE @5531
    _ZN4inet15CsmaCaMacHeader18setReceiverAddressERKNS_10MacAddressE @5532
    _ZN4inet15CsmaCaMacHeader20setHeaderLengthFieldEh @5533
    _ZN4inet15CsmaCaMacHeader21setTransmitterAddressERKNS_10MacAddressE @5534
    _ZN4inet15CsmaCaMacHeader4copyERKS0_ @5535
    _ZN4inet15CsmaCaMacHeader7setTypeENS_19CsmaCaMacHeaderTypeE @5536
    _ZN4inet15CsmaCaMacHeaderC1ERKS0_ @5537
    _ZN4inet15CsmaCaMacHeaderC1Ev @5538
    _ZN4inet15CsmaCaMacHeaderC2ERKS0_ @5539
    _ZN4inet15CsmaCaMacHeaderC2Ev @5540
    _ZN4inet15CsmaCaMacHeaderD0Ev @5541
    _ZN4inet15CsmaCaMacHeaderD1Ev @5542
    _ZN4inet15CsmaCaMacHeaderD2Ev @5543
    _ZN4inet15CsmaCaMacHeaderaSERKS0_ @5544
    _ZN4inet15EthernetPadding12parsimUnpackEPN7omnetpp11cCommBufferE @5545
    _ZN4inet15EthernetPadding4copyERKS0_ @5546
    _ZN4inet15EthernetPaddingC1ERKS0_ @5547
    _ZN4inet15EthernetPaddingC1Ev @5548
    _ZN4inet15EthernetPaddingC2ERKS0_ @5549
    _ZN4inet15EthernetPaddingC2Ev @5550
    _ZN4inet15EthernetPaddingD0Ev @5551
    _ZN4inet15EthernetPaddingD1Ev @5552
    _ZN4inet15EthernetPaddingD2Ev @5553
    _ZN4inet15EthernetPaddingaSERKS0_ @5554
    _ZN4inet15HelloTimeoutMsg12parsimUnpackEPN7omnetpp11cCommBufferE @5555
    _ZN4inet15HelloTimeoutMsg4copyERKS0_ @5556
    _ZN4inet15HelloTimeoutMsg7setPeerERKNS_11Ipv4AddressE @5557
    _ZN4inet15HelloTimeoutMsgC1EPKcs @5558
    _ZN4inet15HelloTimeoutMsgC1ERKS0_ @5559
    _ZN4inet15HelloTimeoutMsgC2EPKcs @5560
    _ZN4inet15HelloTimeoutMsgC2ERKS0_ @5561
    _ZN4inet15HelloTimeoutMsgD0Ev @5562
    _ZN4inet15HelloTimeoutMsgD1Ev @5563
    _ZN4inet15HelloTimeoutMsgD2Ev @5564
    _ZN4inet15HelloTimeoutMsgaSERKS0_ @5565
    _ZN4inet15HopLimitTagBase11setHopLimitEi @5566
    _ZN4inet15HopLimitTagBase12parsimUnpackEPN7omnetpp11cCommBufferE @5567
    _ZN4inet15HopLimitTagBase4copyERKS0_ @5568
    _ZN4inet15HopLimitTagBaseC1ERKS0_ @5569
    _ZN4inet15HopLimitTagBaseC1Ev @5570
    _ZN4inet15HopLimitTagBaseC2ERKS0_ @5571
    _ZN4inet15HopLimitTagBaseC2Ev @5572
    _ZN4inet15HopLimitTagBaseD0Ev @5573
    _ZN4inet15HopLimitTagBaseD1Ev @5574
    _ZN4inet15HopLimitTagBaseD2Ev @5575
    _ZN4inet15HopLimitTagBaseaSERKS0_ @5576
    _ZN4inet15IMulticastRoute14sourceTypeNameENS0_10SourceTypeE @5577
    _ZN4inet15IcmpEchoRequest12parsimUnpackEPN7omnetpp11cCommBufferE @5578
    _ZN4inet15IcmpEchoRequest12setSeqNumberEi @5579
    _ZN4inet15IcmpEchoRequest13setIdentifierEi @5580
    _ZN4inet15IcmpEchoRequest4copyERKS0_ @5581
    _ZN4inet15IcmpEchoRequestC1ERKS0_ @5582
    _ZN4inet15IcmpEchoRequestC1Ev @5583
    _ZN4inet15IcmpEchoRequestC2ERKS0_ @5584
    _ZN4inet15IcmpEchoRequestC2Ev @5585
    _ZN4inet15IcmpEchoRequestD0Ev @5586
    _ZN4inet15IcmpEchoRequestD1Ev @5587
    _ZN4inet15IcmpEchoRequestD2Ev @5588
    _ZN4inet15IcmpEchoRequestaSERKS0_ @5589
    _ZN4inet15Ieee8021qHeader12parsimUnpackEPN7omnetpp11cCommBufferE @5590
    _ZN4inet15Ieee8021qHeader4copyERKS0_ @5591
    _ZN4inet15Ieee8021qHeader5setDeEb @5592
    _ZN4inet15Ieee8021qHeader6setPcpEh @5593
    _ZN4inet15Ieee8021qHeader6setVidEt @5594
    _ZN4inet15Ieee8021qHeaderC1ERKS0_ @5595
    _ZN4inet15Ieee8021qHeaderC1Ev @5596
    _ZN4inet15Ieee8021qHeaderC2ERKS0_ @5597
    _ZN4inet15Ieee8021qHeaderC2Ev @5598
    _ZN4inet15Ieee8021qHeaderD0Ev @5599
    _ZN4inet15Ieee8021qHeaderD1Ev @5600
    _ZN4inet15Ieee8021qHeaderD2Ev @5601
    _ZN4inet15Ieee8021qHeaderaSERKS0_ @5602
    _ZN4inet15Ipv4AddressType21ALL_RIP_ROUTERS_MCASTE @5603 DATA
    _ZN4inet15Ipv4AddressType8INSTANCEE @5604 DATA
    _ZN4inet15Ipv6AddressType21ALL_RIP_ROUTERS_MCASTE @5605 DATA
    _ZN4inet15Ipv6AddressType8INSTANCEE @5606 DATA
    _ZN4inet15LabelRequestObjC1Ev @5607
    _ZN4inet15LabelRequestObjC2Ev @5608
    _ZN4inet15LdpLabelMapping12parsimUnpackEPN7omnetpp11cCommBufferE @5609
    _ZN4inet15LdpLabelMapping4copyERKS0_ @5610
    _ZN4inet15LdpLabelMapping6setFecERKNS_6FecTlvE @5611
    _ZN4inet15LdpLabelMapping8setLabelEi @5612
    _ZN4inet15LdpLabelMappingC1ERKS0_ @5613
    _ZN4inet15LdpLabelMappingC1Ev @5614
    _ZN4inet15LdpLabelMappingC2ERKS0_ @5615
    _ZN4inet15LdpLabelMappingC2Ev @5616
    _ZN4inet15LdpLabelMappingD0Ev @5617
    _ZN4inet15LdpLabelMappingD1Ev @5618
    _ZN4inet15LdpLabelMappingD2Ev @5619
    _ZN4inet15LdpLabelMappingaSERKS0_ @5620
    _ZN4inet15LdpLabelRequest12parsimUnpackEPN7omnetpp11cCommBufferE @5621
    _ZN4inet15LdpLabelRequest4copyERKS0_ @5622
    _ZN4inet15LdpLabelRequest6setFecERKNS_6FecTlvE @5623
    _ZN4inet15LdpLabelRequestC1ERKS0_ @5624
    _ZN4inet15LdpLabelRequestC1Ev @5625
    _ZN4inet15LdpLabelRequestC2ERKS0_ @5626
    _ZN4inet15LdpLabelRequestC2Ev @5627
    _ZN4inet15LdpLabelRequestD0Ev @5628
    _ZN4inet15LdpLabelRequestD1Ev @5629
    _ZN4inet15LdpLabelRequestD2Ev @5630
    _ZN4inet15LdpLabelRequestaSERKS0_ @5631
    _ZN4inet15MacAddressTable10clearTableEv @5632
    _ZN4inet15MacAddressTable10initializeEi @5633
    _ZN4inet15MacAddressTable10printStateEv @5634
    _ZN4inet15MacAddressTable12setAgingTimeEN7omnetpp7SimTimeE @5635
    _ZN4inet15MacAddressTable13handleMessageEPN7omnetpp8cMessageE @5636
    _ZN4inet15MacAddressTable14getTableForVidEj @5637
    _ZN4inet15MacAddressTable15initializeTableEv @5638
    _ZN4inet15MacAddressTable16readAddressTableEPKc @5639
    _ZN4inet15MacAddressTable17resetDefaultAgingEv @5640
    _ZN4inet15MacAddressTable19handleMessageWhenUpEPN7omnetpp8cMessageE @5641
    _ZN4inet15MacAddressTable22updateTableWithAddressEiRKNS_10MacAddressEj @5642
    _ZN4inet15MacAddressTable24getInterfaceIdForAddressERKNS_10MacAddressEj @5643
    _ZN4inet15MacAddressTable25removeAgedEntriesFromVlanEj @5644
    _ZN4inet15MacAddressTable25removeAgedEntriesIfNeededEv @5645
    _ZN4inet15MacAddressTable29removeAgedEntriesFromAllVlansEv @5646
    _ZN4inet15MacAddressTable5flushEi @5647
    _ZN4inet15MacAddressTable9copyTableEii @5648
    _ZN4inet15MacAddressTableC1Ev @5649
    _ZN4inet15MacAddressTableC2Ev @5650
    _ZN4inet15MacAddressTableD0Ev @5651
    _ZN4inet15MacAddressTableD1Ev @5652
    _ZN4inet15MacAddressTableD2Ev @5653
    _ZN4inet15MacProtocolBase10clearQueueEv @5654
    _ZN4inet15MacProtocolBase10flushQueueERNS_17PacketDropDetailsE @5655
    _ZN4inet15MacProtocolBase10initializeEi @5656
    _ZN4inet15MacProtocolBase10popTxQueueEv @5657
    _ZN4inet15MacProtocolBase13receiveSignalEPN7omnetpp10cComponentEiPNS1_7cObjectES5_ @5658
    _ZN4inet15MacProtocolBase14isLowerMessageEPN7omnetpp8cMessageE @5659
    _ZN4inet15MacProtocolBase14isUpperMessageEPN7omnetpp8cMessageE @5660
    _ZN4inet15MacProtocolBase17registerInterfaceEv @5661
    _ZN4inet15MacProtocolBase18dropCurrentTxFrameERNS_17PacketDropDetailsE @5662
    _ZN4inet15MacProtocolBase19handleStopOperationEPNS_18LifecycleOperationE @5663
    _ZN4inet15MacProtocolBase20deleteCurrentTxFrameEv @5664
    _ZN4inet15MacProtocolBase20handleCrashOperationEPNS_18LifecycleOperationE @5665
    _ZN4inet15MacProtocolBase20handleStartOperationEPNS_18LifecycleOperationE @5666
    _ZN4inet15MacProtocolBase21handleMessageWhenDownEPN7omnetpp8cMessageE @5667
    _ZN4inet15MacProtocolBase24parseMacAddressParameterEPKc @5668
    _ZN4inet15MacProtocolBase6sendUpEPN7omnetpp8cMessageE @5669
    _ZN4inet15MacProtocolBase8sendDownEPN7omnetpp8cMessageE @5670
    _ZN4inet15MacProtocolBaseC2Ev @5671
    _ZN4inet15MacProtocolBaseD0Ev @5672
    _ZN4inet15MacProtocolBaseD1Ev @5673
    _ZN4inet15MacProtocolBaseD2Ev @5674
    _ZN4inet15MatchableObject10splitIndexEPcRi @5675
    _ZN4inet15MatchableObject19findDescriptorFieldEPN7omnetpp16cClassDescriptorEPKcRiS6_ @5676
    _ZN4inet15MatchableObject9setObjectEPKN7omnetpp7cObjectE @5677
    _ZN4inet15MatchableObjectC1ENS0_9AttributeEPKN7omnetpp7cObjectE @5678
    _ZN4inet15MatchableObjectC2ENS0_9AttributeEPKN7omnetpp7cObjectE @5679
    _ZN4inet15ModuleIdAddress8tryParseEPKc @5680
    _ZN4inet15OperationalBase10initializeEi @5681
    _ZN4inet15OperationalBase13handleMessageEPN7omnetpp8cMessageE @5682
    _ZN4inet15OperationalBase19setOperationalStateENS0_5StateE @5683
    _ZN4inet15OperationalBase20handleOperationStageEPNS_18LifecycleOperationEPNS_13IDoneCallbackE @5684
    _ZN4inet15OperationalBase20setupActiveOperationEPNS_18LifecycleOperationEPNS_13IDoneCallbackENS0_5StateE @5685
    _ZN4inet15OperationalBase21finishActiveOperationEv @5686
    _ZN4inet15OperationalBase21handleMessageWhenDownEPN7omnetpp8cMessageE @5687
    _ZN4inet15OperationalBase24scheduleOperationTimeoutEN7omnetpp7SimTimeE @5688
    _ZN4inet15OperationalBase26delayActiveOperationFinishEN7omnetpp7SimTimeE @5689
    _ZN4inet15OperationalBase28handleActiveOperationTimeoutEPN7omnetpp8cMessageE @5690
    _ZN4inet15OperationalBase29startActiveOperationExtraTimeEN7omnetpp7SimTimeE @5691
    _ZN4inet15OperationalBase37startActiveOperationExtraTimeOrFinishEN7omnetpp7SimTimeE @5692
    _ZN4inet15OperationalBaseC2Ev @5693
    _ZN4inet15OperationalBaseD0Ev @5694
    _ZN4inet15OperationalBaseD1Ev @5695
    _ZN4inet15OperationalBaseD2Ev @5696
    _ZN4inet15PacketDissector12ChunkBuilder10visitChunkERKNS_12IntrusivePtrIKNS_5ChunkEEEPKNS_8ProtocolE @5697
    _ZN4inet15PacketDissector14PduTreeBuilder10visitChunkERKNS_12IntrusivePtrIKNS_5ChunkEEEPKNS_8ProtocolE @5698
    _ZN4inet15PacketDissector14PduTreeBuilder13markIncorrectEv @5699
    _ZN4inet15PacketDissector14PduTreeBuilder19endProtocolDataUnitEPKNS_8ProtocolE @5700
    _ZN4inet15PacketDissector14PduTreeBuilder21startProtocolDataUnitEPKNS_8ProtocolE @5701
    _ZN4inet15PacketDissector16ProtocolDataUnitC1EiPKNS_8ProtocolE @5702
    _ZN4inet15PacketDissector16ProtocolDataUnitC2EiPKNS_8ProtocolE @5703
    _ZN4inet15PacketDissector25ProtocolDissectorCallback10visitChunkERKNS_12IntrusivePtrIKNS_5ChunkEEEPKNS_8ProtocolE @5704
    _ZN4inet15PacketDissector25ProtocolDissectorCallback13dissectPacketEPNS_6PacketEPKNS_8ProtocolE @5705
    _ZN4inet15PacketDissector25ProtocolDissectorCallback13markIncorrectEv @5706
    _ZN4inet15PacketDissector25ProtocolDissectorCallback19endProtocolDataUnitEPKNS_8ProtocolE @5707
    _ZN4inet15PacketDissector25ProtocolDissectorCallback21startProtocolDataUnitEPKNS_8ProtocolE @5708
    _ZN4inet15PacketDissector25ProtocolDissectorCallbackC1ERKS0_ @5709
    _ZN4inet15PacketDissector25ProtocolDissectorCallbackC2ERKS0_ @5710
    _ZN4inet15PacketDissectorC1ERKNS_25ProtocolDissectorRegistryERNS0_9ICallbackE @5711
    _ZN4inet15PacketDissectorC2ERKNS_25ProtocolDissectorRegistryERNS0_9ICallbackE @5712
    _ZN4inet15PacketMeterBase10initializeEi @5713
    _ZN4inet15PacketMeterBase19handleCanPushPacketEPN7omnetpp5cGateE @5714
    _ZN4inet15PimRegisterStop12parsimUnpackEPN7omnetpp11cCommBufferE @5715
    _ZN4inet15PimRegisterStop15setGroupAddressERKNS_19EncodedGroupAddressE @5716
    _ZN4inet15PimRegisterStop16setSourceAddressERKNS_21EncodedUnicastAddressE @5717
    _ZN4inet15PimRegisterStop4copyERKS0_ @5718
    _ZN4inet15PimRegisterStopC1ERKS0_ @5719
    _ZN4inet15PimRegisterStopC1Ev @5720
    _ZN4inet15PimRegisterStopC2ERKS0_ @5721
    _ZN4inet15PimRegisterStopC2Ev @5722
    _ZN4inet15PimRegisterStopD0Ev @5723
    _ZN4inet15PimRegisterStopD1Ev @5724
    _ZN4inet15PimRegisterStopD2Ev @5725
    _ZN4inet15PimRegisterStopaSERKS0_ @5726
    _ZN4inet15PimStateRefresh10setMaskLenEs @5727
    _ZN4inet15PimStateRefresh11setIntervalEs @5728
    _ZN4inet15PimStateRefresh12parsimUnpackEPN7omnetpp11cCommBufferE @5729
    _ZN4inet15PimStateRefresh12setReserved2Es @5730
    _ZN4inet15PimStateRefresh15setGroupAddressERKNS_19EncodedGroupAddressE @5731
    _ZN4inet15PimStateRefresh16setSourceAddressERKNS_21EncodedUnicastAddressE @5732
    _ZN4inet15PimStateRefresh19setMetricPreferenceEi @5733
    _ZN4inet15PimStateRefresh20setOriginatorAddressERKNS_21EncodedUnicastAddressE @5734
    _ZN4inet15PimStateRefresh4copyERKS0_ @5735
    _ZN4inet15PimStateRefresh4setNEb @5736
    _ZN4inet15PimStateRefresh4setOEb @5737
    _ZN4inet15PimStateRefresh4setPEb @5738
    _ZN4inet15PimStateRefresh4setREb @5739
    _ZN4inet15PimStateRefresh6setTtlEs @5740
    _ZN4inet15PimStateRefresh9setMetricEi @5741
    _ZN4inet15PimStateRefreshC1ERKS0_ @5742
    _ZN4inet15PimStateRefreshC1Ev @5743
    _ZN4inet15PimStateRefreshC2ERKS0_ @5744
    _ZN4inet15PimStateRefreshC2Ev @5745
    _ZN4inet15PimStateRefreshD0Ev @5746
    _ZN4inet15PimStateRefreshD1Ev @5747
    _ZN4inet15PimStateRefreshD2Ev @5748
    _ZN4inet15PimStateRefreshaSERKS0_ @5749
    _ZN4inet15PolyhedronPointC1ERKNS_5CoordE @5750
    _ZN4inet15PolyhedronPointC1Ev @5751
    _ZN4inet15PolyhedronPointC2ERKNS_5CoordE @5752
    _ZN4inet15PolyhedronPointC2Ev @5753
    _ZN4inet15ProtocolTagBase11setProtocolEPKNS_8ProtocolE @5754
    _ZN4inet15ProtocolTagBase12parsimUnpackEPN7omnetpp11cCommBufferE @5755
    _ZN4inet15ProtocolTagBase4copyERKS0_ @5756
    _ZN4inet15ProtocolTagBaseC1ERKS0_ @5757
    _ZN4inet15ProtocolTagBaseC1Ev @5758
    _ZN4inet15ProtocolTagBaseC2ERKS0_ @5759
    _ZN4inet15ProtocolTagBaseC2Ev @5760
    _ZN4inet15ProtocolTagBaseD0Ev @5761
    _ZN4inet15ProtocolTagBaseD1Ev @5762
    _ZN4inet15ProtocolTagBaseD2Ev @5763
    _ZN4inet15ProtocolTagBaseaSERKS0_ @5764
    _ZN4inet15ScenarioManager10disconnectEPN7omnetpp5cGateE @5765
    _ZN4inet15ScenarioManager10initializeEv @5766
    _ZN4inet15ScenarioManager13getConnectionEPKN7omnetpp11cXMLElementE @5767
    _ZN4inet15ScenarioManager13handleMessageEPN7omnetpp8cMessageE @5768
    _ZN4inet15ScenarioManager14processCommandEPKN7omnetpp11cXMLElementE @5769
    _ZN4inet15ScenarioManager15setChannelParamEPN7omnetpp5cGateEPKcS5_ @5770
    _ZN4inet15ScenarioManager16createConnectionERKSt6vectorIPN7omnetpp11cXMLElementESaIS4_EEPNS2_12cChannelTypeEPNS2_5cGateESC_ @5771
    _ZN4inet15ScenarioManager16processAtCommandEPKN7omnetpp11cXMLElementE @5772
    _ZN4inet15ScenarioManager17getRequiredModuleEPKN7omnetpp11cXMLElementEPKc @5773
    _ZN4inet15ScenarioManager17getRequiredModuleEPKc @5774
    _ZN4inet15ScenarioManager21processConnectCommandEPKN7omnetpp11cXMLElementE @5775
    _ZN4inet15ScenarioManager22processSetParamCommandEPKN7omnetpp11cXMLElementE @5776
    _ZN4inet15ScenarioManager23processLifecycleCommandEPKN7omnetpp11cXMLElementE @5777
    _ZN4inet15ScenarioManager24processDisconnectCommandEPKN7omnetpp11cXMLElementE @5778
    _ZN4inet15ScenarioManager26processCreateModuleCommandEPKN7omnetpp11cXMLElementE @5779
    _ZN4inet15ScenarioManager26processDeleteModuleCommandEPKN7omnetpp11cXMLElementE @5780
    _ZN4inet15ScenarioManager28processModuleSpecificCommandEPKN7omnetpp11cXMLElementE @5781
    _ZN4inet15ScenarioManager29processSetChannelParamCommandEPKN7omnetpp11cXMLElementE @5782
    _ZN4inet15ScenarioManager30findMandatorySingleGateTowardsEPN7omnetpp7cModuleES3_ @5783
    _ZN4inet15SctpPathInfoReq12parsimUnpackEPN7omnetpp11cCommBufferE @5784
    _ZN4inet15SctpPathInfoReq16setRemoteAddressERKNS_9L3AddressE @5785
    _ZN4inet15SctpPathInfoReq4copyERKS0_ @5786
    _ZN4inet15SctpPathInfoReqC1ERKS0_ @5787
    _ZN4inet15SctpPathInfoReqC1Ev @5788
    _ZN4inet15SctpPathInfoReqC2ERKS0_ @5789
    _ZN4inet15SctpPathInfoReqC2Ev @5790
    _ZN4inet15SctpPathInfoReqD0Ev @5791
    _ZN4inet15SctpPathInfoReqD1Ev @5792
    _ZN4inet15SctpPathInfoReqD2Ev @5793
    _ZN4inet15SctpPathInfoReqaSERKS0_ @5794
    _ZN4inet15TeLinkStateInfoC1Ev @5795
    _ZN4inet15TeLinkStateInfoC2Ev @5796
    _ZN4inet15TractorMobility10initializeEi @5797
    _ZN4inet15TractorMobility17setTargetPositionEv @5798
    _ZN4inet15TractorMobility18setInitialPositionEv @5799
    _ZN4inet15TractorMobilityC1Ev @5800
    _ZN4inet15TractorMobilityC2Ev @5801
    _ZN4inet15TunCloseCommand12parsimUnpackEPN7omnetpp11cCommBufferE @5802
    _ZN4inet15TunCloseCommand4copyERKS0_ @5803
    _ZN4inet15TunCloseCommandC1ERKS0_ @5804
    _ZN4inet15TunCloseCommandC1Ev @5805
    _ZN4inet15TunCloseCommandC2ERKS0_ @5806
    _ZN4inet15TunCloseCommandC2Ev @5807
    _ZN4inet15TunCloseCommandD0Ev @5808
    _ZN4inet15TunCloseCommandD1Ev @5809
    _ZN4inet15TunCloseCommandD2Ev @5810
    _ZN4inet15TunCloseCommandaSERKS0_ @5811
    _ZN4inet15UdpCloseCommand12parsimUnpackEPN7omnetpp11cCommBufferE @5812
    _ZN4inet15UdpCloseCommand4copyERKS0_ @5813
    _ZN4inet15UdpCloseCommandC1ERKS0_ @5814
    _ZN4inet15UdpCloseCommandC1Ev @5815
    _ZN4inet15UdpCloseCommandC2ERKS0_ @5816
    _ZN4inet15UdpCloseCommandC2Ev @5817
    _ZN4inet15UdpCloseCommandD0Ev @5818
    _ZN4inet15UdpCloseCommandD1Ev @5819
    _ZN4inet15UdpCloseCommandD2Ev @5820
    _ZN4inet15UdpCloseCommandaSERKS0_ @5821
    _ZN4inet15UserPriorityInd12parsimUnpackEPN7omnetpp11cCommBufferE @5822
    _ZN4inet15UserPriorityInd4copyERKS0_ @5823
    _ZN4inet15UserPriorityIndC1ERKS0_ @5824
    _ZN4inet15UserPriorityIndC1Ev @5825
    _ZN4inet15UserPriorityIndC2ERKS0_ @5826
    _ZN4inet15UserPriorityIndC2Ev @5827
    _ZN4inet15UserPriorityIndD0Ev @5828
    _ZN4inet15UserPriorityIndD1Ev @5829
    _ZN4inet15UserPriorityIndD2Ev @5830
    _ZN4inet15UserPriorityIndaSERKS0_ @5831
    _ZN4inet15UserPriorityReq12parsimUnpackEPN7omnetpp11cCommBufferE @5832
    _ZN4inet15UserPriorityReq4copyERKS0_ @5833
    _ZN4inet15UserPriorityReqC1ERKS0_ @5834
    _ZN4inet15UserPriorityReqC1Ev @5835
    _ZN4inet15UserPriorityReqC2ERKS0_ @5836
    _ZN4inet15UserPriorityReqC2Ev @5837
    _ZN4inet15UserPriorityReqD0Ev @5838
    _ZN4inet15UserPriorityReqD1Ev @5839
    _ZN4inet15UserPriorityReqD2Ev @5840
    _ZN4inet15UserPriorityReqaSERKS0_ @5841
    _ZN4inet15VehicleMobility10initializeEi @5842
    _ZN4inet15VehicleMobility18setInitialPositionEv @5843
    _ZN4inet15VehicleMobility21readWaypointsFromFileEPKc @5844
    _ZN4inet15VehicleMobility4moveEv @5845
    _ZN4inet15VehicleMobility6orientEv @5846
    _ZN4inet15WiseRouteHeader10setIsFloodEi @5847
    _ZN4inet15WiseRouteHeader10setSrcAddrERKNS_9L3AddressE @5848
    _ZN4inet15WiseRouteHeader11setDestAddrERKNS_9L3AddressE @5849
    _ZN4inet15WiseRouteHeader12parsimUnpackEPN7omnetpp11cCommBufferE @5850
    _ZN4inet15WiseRouteHeader13setProtocolIdENS_12IpProtocolIdE @5851
    _ZN4inet15WiseRouteHeader16setFinalDestAddrERKNS_9L3AddressE @5852
    _ZN4inet15WiseRouteHeader17setInitialSrcAddrERKNS_9L3AddressE @5853
    _ZN4inet15WiseRouteHeader21setPayloadLengthFieldENS_5units5valueIxNS1_8intscaleINS1_5units1bELi1ELi8EEEEE @5854
    _ZN4inet15WiseRouteHeader4copyERKS0_ @5855
    _ZN4inet15WiseRouteHeader9setNbHopsEi @5856
    _ZN4inet15WiseRouteHeader9setSeqNumEm @5857
    _ZN4inet15WiseRouteHeaderC1ERKS0_ @5858
    _ZN4inet15WiseRouteHeaderC1Ev @5859
    _ZN4inet15WiseRouteHeaderC2ERKS0_ @5860
    _ZN4inet15WiseRouteHeaderC2Ev @5861
    _ZN4inet15WiseRouteHeaderD0Ev @5862
    _ZN4inet15WiseRouteHeaderD1Ev @5863
    _ZN4inet15WiseRouteHeaderD2Ev @5864
    _ZN4inet15WiseRouteHeaderaSERKS0_ @5865
    _ZN4inet15registerServiceERKNS_8ProtocolEPN7omnetpp5cGateENS_16ServicePrimitiveE @5866
    _ZN4inet15registerServiceERKNS_8ProtocolEPN7omnetpp5cGateES5_ @5867
    _ZN4inet15registerServiceERKNS_8ProtocolEPN7omnetpp5cGateES5_S5_S5_ @5868
    _ZN4inet16AttachedMobility10initializeEi @5869
    _ZN4inet16AttachedMobility13receiveSignalEPN7omnetpp10cComponentEiPNS1_7cObjectES5_ @5870
    _ZN4inet16AttachedMobility18getCurrentPositionEv @5871
    _ZN4inet16AttachedMobility18getCurrentVelocityEv @5872
    _ZN4inet16AttachedMobility22getCurrentAccelerationEv @5873
    _ZN4inet16AttachedMobility25getCurrentAngularPositionEv @5874
    _ZN4inet16AttachedMobility25getCurrentAngularVelocityEv @5875
    _ZN4inet16AttachedMobility29getCurrentAngularAccelerationEv @5876
    _ZN4inet16BMacControlFrame12parsimUnpackEPN7omnetpp11cCommBufferE @5877
    _ZN4inet16BMacControlFrame4copyERKS0_ @5878
    _ZN4inet16BMacControlFrameC1ERKS0_ @5879
    _ZN4inet16BMacControlFrameC1Ev @5880
    _ZN4inet16BMacControlFrameC2ERKS0_ @5881
    _ZN4inet16BMacControlFrameC2Ev @5882
    _ZN4inet16BMacControlFrameD0Ev @5883
    _ZN4inet16BMacControlFrameD1Ev @5884
    _ZN4inet16BMacControlFrameD2Ev @5885
    _ZN4inet16BMacControlFrameaSERKS0_ @5886
    _ZN4inet16BoxedLabelFigure10setOpacityEd @5887
    _ZN4inet16BoxedLabelFigure10setTooltipEPKc @5888
    _ZN4inet16BoxedLabelFigure13setLabelColorEN7omnetpp7cFigure5ColorE @5889
    _ZN4inet16BoxedLabelFigure18setBackgroundColorEN7omnetpp7cFigure5ColorE @5890
    _ZN4inet16BoxedLabelFigure19setAssociatedObjectEPN7omnetpp7cObjectE @5891
    _ZN4inet16BoxedLabelFigure7setFontEN7omnetpp7cFigure4FontE @5892
    _ZN4inet16BoxedLabelFigure7setTagsEPKc @5893
    _ZN4inet16BoxedLabelFigure7setTextEPKc @5894
    _ZN4inet16BoxedLabelFigure8setInsetEd @5895
    _ZN4inet16BoxedLabelFigureC1EPKc @5896
    _ZN4inet16BoxedLabelFigureC2EPKc @5897
    _ZN4inet16CanvasProjection17canvasProjectionsE @5898 DATA
    _ZN4inet16CanvasProjection19getCanvasProjectionEPKN7omnetpp7cCanvasE @5899
    _ZN4inet16CanvasProjection21dropCanvasProjectionsEv @5900
    _ZN4inet16CanvasProjectionC1ENS_14RotationMatrixEN7omnetpp7cFigure5PointE @5901
    _ZN4inet16CanvasProjectionC2ENS_14RotationMatrixEN7omnetpp7cFigure5PointE @5902
    _ZN4inet16CanvasProjectionD0Ev @5903
    _ZN4inet16CanvasProjectionD1Ev @5904
    _ZN4inet16CanvasProjectionD2Ev @5905
    _ZN4inet16CloudDelayerBase10initializeEi @5906
    _ZN4inet16CloudDelayerBase13handleMessageEPN7omnetpp8cMessageE @5907
    _ZN4inet16CloudDelayerBase19datagramForwardHookEPNS_6PacketE @5908
    _ZN4inet16CloudDelayerBase19datagramLocalInHookEPNS_6PacketE @5909
    _ZN4inet16CloudDelayerBase20datagramLocalOutHookEPNS_6PacketE @5910
    _ZN4inet16CloudDelayerBase21calculateDropAndDelayEPKN7omnetpp8cMessageEiiRbRNS1_7SimTimeE @5911
    _ZN4inet16CloudDelayerBase22datagramPreRoutingHookEPNS_6PacketE @5912
    _ZN4inet16CloudDelayerBase23datagramPostRoutingHookEPNS_6PacketE @5913
    _ZN4inet16CloudDelayerBase6finishEv @5914
    _ZN4inet16CloudDelayerBaseC1Ev @5915
    _ZN4inet16CloudDelayerBaseC2Ev @5916
    _ZN4inet16CloudDelayerBaseD0Ev @5917
    _ZN4inet16CloudDelayerBaseD1Ev @5918
    _ZN4inet16CloudDelayerBaseD2Ev @5919
    _ZN4inet16CsmaCaMacTrailer10setFcsModeENS_7FcsModeE @5920
    _ZN4inet16CsmaCaMacTrailer12parsimUnpackEPN7omnetpp11cCommBufferE @5921
    _ZN4inet16CsmaCaMacTrailer4copyERKS0_ @5922
    _ZN4inet16CsmaCaMacTrailer6setFcsEj @5923
    _ZN4inet16CsmaCaMacTrailerC1ERKS0_ @5924
    _ZN4inet16CsmaCaMacTrailerC1Ev @5925
    _ZN4inet16CsmaCaMacTrailerC2ERKS0_ @5926
    _ZN4inet16CsmaCaMacTrailerC2Ev @5927
    _ZN4inet16CsmaCaMacTrailerD0Ev @5928
    _ZN4inet16CsmaCaMacTrailerD1Ev @5929
    _ZN4inet16CsmaCaMacTrailerD2Ev @5930
    _ZN4inet16CsmaCaMacTraileraSERKS0_ @5931
    _ZN4inet16DrPriorityOption11setPriorityEj @5932
    _ZN4inet16DrPriorityOption12parsimUnpackEPN7omnetpp11cCommBufferE @5933
    _ZN4inet16DrPriorityOption4copyERKS0_ @5934
    _ZN4inet16DrPriorityOptionC1ERKS0_ @5935
    _ZN4inet16DrPriorityOptionC1Ev @5936
    _ZN4inet16DrPriorityOptionC2ERKS0_ @5937
    _ZN4inet16DrPriorityOptionC2Ev @5938
    _ZN4inet16DrPriorityOptionD0Ev @5939
    _ZN4inet16DrPriorityOptionD1Ev @5940
    _ZN4inet16DrPriorityOptionD2Ev @5941
    _ZN4inet16DrPriorityOptionaSERKS0_ @5942
    _ZN4inet16FlowDescriptor_tC1Ev @5943
    _ZN4inet16FlowDescriptor_tC2Ev @5944
    _ZN4inet16FragmentationReq12parsimUnpackEPN7omnetpp11cCommBufferE @5945
    _ZN4inet16FragmentationReq15setDontFragmentEb @5946
    _ZN4inet16FragmentationReq4copyERKS0_ @5947
    _ZN4inet16FragmentationReqC1ERKS0_ @5948
    _ZN4inet16FragmentationReqC1Ev @5949
    _ZN4inet16FragmentationReqC2ERKS0_ @5950
    _ZN4inet16FragmentationReqC2Ev @5951
    _ZN4inet16FragmentationReqD0Ev @5952
    _ZN4inet16FragmentationReqD1Ev @5953
    _ZN4inet16FragmentationReqD2Ev @5954
    _ZN4inet16FragmentationReqaSERKS0_ @5955
    _ZN4inet16InterfaceMatcher20findMatchingSelectorEPKNS_14InterfaceEntryE @5956
    _ZN4inet16InterfaceMatcherC1ERKSt6vectorIPN7omnetpp11cXMLElementESaIS4_EE @5957
    _ZN4inet16InterfaceMatcherC2ERKSt6vectorIPN7omnetpp11cXMLElementESaIS4_EE @5958
    _ZN4inet16InterfaceMatcherD1Ev @5959
    _ZN4inet16InterfaceMatcherD2Ev @5960
    _ZN4inet16InterfaceTagBase12parsimUnpackEPN7omnetpp11cCommBufferE @5961
    _ZN4inet16InterfaceTagBase14setInterfaceIdEi @5962
    _ZN4inet16InterfaceTagBase4copyERKS0_ @5963
    _ZN4inet16InterfaceTagBaseC1ERKS0_ @5964
    _ZN4inet16InterfaceTagBaseC1Ev @5965
    _ZN4inet16InterfaceTagBaseC2ERKS0_ @5966
    _ZN4inet16InterfaceTagBaseC2Ev @5967
    _ZN4inet16InterfaceTagBaseD0Ev @5968
    _ZN4inet16InterfaceTagBaseD1Ev @5969
    _ZN4inet16InterfaceTagBaseD2Ev @5970
    _ZN4inet16InterfaceTagBaseaSERKS0_ @5971
    _ZN4inet16Ipv4RoutingTable10initializeEi @5972
    _ZN4inet16Ipv4RoutingTable11deleteRouteEPNS_9Ipv4RouteE @5973
    _ZN4inet16Ipv4RoutingTable11removeRouteEPNS_9Ipv4RouteE @5974
    _ZN4inet16Ipv4RoutingTable11setRouterIdENS_11Ipv4AddressE @5975
    _ZN4inet16Ipv4RoutingTable12routeChangedEPNS_9Ipv4RouteEi @5976
    _ZN4inet16Ipv4RoutingTable13getHostModuleEv @5977
    _ZN4inet16Ipv4RoutingTable13handleMessageEPN7omnetpp8cMessageE @5978
    _ZN4inet16Ipv4RoutingTable13receiveSignalEPN7omnetpp10cComponentEiPNS1_7cObjectES5_ @5979
    _ZN4inet16Ipv4RoutingTable14createNewRouteEv @5980
    _ZN4inet16Ipv4RoutingTable15invalidateCacheEv @5981
    _ZN4inet16Ipv4RoutingTable16internalAddRouteEPNS_9Ipv4RouteE @5982
    _ZN4inet16Ipv4RoutingTable17addMulticastRouteEPNS_18Ipv4MulticastRouteE @5983
    _ZN4inet16Ipv4RoutingTable17configureRouterIdEv @5984
    _ZN4inet16Ipv4RoutingTable19internalRemoveRouteEPNS_9Ipv4RouteE @5985
    _ZN4inet16Ipv4RoutingTable19updateNetmaskRoutesEv @5986
    _ZN4inet16Ipv4RoutingTable20deleteMulticastRouteEPNS_18Ipv4MulticastRouteE @5987
    _ZN4inet16Ipv4RoutingTable20handleOperationStageEPNS_18LifecycleOperationEPNS_13IDoneCallbackE @5988
    _ZN4inet16Ipv4RoutingTable20removeMulticastRouteEPNS_18Ipv4MulticastRouteE @5989
    _ZN4inet16Ipv4RoutingTable21deleteInterfaceRoutesEPKNS_14InterfaceEntryE @5990
    _ZN4inet16Ipv4RoutingTable21multicastRouteChangedEPNS_18Ipv4MulticastRouteEi @5991
    _ZN4inet16Ipv4RoutingTable22multicastRouteLessThanEPKNS_18Ipv4MulticastRouteES3_ @5992
    _ZN4inet16Ipv4RoutingTable25internalAddMulticastRouteEPNS_18Ipv4MulticastRouteE @5993
    _ZN4inet16Ipv4RoutingTable28internalRemoveMulticastRouteEPNS_18Ipv4MulticastRouteE @5994
    _ZN4inet16Ipv4RoutingTable5purgeEv @5995
    _ZN4inet16Ipv4RoutingTable8addRouteEPNS_9Ipv4RouteE @5996
    _ZN4inet16Ipv4RoutingTableD0Ev @5997
    _ZN4inet16Ipv4RoutingTableD1Ev @5998
    _ZN4inet16Ipv4RoutingTableD2Ev @5999
    _ZN4inet16Ipv6ExtHeaderInd12parsimUnpackEPN7omnetpp11cCommBufferE @6000
    _ZN4inet16Ipv6ExtHeaderInd4copyERKS0_ @6001
    _ZN4inet16Ipv6ExtHeaderIndC1ERKS0_ @6002
    _ZN4inet16Ipv6ExtHeaderIndC1Ev @6003
    _ZN4inet16Ipv6ExtHeaderIndC2ERKS0_ @6004
    _ZN4inet16Ipv6ExtHeaderIndC2Ev @6005
    _ZN4inet16Ipv6ExtHeaderIndD0Ev @6006
    _ZN4inet16Ipv6ExtHeaderIndD1Ev @6007
    _ZN4inet16Ipv6ExtHeaderIndD2Ev @6008
    _ZN4inet16Ipv6ExtHeaderIndaSERKS0_ @6009
    _ZN4inet16Ipv6ExtHeaderReq12parsimUnpackEPN7omnetpp11cCommBufferE @6010
    _ZN4inet16Ipv6ExtHeaderReq4copyERKS0_ @6011
    _ZN4inet16Ipv6ExtHeaderReqC1ERKS0_ @6012
    _ZN4inet16Ipv6ExtHeaderReqC1Ev @6013
    _ZN4inet16Ipv6ExtHeaderReqC2ERKS0_ @6014
    _ZN4inet16Ipv6ExtHeaderReqC2Ev @6015
    _ZN4inet16Ipv6ExtHeaderReqD0Ev @6016
    _ZN4inet16Ipv6ExtHeaderReqD1Ev @6017
    _ZN4inet16Ipv6ExtHeaderReqD2Ev @6018
    _ZN4inet16Ipv6ExtHeaderReqaSERKS0_ @6019
    _ZN4inet16Ipv6RoutingTable10initializeEi @6020
    _ZN4inet16Ipv6RoutingTable11deleteRouteEPNS_9Ipv6RouteE @6021
    _ZN4inet16Ipv6RoutingTable11removeRouteEPNS_9Ipv6RouteE @6022
    _ZN4inet16Ipv6RoutingTable12routeChangedEPNS_9Ipv6RouteEi @6023
    _ZN4inet16Ipv6RoutingTable13handleMessageEPN7omnetpp8cMessageE @6024
    _ZN4inet16Ipv6RoutingTable13isHomeAddressERKNS_11Ipv6AddressE @6025
    _ZN4inet16Ipv6RoutingTable13receiveSignalEPN7omnetpp10cComponentEiPNS1_7cObjectES5_ @6026
    _ZN4inet16Ipv6RoutingTable14addStaticRouteERKNS_11Ipv6AddressEijS3_i @6027
    _ZN4inet16Ipv6RoutingTable14createNewRouteENS_11Ipv6AddressEiNS_6IRoute10SourceTypeE @6028
    _ZN4inet16Ipv6RoutingTable14deletePrefixesEi @6029
    _ZN4inet16Ipv6RoutingTable14getHomeAddressEv @6030
    _ZN4inet16Ipv6RoutingTable14purgeDestCacheEv @6031
    _ZN4inet16Ipv6RoutingTable15addDefaultRouteERKNS_11Ipv6AddressEjN7omnetpp7SimTimeE @6032
    _ZN4inet16Ipv6RoutingTable15deleteAllRoutesEv @6033
    _ZN4inet16Ipv6RoutingTable15isOnLinkAddressERKNS_11Ipv6AddressE @6034
    _ZN4inet16Ipv6RoutingTable15lookupDestCacheERKNS_11Ipv6AddressERi @6035
    _ZN4inet16Ipv6RoutingTable15updateDestCacheERKNS_11Ipv6AddressES3_iN7omnetpp7SimTimeE @6036
    _ZN4inet16Ipv6RoutingTable16internalAddRouteEPNS_9Ipv6RouteE @6037
    _ZN4inet16Ipv6RoutingTable18deleteOnLinkPrefixERKNS_11Ipv6AddressEi @6038
    _ZN4inet16Ipv6RoutingTable18parseXmlConfigFileEv @6039
    _ZN4inet16Ipv6RoutingTable19deleteDefaultRoutesEi @6040
    _ZN4inet16Ipv6RoutingTable19internalDeleteRouteEN9__gnu_cxx17__normal_iteratorIPPNS_9Ipv6RouteESt6vectorIS4_SaIS4_EEEE @6041
    _ZN4inet16Ipv6RoutingTable19internalRemoveRouteEPNS_9Ipv6RouteE @6042
    _ZN4inet16Ipv6RoutingTable20doLongestPrefixMatchERKNS_11Ipv6AddressE @6043
    _ZN4inet16Ipv6RoutingTable20handleOperationStageEPNS_18LifecycleOperationEPNS_13IDoneCallbackE @6044
    _ZN4inet16Ipv6RoutingTable21deleteInterfaceRoutesEPKNS_14InterfaceEntryE @6045
    _ZN4inet16Ipv6RoutingTable22configureTunnelFromXmlEPN7omnetpp11cXMLElementE @6046
    _ZN4inet16Ipv6RoutingTable23addOrUpdateOnLinkPrefixERKNS_11Ipv6AddressEiiN7omnetpp7SimTimeE @6047
    _ZN4inet16Ipv6RoutingTable23addOrUpdateOwnAdvPrefixERKNS_11Ipv6AddressEiiN7omnetpp7SimTimeE @6048
    _ZN4inet16Ipv6RoutingTable23addRoutingProtocolRouteEPNS_9Ipv6RouteE @6049
    _ZN4inet16Ipv6RoutingTable25configureInterfaceForIpv6EPNS_14InterfaceEntryE @6050
    _ZN4inet16Ipv6RoutingTable25configureInterfaceFromXmlEPNS_14InterfaceEntryEPN7omnetpp11cXMLElementE @6051
    _ZN4inet16Ipv6RoutingTable27assignRequiredNodeAddressesEPNS_14InterfaceEntryE @6052
    _ZN4inet16Ipv6RoutingTable28purgeDestCacheForInterfaceIdEi @6053
    _ZN4inet16Ipv6RoutingTable32purgeDestCacheEntriesToNeighbourERKNS_11Ipv6AddressEi @6054
    _ZN4inet16Ipv6RoutingTable8addRouteEPNS_9Ipv6RouteE @6055
    _ZN4inet16Ipv6RoutingTableC1Ev @6056
    _ZN4inet16Ipv6RoutingTableC2Ev @6057
    _ZN4inet16Ipv6RoutingTableD0Ev @6058
    _ZN4inet16Ipv6RoutingTableD1Ev @6059
    _ZN4inet16Ipv6RoutingTableD2Ev @6060
    _ZN4inet16L3AddressTagBase12parsimUnpackEPN7omnetpp11cCommBufferE @6061
    _ZN4inet16L3AddressTagBase13setSrcAddressERKNS_9L3AddressE @6062
    _ZN4inet16L3AddressTagBase14setDestAddressERKNS_9L3AddressE @6063
    _ZN4inet16L3AddressTagBase4copyERKS0_ @6064
    _ZN4inet16L3AddressTagBaseC1ERKS0_ @6065
    _ZN4inet16L3AddressTagBaseC1Ev @6066
    _ZN4inet16L3AddressTagBaseC2ERKS0_ @6067
    _ZN4inet16L3AddressTagBaseC2Ev @6068
    _ZN4inet16L3AddressTagBaseD0Ev @6069
    _ZN4inet16L3AddressTagBaseD1Ev @6070
    _ZN4inet16L3AddressTagBaseD2Ev @6071
    _ZN4inet16L3AddressTagBaseaSERKS0_ @6072
    _ZN4inet16LMacControlFrame12parsimUnpackEPN7omnetpp11cCommBufferE @6073
    _ZN4inet16LMacControlFrame4copyERKS0_ @6074
    _ZN4inet16LMacControlFrameC1ERKS0_ @6075
    _ZN4inet16LMacControlFrameC1Ev @6076
    _ZN4inet16LMacControlFrameC2ERKS0_ @6077
    _ZN4inet16LMacControlFrameC2Ev @6078
    _ZN4inet16LMacControlFrameD0Ev @6079
    _ZN4inet16LMacControlFrameD1Ev @6080
    _ZN4inet16LMacControlFrameD2Ev @6081
    _ZN4inet16LMacControlFrameaSERKS0_ @6082
    _ZN4inet16LinkStateRouting10initializeEi @6083
    _ZN4inet16LinkStateRouting10sendToPeerENS_11Ipv4AddressERKSt6vectorINS_15TeLinkStateInfoESaIS3_EEb @6084
    _ZN4inet16LinkStateRouting11sendToPeersERKSt6vectorINS_15TeLinkStateInfoESaIS2_EEbNS_11Ipv4AddressE @6085
    _ZN4inet16LinkStateRouting13handleMessageEPN7omnetpp8cMessageE @6086
    _ZN4inet16LinkStateRouting13receiveSignalEPN7omnetpp10cComponentEiPNS1_7cObjectES5_ @6087
    _ZN4inet16LinkStateRouting25processLINK_STATE_MESSAGEEPNS_6PacketENS_11Ipv4AddressE @6088
    _ZN4inet16LinkStateRouting8sendToIPEPNS_6PacketENS_11Ipv4AddressE @6089
    _ZN4inet16LinkStateRoutingC1Ev @6090
    _ZN4inet16LinkStateRoutingC2Ev @6091
    _ZN4inet16LinkStateRoutingD0Ev @6092
    _ZN4inet16LinkStateRoutingD1Ev @6093
    _ZN4inet16LinkStateRoutingD2Ev @6094
    _ZN4inet16MoBanCoordinator10initializeEi @6095
    _ZN4inet16MoBanCoordinator11selectSpeedEv @6096
    _ZN4inet16MoBanCoordinator13isInsideWorldENS_5CoordE @6097
    _ZN4inet16MoBanCoordinator13selectPostureEv @6098
    _ZN4inet16MoBanCoordinator14publishToNodesEv @6099
    _ZN4inet16MoBanCoordinator14selectDurationEv @6100
    _ZN4inet16MoBanCoordinator15computeMaxSpeedEv @6101
    _ZN4inet16MoBanCoordinator17selectDestinationEv @6102
    _ZN4inet16MoBanCoordinator17setTargetPositionEv @6103
    _ZN4inet16MoBanCoordinator18setInitialPositionEv @6104
    _ZN4inet16MoBanCoordinator19collectLocalModulesEPN7omnetpp7cModuleE @6105
    _ZN4inet16MoBanCoordinator21readConfigurationFileEv @6106
    _ZN4inet16MoBanCoordinator23readMobilityPatternFileEv @6107
    _ZN4inet16MoBanCoordinator28readPostureSpecificationFileEv @6108
    _ZN4inet16MoBanCoordinator6finishEv @6109
    _ZN4inet16MoBanCoordinatorC1Ev @6110
    _ZN4inet16MoBanCoordinatorC2Ev @6111
    _ZN4inet16MoBanCoordinatorD0Ev @6112
    _ZN4inet16MoBanCoordinatorD1Ev @6113
    _ZN4inet16MoBanCoordinatorD2Ev @6114
    _ZN4inet16PacketDrillBytes10appendByteEh @6115
    _ZN4inet16PacketDrillBytesC1Eh @6116
    _ZN4inet16PacketDrillBytesC1Ev @6117
    _ZN4inet16PacketDrillBytesC2Eh @6118
    _ZN4inet16PacketDrillBytesC2Ev @6119
    _ZN4inet16PacketDrillEventC1ENS_7event_tE @6120
    _ZN4inet16PacketDrillEventC2ENS_7event_tE @6121
    _ZN4inet16PacketDrillEventD0Ev @6122
    _ZN4inet16PacketDrillEventD1Ev @6123
    _ZN4inet16PacketDrillEventD2Ev @6124
    _ZN4inet16PimNeighborTable10initializeEi @6125
    _ZN4inet16PimNeighborTable11addNeighborEPNS_11PimNeighborEd @6126
    _ZN4inet16PimNeighborTable11getNeighborEii @6127
    _ZN4inet16PimNeighborTable12findNeighborEiNS_11Ipv4AddressE @6128
    _ZN4inet16PimNeighborTable13handleMessageEPN7omnetpp8cMessageE @6129
    _ZN4inet16PimNeighborTable14deleteNeighborEPNS_11PimNeighborE @6130
    _ZN4inet16PimNeighborTable15getNumNeighborsEi @6131
    _ZN4inet16PimNeighborTable20processLivenessTimerEPN7omnetpp8cMessageE @6132
    _ZN4inet16PimNeighborTable20restartLivenessTimerEPNS_11PimNeighborEd @6133
    _ZN4inet16PimNeighborTableD0Ev @6134
    _ZN4inet16PimNeighborTableD1Ev @6135
    _ZN4inet16PimNeighborTableD2Ev @6136
    _ZN4inet16SctpAvailableReq12parsimUnpackEPN7omnetpp11cCommBufferE @6137
    _ZN4inet16SctpAvailableReq14setNewSocketIdEi @6138
    _ZN4inet16SctpAvailableReq4copyERKS0_ @6139
    _ZN4inet16SctpAvailableReqC1ERKS0_ @6140
    _ZN4inet16SctpAvailableReqC1Ev @6141
    _ZN4inet16SctpAvailableReqC2ERKS0_ @6142
    _ZN4inet16SctpAvailableReqC2Ev @6143
    _ZN4inet16SctpAvailableReqD0Ev @6144
    _ZN4inet16SctpAvailableReqD1Ev @6145
    _ZN4inet16SctpAvailableReqD2Ev @6146
    _ZN4inet16SctpAvailableReqaSERKS0_ @6147
    _ZN4inet16SignalBitrateInd12parsimUnpackEPN7omnetpp11cCommBufferE @6148
    _ZN4inet16SignalBitrateInd4copyERKS0_ @6149
    _ZN4inet16SignalBitrateIndC1ERKS0_ @6150
    _ZN4inet16SignalBitrateIndC1Ev @6151
    _ZN4inet16SignalBitrateIndC2ERKS0_ @6152
    _ZN4inet16SignalBitrateIndC2Ev @6153
    _ZN4inet16SignalBitrateIndD0Ev @6154
    _ZN4inet16SignalBitrateIndD1Ev @6155
    _ZN4inet16SignalBitrateIndD2Ev @6156
    _ZN4inet16SignalBitrateIndaSERKS0_ @6157
    _ZN4inet16SignalBitrateReq12parsimUnpackEPN7omnetpp11cCommBufferE @6158
    _ZN4inet16SignalBitrateReq4copyERKS0_ @6159
    _ZN4inet16SignalBitrateReqC1ERKS0_ @6160
    _ZN4inet16SignalBitrateReqC1Ev @6161
    _ZN4inet16SignalBitrateReqC2ERKS0_ @6162
    _ZN4inet16SignalBitrateReqC2Ev @6163
    _ZN4inet16SignalBitrateReqD0Ev @6164
    _ZN4inet16SignalBitrateReqD1Ev @6165
    _ZN4inet16SignalBitrateReqD2Ev @6166
    _ZN4inet16SignalBitrateReqaSERKS0_ @6167
    _ZN4inet16SimpleVoipPacket11setPacketIDEj @6168
    _ZN4inet16SimpleVoipPacket12parsimUnpackEPN7omnetpp11cCommBufferE @6169
    _ZN4inet16SimpleVoipPacket14setTalkspurtIDEj @6170
    _ZN4inet16SimpleVoipPacket16setVoiceDurationEN7omnetpp7SimTimeE @6171
    _ZN4inet16SimpleVoipPacket16setVoipTimestampEN7omnetpp7SimTimeE @6172
    _ZN4inet16SimpleVoipPacket19setTotalLengthFieldEt @6173
    _ZN4inet16SimpleVoipPacket22setTalkspurtNumPacketsEj @6174
    _ZN4inet16SimpleVoipPacket4copyERKS0_ @6175
    _ZN4inet16SimpleVoipPacketC1ERKS0_ @6176
    _ZN4inet16SimpleVoipPacketC1Ev @6177
    _ZN4inet16SimpleVoipPacketC2ERKS0_ @6178
    _ZN4inet16SimpleVoipPacketC2Ev @6179
    _ZN4inet16SimpleVoipPacketD0Ev @6180
    _ZN4inet16SimpleVoipPacketD1Ev @6181
    _ZN4inet16SimpleVoipPacketD2Ev @6182
    _ZN4inet16SimpleVoipPacketaSERKS0_ @6183
    _ZN4inet16SimpleVoipSender10initializeEi @6184
    _ZN4inet16SimpleVoipSender13handleMessageEPN7omnetpp8cMessageE @6185
    _ZN4inet16SimpleVoipSender14sendVoIPPacketEv @6186
    _ZN4inet16SimpleVoipSender27selectTalkOrSilenceIntervalEv @6187
    _ZN4inet16SimpleVoipSender9talkspurtEN7omnetpp7SimTimeE @6188
    _ZN4inet16SimpleVoipSenderC1Ev @6189
    _ZN4inet16SimpleVoipSenderC2Ev @6190
    _ZN4inet16SimpleVoipSenderD0Ev @6191
    _ZN4inet16SimpleVoipSenderD1Ev @6192
    _ZN4inet16SimpleVoipSenderD2Ev @6193
    _ZN4inet16TcpAcceptCommand12parsimUnpackEPN7omnetpp11cCommBufferE @6194
    _ZN4inet16TcpAcceptCommand4copyERKS0_ @6195
    _ZN4inet16TcpAcceptCommandC1ERKS0_ @6196
    _ZN4inet16TcpAcceptCommandC1Ev @6197
    _ZN4inet16TcpAcceptCommandC2ERKS0_ @6198
    _ZN4inet16TcpAcceptCommandC2Ev @6199
    _ZN4inet16TcpAcceptCommandD0Ev @6200
    _ZN4inet16TcpAcceptCommandD1Ev @6201
    _ZN4inet16TcpAcceptCommandD2Ev @6202
    _ZN4inet16TcpAcceptCommandaSERKS0_ @6203
    _ZN4inet16TcpAvailableInfo12parsimUnpackEPN7omnetpp11cCommBufferE @6204
    _ZN4inet16TcpAvailableInfo12setLocalAddrERKNS_9L3AddressE @6205
    _ZN4inet16TcpAvailableInfo12setLocalPortEi @6206
    _ZN4inet16TcpAvailableInfo13setRemoteAddrERKNS_9L3AddressE @6207
    _ZN4inet16TcpAvailableInfo13setRemotePortEi @6208
    _ZN4inet16TcpAvailableInfo14setNewSocketIdEi @6209
    _ZN4inet16TcpAvailableInfo4copyERKS0_ @6210
    _ZN4inet16TcpAvailableInfoC1ERKS0_ @6211
    _ZN4inet16TcpAvailableInfoC1Ev @6212
    _ZN4inet16TcpAvailableInfoC2ERKS0_ @6213
    _ZN4inet16TcpAvailableInfoC2Ev @6214
    _ZN4inet16TcpAvailableInfoD0Ev @6215
    _ZN4inet16TcpAvailableInfoD1Ev @6216
    _ZN4inet16TcpAvailableInfoD2Ev @6217
    _ZN4inet16TcpAvailableInfoaSERKS0_ @6218
    _ZN4inet16TcpEchoAppThread11dataArrivedEPNS_6PacketEb @6219
    _ZN4inet16TcpEchoAppThread11establishedEv @6220
    _ZN4inet16TcpEchoAppThread12timerExpiredEPN7omnetpp8cMessageE @6221
    _ZN4inet16TcpServerHostApp10initializeEi @6222
    _ZN4inet16TcpServerHostApp12removeThreadEPNS_19TcpServerThreadBaseE @6223
    _ZN4inet16TcpServerHostApp12socketClosedEPNS_9TcpSocketE @6224
    _ZN4inet16TcpServerHostApp12threadClosedEPNS_19TcpServerThreadBaseE @6225
    _ZN4inet16TcpServerHostApp15socketAvailableEPNS_9TcpSocketEPNS_16TcpAvailableInfoE @6226
    _ZN4inet16TcpServerHostApp19handleMessageWhenUpEPN7omnetpp8cMessageE @6227
    _ZN4inet16TcpServerHostApp19handleStopOperationEPNS_18LifecycleOperationE @6228
    _ZN4inet16TcpServerHostApp20handleCrashOperationEPNS_18LifecycleOperationE @6229
    _ZN4inet16TcpServerHostApp20handleStartOperationEPNS_18LifecycleOperationE @6230
    _ZN4inet16TcpServerHostApp6finishEv @6231
    _ZN4inet16TcpSetTosCommand12parsimUnpackEPN7omnetpp11cCommBufferE @6232
    _ZN4inet16TcpSetTosCommand4copyERKS0_ @6233
    _ZN4inet16TcpSetTosCommand6setTosEs @6234
    _ZN4inet16TcpSetTosCommandC1ERKS0_ @6235
    _ZN4inet16TcpSetTosCommandC1Ev @6236
    _ZN4inet16TcpSetTosCommandC2ERKS0_ @6237
    _ZN4inet16TcpSetTosCommandC2Ev @6238
    _ZN4inet16TcpSetTosCommandD0Ev @6239
    _ZN4inet16TcpSetTosCommandD1Ev @6240
    _ZN4inet16TcpSetTosCommandD2Ev @6241
    _ZN4inet16TcpSetTosCommandaSERKS0_ @6242
    _ZN4inet16TcpSinkAppThread10initializeEi @6243
    _ZN4inet16TcpSinkAppThread11dataArrivedEPNS_6PacketEb @6244
    _ZN4inet16TcpSinkAppThread11establishedEv @6245
    _ZN4inet16TokenBucketMeter10initializeEi @6246
    _ZN4inet16TokenBucketMeter10pushPacketEPNS_6PacketEPN7omnetpp5cGateE @6247
    _ZN4inet16TokenBucketMeter11meterPacketEPNS_6PacketE @6248
    _ZN4inet16UdpSetTosCommand12parsimUnpackEPN7omnetpp11cCommBufferE @6249
    _ZN4inet16UdpSetTosCommand4copyERKS0_ @6250
    _ZN4inet16UdpSetTosCommand6setTosEs @6251
    _ZN4inet16UdpSetTosCommandC1ERKS0_ @6252
    _ZN4inet16UdpSetTosCommandC1Ev @6253
    _ZN4inet16UdpSetTosCommandC2ERKS0_ @6254
    _ZN4inet16UdpSetTosCommandC2Ev @6255
    _ZN4inet16UdpSetTosCommandD0Ev @6256
    _ZN4inet16UdpSetTosCommandD1Ev @6257
    _ZN4inet16UdpSetTosCommandD2Ev @6258
    _ZN4inet16UdpSetTosCommandaSERKS0_ @6259
    _ZN4inet16XMacControlFrame12parsimUnpackEPN7omnetpp11cCommBufferE @6260
    _ZN4inet16XMacControlFrame4copyERKS0_ @6261
    _ZN4inet16XMacControlFrameC1ERKS0_ @6262
    _ZN4inet16XMacControlFrameC1Ev @6263
    _ZN4inet16XMacControlFrameC2ERKS0_ @6264
    _ZN4inet16XMacControlFrameC2Ev @6265
    _ZN4inet16XMacControlFrameD0Ev @6266
    _ZN4inet16XMacControlFrameD1Ev @6267
    _ZN4inet16XMacControlFrameD2Ev @6268
    _ZN4inet16XMacControlFrameaSERKS0_ @6269
    _ZN4inet16linkBrokenSignalE @6270 DATA
    _ZN4inet16packetSentSignalE @6271 DATA
    _ZN4inet16registerProtocolERKNS_8ProtocolEPN7omnetpp5cGateENS_16ServicePrimitiveE @6272
    _ZN4inet16registerProtocolERKNS_8ProtocolEPN7omnetpp5cGateES5_ @6273
    _ZN4inet16registerProtocolERKNS_8ProtocolEPN7omnetpp5cGateES5_S5_S5_ @6274
    _ZN4inet16routeAddedSignalE @6275 DATA
    _ZN4inet16tedChangedSignalE @6276 DATA
    _ZN4inet17AddressListOption12parsimUnpackEPN7omnetpp11cCommBufferE @6277
    _ZN4inet17AddressListOption21setSecondaryAddressesEyRKNS_21EncodedUnicastAddressE @6278
    _ZN4inet17AddressListOption23eraseSecondaryAddressesEy @6279
    _ZN4inet17AddressListOption24insertSecondaryAddressesERKNS_21EncodedUnicastAddressE @6280
    _ZN4inet17AddressListOption24insertSecondaryAddressesEyRKNS_21EncodedUnicastAddressE @6281
    _ZN4inet17AddressListOption30setSecondaryAddressesArraySizeEy @6282
    _ZN4inet17AddressListOption4copyERKS0_ @6283
    _ZN4inet17AddressListOptionC1ERKS0_ @6284
    _ZN4inet17AddressListOptionC1Ev @6285
    _ZN4inet17AddressListOptionC2ERKS0_ @6286
    _ZN4inet17AddressListOptionC2Ev @6287
    _ZN4inet17AddressListOptionD0Ev @6288
    _ZN4inet17AddressListOptionD1Ev @6289
    _ZN4inet17AddressListOptionD2Ev @6290
    _ZN4inet17AddressListOptionaSERKS0_ @6291
    _ZN4inet17ApplicationPacket12parsimUnpackEPN7omnetpp11cCommBufferE @6292
    _ZN4inet17ApplicationPacket17setSequenceNumberEj @6293
    _ZN4inet17ApplicationPacket4copyERKS0_ @6294
    _ZN4inet17ApplicationPacketC1ERKS0_ @6295
    _ZN4inet17ApplicationPacketC1Ev @6296
    _ZN4inet17ApplicationPacketC2ERKS0_ @6297
    _ZN4inet17ApplicationPacketC2Ev @6298
    _ZN4inet17ApplicationPacketD0Ev @6299
    _ZN4inet17ApplicationPacketD1Ev @6300
    _ZN4inet17ApplicationPacketD2Ev @6301
    _ZN4inet17ApplicationPacketaSERKS0_ @6302
    _ZN4inet17BindingUpdateList10initializeEv @6303
    _ZN4inet17BindingUpdateList11generateKeyEiiRKNS_11Ipv6AddressE @6304
    _ZN4inet17BindingUpdateList13handleMessageEPN7omnetpp8cMessageE @6305
    _ZN4inet17BindingUpdateList13removeBindingERKNS_11Ipv6AddressE @6306
    _ZN4inet17BindingUpdateList14addOrUpdateBULERKNS_11Ipv6AddressES3_N7omnetpp7SimTimeEib @6307
    _ZN4inet17BindingUpdateList14addOrUpdateBULERKNS_11Ipv6AddressES3_S3_jjN7omnetpp7SimTimeE @6308
    _ZN4inet17BindingUpdateList14createBULEntryERKNS_11Ipv6AddressE @6309
    _ZN4inet17BindingUpdateList14isValidBindingERKNS_11Ipv6AddressE @6310
    _ZN4inet17BindingUpdateList14resetHomeTokenERKNS_11Ipv6AddressES3_ @6311
    _ZN4inet17BindingUpdateList14suspendBindingERKNS_11Ipv6AddressE @6312
    _ZN4inet17BindingUpdateList16recentlySentCOTIERKNS_11Ipv6AddressEPNS_14InterfaceEntryE @6313
    _ZN4inet17BindingUpdateList16recentlySentHOTIERKNS_11Ipv6AddressEPNS_14InterfaceEntryE @6314
    _ZN4inet17BindingUpdateList16resetCareOfTokenERKNS_11Ipv6AddressES3_ @6315
    _ZN4inet17BindingUpdateList16setMobilityStateERKNS_11Ipv6AddressENS0_13MobilityStateE @6316
    _ZN4inet17BindingUpdateList17generateBAuthDataERKNS_11Ipv6AddressES3_ @6317
    _ZN4inet17BindingUpdateList17generateHomeTokenERKNS_11Ipv6AddressEi @6318
    _ZN4inet17BindingUpdateList17getSequenceNumberERKNS_11Ipv6AddressE @6319
    _ZN4inet17BindingUpdateList17sentBindingUpdateERKNS_11Ipv6AddressE @6320
    _ZN4inet17BindingUpdateList18initializeBUValuesERNS0_22BindingUpdateListEntryE @6321
    _ZN4inet17BindingUpdateList19generateCareOfTokenERKNS_11Ipv6AddressEi @6322
    _ZN4inet17BindingUpdateList20isHomeTokenAvailableERKNS_11Ipv6AddressEPNS_14InterfaceEntryE @6323
    _ZN4inet17BindingUpdateList21isInBindingUpdateListERKNS_11Ipv6AddressES3_ @6324
    _ZN4inet17BindingUpdateList22isBindingAboutToExpireERKNS_11Ipv6AddressE @6325
    _ZN4inet17BindingUpdateList22isCareOfTokenAvailableERKNS_11Ipv6AddressEPNS_14InterfaceEntryE @6326
    _ZN4inet17BindingUpdateList22resetBindingCacheEntryERNS0_22BindingUpdateListEntryE @6327
    _ZN4inet17BindingUpdateList5fetchERKNS_11Ipv6AddressE @6328
    _ZN4inet17BindingUpdateList6getCoAERKNS_11Ipv6AddressE @6329
    _ZN4inet17BindingUpdateList6lookupERKNS_11Ipv6AddressE @6330
    _ZN4inet17BindingUpdateListC1Ev @6331
    _ZN4inet17BindingUpdateListC2Ev @6332
    _ZN4inet17BindingUpdateListD0Ev @6333
    _ZN4inet17BindingUpdateListD1Ev @6334
    _ZN4inet17BindingUpdateListD2Ev @6335
    _ZN4inet17EthernetJamSignal12parsimUnpackEPN7omnetpp11cCommBufferE @6336
    _ZN4inet17EthernetJamSignal18setAbortedPkTreeIDEl @6337
    _ZN4inet17EthernetJamSignal4copyERKS0_ @6338
    _ZN4inet17EthernetJamSignalC1EPKcs @6339
    _ZN4inet17EthernetJamSignalC1ERKS0_ @6340
    _ZN4inet17EthernetJamSignalC2EPKcs @6341
    _ZN4inet17EthernetJamSignalC2ERKS0_ @6342
    _ZN4inet17EthernetJamSignalD0Ev @6343
    _ZN4inet17EthernetJamSignalD1Ev @6344
    _ZN4inet17EthernetJamSignalD2Ev @6345
    _ZN4inet17EthernetJamSignalaSERKS0_ @6346
    _ZN4inet17EthernetMacHeader12parsimUnpackEPN7omnetpp11cCommBufferE @6347
    _ZN4inet17EthernetMacHeader15setTypeOrLengthEi @6348
    _ZN4inet17EthernetMacHeader4copyERKS0_ @6349
    _ZN4inet17EthernetMacHeader6setSrcERKNS_10MacAddressE @6350
    _ZN4inet17EthernetMacHeader7setCTagEPNS_15Ieee8021qHeaderE @6351
    _ZN4inet17EthernetMacHeader7setDestERKNS_10MacAddressE @6352
    _ZN4inet17EthernetMacHeader7setSTagEPNS_15Ieee8021qHeaderE @6353
    _ZN4inet17EthernetMacHeader8dropCTagEv @6354
    _ZN4inet17EthernetMacHeader8dropSTagEv @6355
    _ZN4inet17EthernetMacHeaderC1ERKS0_ @6356
    _ZN4inet17EthernetMacHeaderC1Ev @6357
    _ZN4inet17EthernetMacHeaderC2ERKS0_ @6358
    _ZN4inet17EthernetMacHeaderC2Ev @6359
    _ZN4inet17EthernetMacHeaderD0Ev @6360
    _ZN4inet17EthernetMacHeaderD1Ev @6361
    _ZN4inet17EthernetMacHeaderD2Ev @6362
    _ZN4inet17EthernetMacHeaderaSERKS0_ @6363
    _ZN4inet17EthernetPhyHeader12parsimUnpackEPN7omnetpp11cCommBufferE @6364
    _ZN4inet17EthernetPhyHeader4copyERKS0_ @6365
    _ZN4inet17EthernetPhyHeaderC1ERKS0_ @6366
    _ZN4inet17EthernetPhyHeaderC1Ev @6367
    _ZN4inet17EthernetPhyHeaderC2ERKS0_ @6368
    _ZN4inet17EthernetPhyHeaderC2Ev @6369
    _ZN4inet17EthernetPhyHeaderD0Ev @6370
    _ZN4inet17EthernetPhyHeaderD1Ev @6371
    _ZN4inet17EthernetPhyHeaderD2Ev @6372
    _ZN4inet17EthernetPhyHeaderaSERKS0_ @6373
    _ZN4inet17HeatMapPlotFigure10bakeValuesEv @6374
    _ZN4inet17HeatMapPlotFigure11addChildrenEv @6375
    _ZN4inet17HeatMapPlotFigure11clearValuesEv @6376
    _ZN4inet17HeatMapPlotFigure11setMaxValueEd @6377
    _ZN4inet17HeatMapPlotFigure11setMinValueEd @6378
    _ZN4inet17HeatMapPlotFigure11setPlotSizeERKN7omnetpp7cFigure5PointES5_ @6379
    _ZN4inet17HeatMapPlotFigure12getHeatColorEiidi @6380
    _ZN4inet17HeatMapPlotFigure12redrawXTicksEv @6381
    _ZN4inet17HeatMapPlotFigure12redrawYTicksEv @6382
    _ZN4inet17HeatMapPlotFigure12setLabelFontERKN7omnetpp7cFigure4FontE @6383
    _ZN4inet17HeatMapPlotFigure12setPixelSafeEiidi @6384
    _ZN4inet17HeatMapPlotFigure12setXTickSizeEd @6385
    _ZN4inet17HeatMapPlotFigure12setYTickSizeEd @6386
    _ZN4inet17HeatMapPlotFigure13setLabelColorERKN7omnetpp7cFigure5ColorE @6387
    _ZN4inet17HeatMapPlotFigure13setXTickCountEi @6388
    _ZN4inet17HeatMapPlotFigure13setYTickCountEi @6389
    _ZN4inet17HeatMapPlotFigure14refreshDisplayEv @6390
    _ZN4inet17HeatMapPlotFigure14setLabelOffsetEi @6391
    _ZN4inet17HeatMapPlotFigure14setLinearValueEddddddii @6392
    _ZN4inet17HeatMapPlotFigure16setBilinearValueEddddddddi @6393
    _ZN4inet17HeatMapPlotFigure16setConstantValueEdddddi @6394
    _ZN4inet17HeatMapPlotFigure5parseEPN7omnetpp9cPropertyE @6395
    _ZN4inet17HeatMapPlotFigure6layoutEv @6396
    _ZN4inet17HeatMapPlotFigure7setMaxXEd @6397
    _ZN4inet17HeatMapPlotFigure7setMaxYEd @6398
    _ZN4inet17HeatMapPlotFigure7setMinXEd @6399
    _ZN4inet17HeatMapPlotFigure7setMinYEd @6400
    _ZN4inet17HeatMapPlotFigure8setValueEdddi @6401
    _ZN4inet17HeatMapPlotFigure8setValueEiidi @6402
    _ZN4inet17HeatMapPlotFigure9setBoundsERKN7omnetpp7cFigure9RectangleE @6403
    _ZN4inet17HeatMapPlotFigureC1EPKc @6404
    _ZN4inet17HeatMapPlotFigureC2EPKc @6405
    _ZN4inet17HomeAddressOption12parsimUnpackEPN7omnetpp11cCommBufferE @6406
    _ZN4inet17HomeAddressOption14setHomeAddressERKNS_11Ipv6AddressE @6407
    _ZN4inet17HomeAddressOption4copyERKS0_ @6408
    _ZN4inet17HomeAddressOptionC1ERKS0_ @6409
    _ZN4inet17HomeAddressOptionC1Ev @6410
    _ZN4inet17HomeAddressOptionC2ERKS0_ @6411
    _ZN4inet17HomeAddressOptionC2Ev @6412
    _ZN4inet17HomeAddressOptionD0Ev @6413
    _ZN4inet17HomeAddressOptionD1Ev @6414
    _ZN4inet17HomeAddressOptionD2Ev @6415
    _ZN4inet17HomeAddressOptionaSERKS0_ @6416
    _ZN4inet17Ieee8022LlcHeader10setControlEi @6417
    _ZN4inet17Ieee8022LlcHeader12parsimUnpackEPN7omnetpp11cCommBufferE @6418
    _ZN4inet17Ieee8022LlcHeader4copyERKS0_ @6419
    _ZN4inet17Ieee8022LlcHeader7setDsapEs @6420
    _ZN4inet17Ieee8022LlcHeader7setSsapEs @6421
    _ZN4inet17Ieee8022LlcHeaderC1ERKS0_ @6422
    _ZN4inet17Ieee8022LlcHeaderC1Ev @6423
    _ZN4inet17Ieee8022LlcHeaderC2ERKS0_ @6424
    _ZN4inet17Ieee8022LlcHeaderC2Ev @6425
    _ZN4inet17Ieee8022LlcHeaderD0Ev @6426
    _ZN4inet17Ieee8022LlcHeaderD1Ev @6427
    _ZN4inet17Ieee8022LlcHeaderD2Ev @6428
    _ZN4inet17Ieee8022LlcHeaderaSERKS0_ @6429
    _ZN4inet17Ieee8022LlcSocket11setCallbackEPNS0_9ICallbackE @6430
    _ZN4inet17Ieee8022LlcSocket14processMessageEPN7omnetpp8cMessageE @6431
    _ZN4inet17Ieee8022LlcSocket4openEii @6432
    _ZN4inet17Ieee8022LlcSocket4sendEPNS_6PacketE @6433
    _ZN4inet17Ieee8022LlcSocket5closeEv @6434
    _ZN4inet17Ieee8022LlcSocket7destroyEv @6435
    _ZN4inet17Ieee8022LlcSocket9sendToLlcEPN7omnetpp8cMessageE @6436
    _ZN4inet17Ieee8022LlcSocketC1Ev @6437
    _ZN4inet17Ieee8022LlcSocketC2Ev @6438
    _ZN4inet17Ieee802SapTagBase12parsimUnpackEPN7omnetpp11cCommBufferE @6439
    _ZN4inet17Ieee802SapTagBase4copyERKS0_ @6440
    _ZN4inet17Ieee802SapTagBase7setDsapEi @6441
    _ZN4inet17Ieee802SapTagBase7setSsapEi @6442
    _ZN4inet17Ieee802SapTagBaseC1ERKS0_ @6443
    _ZN4inet17Ieee802SapTagBaseC1Ev @6444
    _ZN4inet17Ieee802SapTagBaseC2ERKS0_ @6445
    _ZN4inet17Ieee802SapTagBaseC2Ev @6446
    _ZN4inet17Ieee802SapTagBaseD0Ev @6447
    _ZN4inet17Ieee802SapTagBaseD1Ev @6448
    _ZN4inet17Ieee802SapTagBaseD2Ev @6449
    _ZN4inet17Ieee802SapTagBaseaSERKS0_ @6450
    _ZN4inet17Ipv4InterfaceData17HostMulticastData12detailedInfoB5cxx11Ev @6451
    _ZN4inet17Ipv4InterfaceData17HostMulticastData3strB5cxx11Ev @6452
    _ZN4inet17Ipv4InterfaceData17HostMulticastDataD0Ev @6453
    _ZN4inet17Ipv4InterfaceData17HostMulticastDataD1Ev @6454
    _ZN4inet17Ipv4InterfaceData17HostMulticastDataD2Ev @6455
    _ZN4inet17Ipv4InterfaceData17findHostGroupDataENS_11Ipv4AddressE @6456
    _ZN4inet17Ipv4InterfaceData18joinMulticastGroupERKNS_11Ipv4AddressE @6457
    _ZN4inet17Ipv4InterfaceData19RouterMulticastData12detailedInfoB5cxx11Ev @6458
    _ZN4inet17Ipv4InterfaceData19RouterMulticastData3strB5cxx11Ev @6459
    _ZN4inet17Ipv4InterfaceData19RouterMulticastDataD0Ev @6460
    _ZN4inet17Ipv4InterfaceData19RouterMulticastDataD1Ev @6461
    _ZN4inet17Ipv4InterfaceData19RouterMulticastDataD2Ev @6462
    _ZN4inet17Ipv4InterfaceData19leaveMulticastGroupERKNS_11Ipv4AddressE @6463
    _ZN4inet17Ipv4InterfaceData19removeHostGroupDataENS_11Ipv4AddressE @6464
    _ZN4inet17Ipv4InterfaceData20addMulticastListenerENS_11Ipv4AddressES1_ @6465
    _ZN4inet17Ipv4InterfaceData20addMulticastListenerERKNS_11Ipv4AddressE @6466
    _ZN4inet17Ipv4InterfaceData21removeRouterGroupDataENS_11Ipv4AddressE @6467
    _ZN4inet17Ipv4InterfaceData21setMulticastListenersENS_11Ipv4AddressENS_21McastSourceFilterModeERKSt6vectorIS1_SaIS1_EE @6468
    _ZN4inet17Ipv4InterfaceData22HostMulticastGroupData16updateSourceListEv @6469
    _ZN4inet17Ipv4InterfaceData23removeMulticastListenerENS_11Ipv4AddressES1_ @6470
    _ZN4inet17Ipv4InterfaceData23removeMulticastListenerERKNS_11Ipv4AddressE @6471
    _ZN4inet17Ipv4InterfaceData30changeMulticastGroupMembershipENS_11Ipv4AddressENS_21McastSourceFilterModeERKSt6vectorIS1_SaIS1_EES2_S7_ @6472
    _ZN4inet17Ipv4InterfaceDataC1Ev @6473
    _ZN4inet17Ipv4InterfaceDataC2Ev @6474
    _ZN4inet17Ipv4InterfaceDataD0Ev @6475
    _ZN4inet17Ipv4InterfaceDataD1Ev @6476
    _ZN4inet17Ipv4InterfaceDataD2Ev @6477
    _ZN4inet17Ipv4OptionUnknown10eraseBytesEy @6478
    _ZN4inet17Ipv4OptionUnknown11insertBytesEh @6479
    _ZN4inet17Ipv4OptionUnknown11insertBytesEyh @6480
    _ZN4inet17Ipv4OptionUnknown12parsimUnpackEPN7omnetpp11cCommBufferE @6481
    _ZN4inet17Ipv4OptionUnknown17setBytesArraySizeEy @6482
    _ZN4inet17Ipv4OptionUnknown4copyERKS0_ @6483
    _ZN4inet17Ipv4OptionUnknown8setBytesEyh @6484
    _ZN4inet17Ipv4OptionUnknownC1ERKS0_ @6485
    _ZN4inet17Ipv4OptionUnknownC1Ev @6486
    _ZN4inet17Ipv4OptionUnknownC2ERKS0_ @6487
    _ZN4inet17Ipv4OptionUnknownC2Ev @6488
    _ZN4inet17Ipv4OptionUnknownD0Ev @6489
    _ZN4inet17Ipv4OptionUnknownD1Ev @6490
    _ZN4inet17Ipv4OptionUnknownD2Ev @6491
    _ZN4inet17Ipv4OptionUnknownaSERKS0_ @6492
    _ZN4inet17Ipv6InterfaceData12addAdvPrefixERKNS0_9AdvPrefixE @6493
    _ZN4inet17Ipv6InterfaceData12setAdvPrefixEiRKNS0_9AdvPrefixE @6494
    _ZN4inet17Ipv6InterfaceData13assignAddressERKNS_11Ipv6AddressEbN7omnetpp7SimTimeES5_b @6495
    _ZN4inet17Ipv6InterfaceData13removeAddressENS0_11AddressTypeE @6496
    _ZN4inet17Ipv6InterfaceData13removeAddressERKNS_11Ipv6AddressE @6497
    _ZN4inet17Ipv6InterfaceData15deduceAdvPrefixEv @6498
    _ZN4inet17Ipv6InterfaceData15removeAdvPrefixEi @6499
    _ZN4inet17Ipv6InterfaceData17permanentlyAssignERKNS_11Ipv6AddressE @6500
    _ZN4inet17Ipv6InterfaceData17tentativelyAssignEi @6501
    _ZN4inet17Ipv6InterfaceData18joinMulticastGroupERKNS_11Ipv6AddressE @6502
    _ZN4inet17Ipv6InterfaceData19leaveMulticastGroupERKNS_11Ipv6AddressE @6503
    _ZN4inet17Ipv6InterfaceData20addMulticastListenerERKNS_11Ipv6AddressE @6504
    _ZN4inet17Ipv6InterfaceData21generateReachableTimeEddj @6505
    _ZN4inet17Ipv6InterfaceData21generateReachableTimeEv @6506
    _ZN4inet17Ipv6InterfaceData21updateHomeNetworkInfoERKNS_11Ipv6AddressES3_S3_i @6507
    _ZN4inet17Ipv6InterfaceData22choosePreferredAddressEv @6508
    _ZN4inet17Ipv6InterfaceData23removeMulticastListenerERKNS_11Ipv6AddressE @6509
    _ZN4inet17Ipv6InterfaceData32autoConfRouterGlobalScopeAddressERNS0_9AdvPrefixE @6510
    _ZN4inet17Ipv6InterfaceData32autoConfRouterGlobalScopeAddressEi @6511
    _ZN4inet17Ipv6InterfaceData32updateMatchingAddressExpiryTimesERKNS_11Ipv6AddressEiN7omnetpp7SimTimeES5_ @6512
    _ZN4inet17Ipv6InterfaceData8addrLessERKNS0_11AddressDataES3_ @6513
    _ZN4inet17Ipv6InterfaceDataC1Ev @6514
    _ZN4inet17Ipv6InterfaceDataC2Ev @6515
    _ZN4inet17Ipv6InterfaceDataD0Ev @6516
    _ZN4inet17Ipv6InterfaceDataD1Ev @6517
    _ZN4inet17Ipv6InterfaceDataD2Ev @6518
    _ZN4inet17Ipv6NdControlInfo10setNextHopERKNS_11Ipv6AddressE @6519
    _ZN4inet17Ipv6NdControlInfo12parsimUnpackEPN7omnetpp11cCommBufferE @6520
    _ZN4inet17Ipv6NdControlInfo14setInterfaceIdEi @6521
    _ZN4inet17Ipv6NdControlInfo4copyERKS0_ @6522
    _ZN4inet17Ipv6NdControlInfo9setFromHLEb @6523
    _ZN4inet17Ipv6NdControlInfoC1ERKS0_ @6524
    _ZN4inet17Ipv6NdControlInfoC1Ev @6525
    _ZN4inet17Ipv6NdControlInfoC2ERKS0_ @6526
    _ZN4inet17Ipv6NdControlInfoC2Ev @6527
    _ZN4inet17Ipv6NdControlInfoD0Ev @6528
    _ZN4inet17Ipv6NdControlInfoD1Ev @6529
    _ZN4inet17Ipv6NdControlInfoD2Ev @6530
    _ZN4inet17Ipv6NdControlInfoaSERKS0_ @6531
    _ZN4inet17Ipv6RoutingHeader10setAddressEyRKNS_11Ipv6AddressE @6532
    _ZN4inet17Ipv6RoutingHeader12eraseAddressEy @6533
    _ZN4inet17Ipv6RoutingHeader12parsimUnpackEPN7omnetpp11cCommBufferE @6534
    _ZN4inet17Ipv6RoutingHeader13insertAddressERKNS_11Ipv6AddressE @6535
    _ZN4inet17Ipv6RoutingHeader13insertAddressEyRKNS_11Ipv6AddressE @6536
    _ZN4inet17Ipv6RoutingHeader14setRoutingTypeEh @6537
    _ZN4inet17Ipv6RoutingHeader15setSegmentsLeftEh @6538
    _ZN4inet17Ipv6RoutingHeader19setAddressArraySizeEy @6539
    _ZN4inet17Ipv6RoutingHeader4copyERKS0_ @6540
    _ZN4inet17Ipv6RoutingHeaderC1ERKS0_ @6541
    _ZN4inet17Ipv6RoutingHeaderC1Ev @6542
    _ZN4inet17Ipv6RoutingHeaderC2ERKS0_ @6543
    _ZN4inet17Ipv6RoutingHeaderC2Ev @6544
    _ZN4inet17Ipv6RoutingHeaderD0Ev @6545
    _ZN4inet17Ipv6RoutingHeaderD1Ev @6546
    _ZN4inet17Ipv6RoutingHeaderD2Ev @6547
    _ZN4inet17Ipv6RoutingHeaderaSERKS0_ @6548
    _ZN4inet17L3AddressResolver10routerIdOfEPN7omnetpp7cModuleE @6549
    _ZN4inet17L3AddressResolver10tryResolveEPKcRNS_9L3AddressEi @6550
    _ZN4inet17L3AddressResolver14getAddressFromEPNS_14InterfaceEntryEi @6551
    _ZN4inet17L3AddressResolver14getAddressFromEPNS_15IInterfaceTableEi @6552
    _ZN4inet17L3AddressResolver16interfaceTableOfEPN7omnetpp7cModuleE @6553
    _ZN4inet17L3AddressResolver17getMacAddressFromERNS_9L3AddressEPNS_15IInterfaceTableEb @6554
    _ZN4inet17L3AddressResolver18getIpv4AddressFromERNS_9L3AddressEPNS_15IInterfaceTableEb @6555
    _ZN4inet17L3AddressResolver18getIpv6AddressFromERNS_9L3AddressEPNS_15IInterfaceTableEb @6556
    _ZN4inet17L3AddressResolver19collectNetworkNodesEv @6557
    _ZN4inet17L3AddressResolver19findHostWithAddressERKNS_9L3AddressE @6558
    _ZN4inet17L3AddressResolver20findInterfaceTableOfEPN7omnetpp7cModuleE @6559
    _ZN4inet17L3AddressResolver21doCollectNetworkNodesEPN7omnetpp7cModuleERSt6vectorIS3_SaIS3_EE @6560
    _ZN4inet17L3AddressResolver21getIpv4RoutingTableOfEPN7omnetpp7cModuleE @6561
    _ZN4inet17L3AddressResolver21getIpv6RoutingTableOfEPN7omnetpp7cModuleE @6562
    _ZN4inet17L3AddressResolver22findHostWithMacAddressERKNS_10MacAddressE @6563
    _ZN4inet17L3AddressResolver22findIpv4RoutingTableOfEPN7omnetpp7cModuleE @6564
    _ZN4inet17L3AddressResolver22findIpv6RoutingTableOfEPN7omnetpp7cModuleE @6565
    _ZN4inet17L3AddressResolver22getInterfaceMacAddressERNS_9L3AddressEPNS_14InterfaceEntryEb @6566
    _ZN4inet17L3AddressResolver22getModuleIdAddressFromERNS_9L3AddressEPNS_15IInterfaceTableEb @6567
    _ZN4inet17L3AddressResolver23getInterfaceIpv4AddressERNS_9L3AddressEPNS_14InterfaceEntryEb @6568
    _ZN4inet17L3AddressResolver23getInterfaceIpv6AddressERNS_9L3AddressEPNS_14InterfaceEntryEb @6569
    _ZN4inet17L3AddressResolver24getModulePathAddressFromERNS_9L3AddressEPNS_15IInterfaceTableEb @6570
    _ZN4inet17L3AddressResolver25findNextHopRoutingTableOfEPN7omnetpp7cModuleE @6571
    _ZN4inet17L3AddressResolver27findInterfaceWithMacAddressERKNS_10MacAddressE @6572
    _ZN4inet17L3AddressResolver27getInterfaceModuleIdAddressERNS_9L3AddressEPNS_14InterfaceEntryEb @6573
    _ZN4inet17L3AddressResolver29getInterfaceModulePathAddressERNS_9L3AddressEPNS_14InterfaceEntryEb @6574
    _ZN4inet17L3AddressResolver7resolveEPKci @6575
    _ZN4inet17L3AddressResolver7resolveESt6vectorINSt7__cxx1112basic_stringIcSt11char_traitsIcESaIcEEESaIS7_EEi @6576
    _ZN4inet17L3AddressResolver8tryParseERNS_9L3AddressEPKci @6577
    _ZN4inet17L3AddressResolver9addressOfEPN7omnetpp7cModuleEPKci @6578
    _ZN4inet17L3AddressResolver9addressOfEPN7omnetpp7cModuleES3_i @6579
    _ZN4inet17L3AddressResolver9addressOfEPN7omnetpp7cModuleEi @6580
    _ZN4inet17LabeledIconFigure10setOpacityEd @6581
    _ZN4inet17LabeledIconFigure10setTooltipEPKc @6582
    _ZN4inet17LabeledIconFigure11setPositionEN7omnetpp7cFigure5PointE @6583
    _ZN4inet17LabeledIconFigure19setAssociatedObjectEPN7omnetpp7cObjectE @6584
    _ZN4inet17LabeledIconFigureC1EPKc @6585
    _ZN4inet17LabeledIconFigureC2EPKc @6586
    _ZN4inet17LabeledLineFigure19updateLabelPositionEv @6587
    _ZN4inet17LabeledLineFigure6setEndEN7omnetpp7cFigure5PointE @6588
    _ZN4inet17LabeledLineFigure8setStartEN7omnetpp7cFigure5PointE @6589
    _ZN4inet17LabeledLineFigureC1EPKc @6590
    _ZN4inet17LabeledLineFigureC2EPKc @6591
    _ZN4inet17LinearGaugeFigure11addChildrenEv @6592
    _ZN4inet17LinearGaugeFigure11redrawTicksEv @6593
    _ZN4inet17LinearGaugeFigure11setMaxValueEd @6594
    _ZN4inet17LinearGaugeFigure11setMinValueEd @6595
    _ZN4inet17LinearGaugeFigure11setTickSizeEd @6596
    _ZN4inet17LinearGaugeFigure12setLabelFontERKN7omnetpp7cFigure4FontE @6597
    _ZN4inet17LinearGaugeFigure13setLabelColorERKN7omnetpp7cFigure5ColorE @6598
    _ZN4inet17LinearGaugeFigure14setLabelOffsetEi @6599
    _ZN4inet17LinearGaugeFigure14setNeedleColorERKN7omnetpp7cFigure5ColorE @6600
    _ZN4inet17LinearGaugeFigure15setCornerRadiusEd @6601
    _ZN4inet17LinearGaugeFigure15setTickGeometryEPN7omnetpp11cLineFigureEi @6602
    _ZN4inet17LinearGaugeFigure17setNeedleGeometryEv @6603
    _ZN4inet17LinearGaugeFigure17setNumberGeometryEPN7omnetpp11cTextFigureEi @6604
    _ZN4inet17LinearGaugeFigure18setBackgroundColorERKN7omnetpp7cFigure5ColorE @6605
    _ZN4inet17LinearGaugeFigure5parseEPN7omnetpp9cPropertyE @6606
    _ZN4inet17LinearGaugeFigure6layoutEv @6607
    _ZN4inet17LinearGaugeFigure7refreshEv @6608
    _ZN4inet17LinearGaugeFigure8setLabelEPKc @6609
    _ZN4inet17LinearGaugeFigure8setValueEiN7omnetpp7SimTimeEd @6610
    _ZN4inet17LinearGaugeFigure9setBoundsERKN7omnetpp7cFigure9RectangleE @6611
    _ZN4inet17LinearGaugeFigureC1EPKc @6612
    _ZN4inet17LinearGaugeFigureC2EPKc @6613
    _ZN4inet17LinearGaugeFigureD0Ev @6614
    _ZN4inet17LinearGaugeFigureD1Ev @6615
    _ZN4inet17LinearGaugeFigureD2Ev @6616
    _ZN4inet17MacAddressTagBase12parsimUnpackEPN7omnetpp11cCommBufferE @6617
    _ZN4inet17MacAddressTagBase13setSrcAddressERKNS_10MacAddressE @6618
    _ZN4inet17MacAddressTagBase14setDestAddressERKNS_10MacAddressE @6619
    _ZN4inet17MacAddressTagBase4copyERKS0_ @6620
    _ZN4inet17MacAddressTagBaseC1ERKS0_ @6621
    _ZN4inet17MacAddressTagBaseC1Ev @6622
    _ZN4inet17MacAddressTagBaseC2ERKS0_ @6623
    _ZN4inet17MacAddressTagBaseC2Ev @6624
    _ZN4inet17MacAddressTagBaseD0Ev @6625
    _ZN4inet17MacAddressTagBaseD1Ev @6626
    _ZN4inet17MacAddressTagBaseD2Ev @6627
    _ZN4inet17MacAddressTagBaseaSERKS0_ @6628
    _ZN4inet17MessageDispatcher10initializeEv @6629
    _ZN4inet17MessageDispatcher12handlePacketEPNS_6PacketEPN7omnetpp5cGateE @6630
    _ZN4inet17MessageDispatcher13handleMessageEPNS_7MessageEPN7omnetpp5cGateE @6631
    _ZN4inet17MessageDispatcher21handleRegisterServiceERKNS_8ProtocolEPN7omnetpp5cGateENS_16ServicePrimitiveE @6632
    _ZN4inet17MessageDispatcher22handleRegisterProtocolERKNS_8ProtocolEPN7omnetpp5cGateENS_16ServicePrimitiveE @6633
    _ZN4inet17MessageDispatcher23handleRegisterInterfaceERKNS_14InterfaceEntryEPN7omnetpp5cGateES6_ @6634
    _ZN4inet17MessageDispatcher7arrivedEPN7omnetpp8cMessageEPNS1_5cGateENS1_7SimTimeE @6635
    _ZN4inet17ModulePathAddress8tryParseEPKc @6636
    _ZN4inet17NetfilterInfoHook10initializeEi @6637
    _ZN4inet17NetfilterInfoHook13handleMessageEPN7omnetpp8cMessageE @6638
    _ZN4inet17NetfilterInfoHook19datagramForwardHookEPNS_6PacketE @6639
    _ZN4inet17NetfilterInfoHook19datagramLocalInHookEPNS_6PacketE @6640
    _ZN4inet17NetfilterInfoHook20datagramLocalOutHookEPNS_6PacketE @6641
    _ZN4inet17NetfilterInfoHook22datagramPreRoutingHookEPNS_6PacketE @6642
    _ZN4inet17NetfilterInfoHook23datagramPostRoutingHookEPNS_6PacketE @6643
    _ZN4inet17NetfilterInfoHook6finishEv @6644
    _ZN4inet17NextHopAddressReq12parsimUnpackEPN7omnetpp11cCommBufferE @6645
    _ZN4inet17NextHopAddressReq17setNextHopAddressERKNS_9L3AddressE @6646
    _ZN4inet17NextHopAddressReq4copyERKS0_ @6647
    _ZN4inet17NextHopAddressReqC1ERKS0_ @6648
    _ZN4inet17NextHopAddressReqC1Ev @6649
    _ZN4inet17NextHopAddressReqC2ERKS0_ @6650
    _ZN4inet17NextHopAddressReqC2Ev @6651
    _ZN4inet17NextHopAddressReqD0Ev @6652
    _ZN4inet17NextHopAddressReqD1Ev @6653
    _ZN4inet17NextHopAddressReqD2Ev @6654
    _ZN4inet17NextHopAddressReqaSERKS0_ @6655
    _ZN4inet17NextHopForwarding10initializeEi @6656
    _ZN4inet17NextHopForwarding11decapsulateEPNS_6PacketE @6657
    _ZN4inet17NextHopForwarding11encapsulateEPNS_6PacketERPKNS_14InterfaceEntryE @6658
    _ZN4inet17NextHopForwarding11routePacketEPNS_6PacketEPKNS_14InterfaceEntryERKNS_9L3AddressEb @6659
    _ZN4inet17NextHopForwarding12registerHookEiPNS_10INetfilter5IHookE @6660
    _ZN4inet17NextHopForwarding13handleCommandEPNS_7RequestE @6661
    _ZN4inet17NextHopForwarding14unregisterHookEPNS_10INetfilter5IHookE @6662
    _ZN4inet17NextHopForwarding15datagramLocalInEPNS_6PacketEPKNS_14InterfaceEntryE @6663
    _ZN4inet17NextHopForwarding16datagramLocalOutEPNS_6PacketEPKNS_14InterfaceEntryERKNS_9L3AddressE @6664
    _ZN4inet17NextHopForwarding16sendDatagramToHLEPNS_6PacketE @6665
    _ZN4inet17NextHopForwarding18datagramPreRoutingEPNS_6PacketEPKNS_14InterfaceEntryES5_RKNS_9L3AddressE @6666
    _ZN4inet17NextHopForwarding18dropQueuedDatagramEPKNS_6PacketE @6667
    _ZN4inet17NextHopForwarding18handlePacketFromHLEPNS_6PacketE @6668
    _ZN4inet17NextHopForwarding19datagramForwardHookEPNS_6PacketE @6669
    _ZN4inet17NextHopForwarding19datagramLocalInHookEPNS_6PacketE @6670
    _ZN4inet17NextHopForwarding19handleMessageWhenUpEPN7omnetpp8cMessageE @6671
    _ZN4inet17NextHopForwarding19handleStopOperationEPNS_18LifecycleOperationE @6672
    _ZN4inet17NextHopForwarding20datagramLocalOutHookEPNS_6PacketE @6673
    _ZN4inet17NextHopForwarding20handleCrashOperationEPNS_18LifecycleOperationE @6674
    _ZN4inet17NextHopForwarding20handleStartOperationEPNS_18LifecycleOperationE @6675
    _ZN4inet17NextHopForwarding20routeMulticastPacketEPNS_6PacketEPKNS_14InterfaceEntryES5_ @6676
    _ZN4inet17NextHopForwarding20sendDatagramToOutputEPNS_6PacketEPKNS_14InterfaceEntryENS_9L3AddressE @6677
    _ZN4inet17NextHopForwarding21handleRegisterServiceERKNS_8ProtocolEPN7omnetpp5cGateENS_16ServicePrimitiveE @6678
    _ZN4inet17NextHopForwarding22datagramPreRoutingHookEPNS_6PacketE @6679
    _ZN4inet17NextHopForwarding22getSourceInterfaceFromEPNS_6PacketE @6680
    _ZN4inet17NextHopForwarding22handleRegisterProtocolERKNS_8ProtocolEPN7omnetpp5cGateENS_16ServicePrimitiveE @6681
    _ZN4inet17NextHopForwarding22reinjectQueuedDatagramEPKNS_6PacketE @6682
    _ZN4inet17NextHopForwarding23datagramPostRoutingHookEPNS_6PacketE @6683
    _ZN4inet17NextHopForwarding23handlePacketFromNetworkEPNS_6PacketE @6684
    _ZN4inet17NextHopForwarding4stopEv @6685
    _ZN4inet17NextHopForwarding5flushEv @6686
    _ZN4inet17NextHopForwarding5startEv @6687
    _ZN4inet17NextHopForwardingC1Ev @6688
    _ZN4inet17NextHopForwardingC2Ev @6689
    _ZN4inet17NextHopForwardingD0Ev @6690
    _ZN4inet17NextHopForwardingD1Ev @6691
    _ZN4inet17NextHopForwardingD2Ev @6692
    _ZN4inet17Ns2MotionMobility10initializeEi @6693
    _ZN4inet17Ns2MotionMobility15computeMaxSpeedEv @6694
    _ZN4inet17Ns2MotionMobility17setTargetPositionEv @6695
    _ZN4inet17Ns2MotionMobility18setInitialPositionEv @6696
    _ZN4inet17Ns2MotionMobility4moveEv @6697
    _ZN4inet17Ns2MotionMobility9parseFileEPKc @6698
    _ZN4inet17Ns2MotionMobilityC1Ev @6699
    _ZN4inet17Ns2MotionMobilityC2Ev @6700
    _ZN4inet17Ns2MotionMobilityD0Ev @6701
    _ZN4inet17Ns2MotionMobilityD1Ev @6702
    _ZN4inet17Ns2MotionMobilityD2Ev @6703
    _ZN4inet17PacketDrillConfig18parseScriptOptionsEPN7omnetpp6cQueueE @6704
    _ZN4inet17PacketDrillConfigC1Ev @6705
    _ZN4inet17PacketDrillConfigC2Ev @6706
    _ZN4inet17PacketDrillConfigD1Ev @6707
    _ZN4inet17PacketDrillConfigD2Ev @6708
    _ZN4inet17PacketDrillOptionC1EPcS1_ @6709
    _ZN4inet17PacketDrillOptionC2EPcS1_ @6710
    _ZN4inet17PacketDrillPacketC1Ev @6711
    _ZN4inet17PacketDrillPacketC2Ev @6712
    _ZN4inet17PacketDrillPacketD1Ev @6713
    _ZN4inet17PacketDrillPacketD2Ev @6714
    _ZN4inet17PacketDrillScript10readScriptEv @6715
    _ZN4inet17PacketDrillScript23parseScriptAndSetConfigEPNS_17PacketDrillConfigEPKc @6716
    _ZN4inet17PacketDrillScriptC1EPKc @6717
    _ZN4inet17PacketDrillScriptC2EPKc @6718
    _ZN4inet17PacketDrillScriptD1Ev @6719
    _ZN4inet17PacketDrillScriptD2Ev @6720
    _ZN4inet17PacketDrillStructC1Ev @6721
    _ZN4inet17PacketDrillStructC1Exx @6722
    _ZN4inet17PacketDrillStructC1ExxiiPN7omnetpp6cQueueE @6723
    _ZN4inet17PacketDrillStructC2Ev @6724
    _ZN4inet17PacketDrillStructC2Exx @6725
    _ZN4inet17PacketDrillStructC2ExxiiPN7omnetpp6cQueueE @6726
    _ZN4inet17PacketDropDetails12parsimUnpackEPN7omnetpp11cCommBufferE @6727
    _ZN4inet17PacketDropDetails4copyERKS0_ @6728
    _ZN4inet17PacketDropDetails8setLimitEi @6729
    _ZN4inet17PacketDropDetails9setReasonENS_16PacketDropReasonE @6730
    _ZN4inet17PacketDropDetailsC1ERKS0_ @6731
    _ZN4inet17PacketDropDetailsC1Ev @6732
    _ZN4inet17PacketDropDetailsC2ERKS0_ @6733
    _ZN4inet17PacketDropDetailsC2Ev @6734
    _ZN4inet17PacketDropDetailsD0Ev @6735
    _ZN4inet17PacketDropDetailsD1Ev @6736
    _ZN4inet17PacketDropDetailsD2Ev @6737
    _ZN4inet17PacketDropDetailsaSERKS0_ @6738
    _ZN4inet17PacketProtocolTag12parsimUnpackEPN7omnetpp11cCommBufferE @6739
    _ZN4inet17PacketProtocolTag4copyERKS0_ @6740
    _ZN4inet17PacketProtocolTagC1ERKS0_ @6741
    _ZN4inet17PacketProtocolTagC1Ev @6742
    _ZN4inet17PacketProtocolTagC2ERKS0_ @6743
    _ZN4inet17PacketProtocolTagC2Ev @6744
    _ZN4inet17PacketProtocolTagD0Ev @6745
    _ZN4inet17PacketProtocolTagD1Ev @6746
    _ZN4inet17PacketProtocolTagD2Ev @6747
    _ZN4inet17PacketProtocolTagaSERKS0_ @6748
    _ZN4inet17PimInterfaceTable10initializeEi @6749
    _ZN4inet17PimInterfaceTable12addInterfaceEPNS_14InterfaceEntryE @6750
    _ZN4inet17PimInterfaceTable13findInterfaceEPNS_14InterfaceEntryE @6751
    _ZN4inet17PimInterfaceTable13handleMessageEPN7omnetpp8cMessageE @6752
    _ZN4inet17PimInterfaceTable13receiveSignalEPN7omnetpp10cComponentEiPNS1_7cObjectES5_ @6753
    _ZN4inet17PimInterfaceTable15createInterfaceEPNS_14InterfaceEntryEPN7omnetpp11cXMLElementE @6754
    _ZN4inet17PimInterfaceTable15removeInterfaceEPNS_14InterfaceEntryE @6755
    _ZN4inet17PimInterfaceTable16getInterfaceByIdEi @6756
    _ZN4inet17PimInterfaceTable19configureInterfacesEPN7omnetpp11cXMLElementE @6757
    _ZN4inet17PimInterfaceTableD0Ev @6758
    _ZN4inet17PimInterfaceTableD1Ev @6759
    _ZN4inet17PimInterfaceTableD2Ev @6760
    _ZN4inet17PostureTransition10multMatrixEPPdS2_S2_ @6761
    _ZN4inet17PostureTransition10multVectorEPdPS1_ @6762
    _ZN4inet17PostureTransition11addAreaTypeENSt7__cxx1112basic_stringIcSt11char_traitsIcESaIcEEE @6763
    _ZN4inet17PostureTransition11isMarkovianEPPd @6764
    _ZN4inet17PostureTransition11isMarkovianEPd @6765
    _ZN4inet17PostureTransition12findAreaTypeENS_5CoordE @6766
    _ZN4inet17PostureTransition13addTimeDomainENSt7__cxx1112basic_stringIcSt11char_traitsIcESaIcEEE @6767
    _ZN4inet17PostureTransition14addCombinationENSt7__cxx1112basic_stringIcSt11char_traitsIcESaIcEEES6_S6_ @6768
    _ZN4inet17PostureTransition14addSteadyStateENSt7__cxx1112basic_stringIcSt11char_traitsIcESaIcEEEPd @6769
    _ZN4inet17PostureTransition14findTimeDomainEN7omnetpp7SimTimeE @6770
    _ZN4inet17PostureTransition14setAreaBoundryEiNS_5CoordES1_ @6771
    _ZN4inet17PostureTransition14setTimeBoundryEiN7omnetpp7SimTimeES2_ @6772
    _ZN4inet17PostureTransition14subtractMatrixEPPdS2_S2_ @6773
    _ZN4inet17PostureTransition28extractMatrixFromSteadyStateEPd @6774
    _ZN4inet17PostureTransition9addMatrixENSt7__cxx1112basic_stringIcSt11char_traitsIcESaIcEEEPPdb @6775
    _ZN4inet17PostureTransition9addMatrixEPPdS2_S2_ @6776
    _ZN4inet17PostureTransition9getMatrixEN7omnetpp7SimTimeENS_5CoordE @6777
    _ZN4inet17PostureTransitionC1Ei @6778
    _ZN4inet17PostureTransitionC2Ei @6779
    _ZN4inet17PostureTransitionD1Ev @6780
    _ZN4inet17PostureTransitionD2Ev @6781
    _ZN4inet17RealTimeScheduler11addCallbackEiPNS0_9ICallbackE @6782
    _ZN4inet17RealTimeScheduler12putBackEventEPN7omnetpp6cEventE @6783
    _ZN4inet17RealTimeScheduler12receiveUntilEx @6784
    _ZN4inet17RealTimeScheduler13takeNextEventEv @6785
    _ZN4inet17RealTimeScheduler14advanceSimTimeEv @6786
    _ZN4inet17RealTimeScheduler14guessNextEventEv @6787
    _ZN4inet17RealTimeScheduler14removeCallbackEiPNS0_9ICallbackE @6788
    _ZN4inet17RealTimeScheduler16executionResumedEv @6789
    _ZN4inet17RealTimeScheduler18receiveWithTimeoutEl @6790
    _ZN4inet17RealTimeScheduler6endRunEv @6791
    _ZN4inet17RealTimeScheduler8startRunEv @6792
    _ZN4inet17RealTimeSchedulerC1Ev @6793
    _ZN4inet17RealTimeSchedulerC2Ev @6794
    _ZN4inet17RealTimeSchedulerD0Ev @6795
    _ZN4inet17RealTimeSchedulerD1Ev @6796
    _ZN4inet17RealTimeSchedulerD2Ev @6797
    _ZN4inet17RectangleMobility10initializeEi @6798
    _ZN4inet17RectangleMobility18setInitialPositionEv @6799
    _ZN4inet17RectangleMobility4moveEv @6800
    _ZN4inet17RectangleMobilityC1Ev @6801
    _ZN4inet17RectangleMobilityC2Ev @6802
    _ZN4inet17RsbCommitTimerMsg12parsimUnpackEPN7omnetpp11cCommBufferE @6803
    _ZN4inet17RsbCommitTimerMsg4copyERKS0_ @6804
    _ZN4inet17RsbCommitTimerMsg5setIdEi @6805
    _ZN4inet17RsbCommitTimerMsgC1EPKcs @6806
    _ZN4inet17RsbCommitTimerMsgC1ERKS0_ @6807
    _ZN4inet17RsbCommitTimerMsgC2EPKcs @6808
    _ZN4inet17RsbCommitTimerMsgC2ERKS0_ @6809
    _ZN4inet17RsbCommitTimerMsgD0Ev @6810
    _ZN4inet17RsbCommitTimerMsgD1Ev @6811
    _ZN4inet17RsbCommitTimerMsgD2Ev @6812
    _ZN4inet17RsbCommitTimerMsgaSERKS0_ @6813
    _ZN4inet17SctpSimpleMessage10insertDataEh @6814
    _ZN4inet17SctpSimpleMessage10insertDataEyh @6815
    _ZN4inet17SctpSimpleMessage10setDataLenEj @6816
    _ZN4inet17SctpSimpleMessage12parsimUnpackEPN7omnetpp11cCommBufferE @6817
    _ZN4inet17SctpSimpleMessage15setCreationTimeEN7omnetpp7SimTimeE @6818
    _ZN4inet17SctpSimpleMessage16setDataArraySizeEy @6819
    _ZN4inet17SctpSimpleMessage4copyERKS0_ @6820
    _ZN4inet17SctpSimpleMessage7setDataEyh @6821
    _ZN4inet17SctpSimpleMessage9eraseDataEy @6822
    _ZN4inet17SctpSimpleMessage9setEncapsEb @6823
    _ZN4inet17SctpSimpleMessageC1EPKc @6824
    _ZN4inet17SctpSimpleMessageC1ERKS0_ @6825
    _ZN4inet17SctpSimpleMessageC2EPKc @6826
    _ZN4inet17SctpSimpleMessageC2ERKS0_ @6827
    _ZN4inet17SctpSimpleMessageD0Ev @6828
    _ZN4inet17SctpSimpleMessageD1Ev @6829
    _ZN4inet17SctpSimpleMessageD2Ev @6830
    _ZN4inet17SctpSimpleMessageaSERKS0_ @6831
    _ZN4inet17SenderTemplateObjC1Ev @6832
    _ZN4inet17SenderTemplateObjC2Ev @6833
    _ZN4inet17ShortcutMacHeader12parsimUnpackEPN7omnetpp11cCommBufferE @6834
    _ZN4inet17ShortcutMacHeader18setPayloadProtocolEPKNS_8ProtocolE @6835
    _ZN4inet17ShortcutMacHeader4copyERKS0_ @6836
    _ZN4inet17ShortcutMacHeaderC1ERKS0_ @6837
    _ZN4inet17ShortcutMacHeaderC1Ev @6838
    _ZN4inet17ShortcutMacHeaderC2ERKS0_ @6839
    _ZN4inet17ShortcutMacHeaderC2Ev @6840
    _ZN4inet17ShortcutMacHeaderD0Ev @6841
    _ZN4inet17ShortcutMacHeaderD1Ev @6842
    _ZN4inet17ShortcutMacHeaderD2Ev @6843
    _ZN4inet17ShortcutMacHeaderaSERKS0_ @6844
    _ZN4inet17ShortcutPhyHeader12parsimUnpackEPN7omnetpp11cCommBufferE @6845
    _ZN4inet17ShortcutPhyHeader18setPayloadProtocolEPKNS_8ProtocolE @6846
    _ZN4inet17ShortcutPhyHeader4copyERKS0_ @6847
    _ZN4inet17ShortcutPhyHeaderC1ERKS0_ @6848
    _ZN4inet17ShortcutPhyHeaderC1Ev @6849
    _ZN4inet17ShortcutPhyHeaderC2ERKS0_ @6850
    _ZN4inet17ShortcutPhyHeaderC2Ev @6851
    _ZN4inet17ShortcutPhyHeaderD0Ev @6852
    _ZN4inet17ShortcutPhyHeaderD1Ev @6853
    _ZN4inet17ShortcutPhyHeaderD2Ev @6854
    _ZN4inet17ShortcutPhyHeaderaSERKS0_ @6855
    _ZN4inet17SignalBandTagBase12parsimUnpackEPN7omnetpp11cCommBufferE @6856
    _ZN4inet17SignalBandTagBase12setBandwidthENS_5units5valueIdNS1_3powINS1_5units1sELin1ELi1EEEEE @6857
    _ZN4inet17SignalBandTagBase18setCenterFrequencyENS_5units5valueIdNS1_3powINS1_5units1sELin1ELi1EEEEE @6858
    _ZN4inet17SignalBandTagBase4copyERKS0_ @6859
    _ZN4inet17SignalBandTagBaseC1ERKS0_ @6860
    _ZN4inet17SignalBandTagBaseC1Ev @6861
    _ZN4inet17SignalBandTagBaseC2ERKS0_ @6862
    _ZN4inet17SignalBandTagBaseC2Ev @6863
    _ZN4inet17SignalBandTagBaseD0Ev @6864
    _ZN4inet17SignalBandTagBaseD1Ev @6865
    _ZN4inet17SignalBandTagBaseD2Ev @6866
    _ZN4inet17SignalBandTagBaseaSERKS0_ @6867
    _ZN4inet17TcpBasicClientApp10initializeEi @6868
    _ZN4inet17TcpBasicClientApp11handleTimerEPN7omnetpp8cMessageE @6869
    _ZN4inet17TcpBasicClientApp11sendRequestEv @6870
    _ZN4inet17TcpBasicClientApp12socketClosedEPNS_9TcpSocketE @6871
    _ZN4inet17TcpBasicClientApp13socketFailureEPNS_9TcpSocketEi @6872
    _ZN4inet17TcpBasicClientApp17socketDataArrivedEPNS_9TcpSocketEPNS_6PacketEb @6873
    _ZN4inet17TcpBasicClientApp17socketEstablishedEPNS_9TcpSocketE @6874
    _ZN4inet17TcpBasicClientApp19handleStopOperationEPNS_18LifecycleOperationE @6875
    _ZN4inet17TcpBasicClientApp20handleCrashOperationEPNS_18LifecycleOperationE @6876
    _ZN4inet17TcpBasicClientApp20handleStartOperationEPNS_18LifecycleOperationE @6877
    _ZN4inet17TcpBasicClientApp23rescheduleOrDeleteTimerEN7omnetpp7SimTimeEs @6878
    _ZN4inet17TcpBasicClientApp5closeEv @6879
    _ZN4inet17TcpBasicClientAppD0Ev @6880
    _ZN4inet17TcpBasicClientAppD1Ev @6881
    _ZN4inet17TcpBasicClientAppD2Ev @6882
    _ZN4inet17TcpClientSocketIo13handleMessageEPN7omnetpp8cMessageE @6883
    _ZN4inet17TcpClientSocketIo17socketDataArrivedEPNS_9TcpSocketEPNS_6PacketEb @6884
    _ZN4inet17TcpClientSocketIo4openEv @6885
    _ZN4inet17TcpServerListener12socketClosedEPNS_9TcpSocketE @6886
    _ZN4inet17TcpServerListener15socketAvailableEPNS_9TcpSocketEPNS_16TcpAvailableInfoE @6887
    _ZN4inet17TcpServerListener16connectionClosedEPNS_17TcpServerSocketIoE @6888
    _ZN4inet17TcpServerListener16removeConnectionEPNS_17TcpServerSocketIoE @6889
    _ZN4inet17TcpServerListener19handleMessageWhenUpEPN7omnetpp8cMessageE @6890
    _ZN4inet17TcpServerListener19handleStopOperationEPNS_18LifecycleOperationE @6891
    _ZN4inet17TcpServerListener19submoduleVectorNameE @6892 DATA
    _ZN4inet17TcpServerListener20handleCrashOperationEPNS_18LifecycleOperationE @6893
    _ZN4inet17TcpServerListener20handleStartOperationEPNS_18LifecycleOperationE @6894
    _ZN4inet17TcpServerListener6finishEv @6895
    _ZN4inet17TcpServerSocketIo12acceptSocketEPNS_16TcpAvailableInfoE @6896
    _ZN4inet17TcpServerSocketIo13handleMessageEPN7omnetpp8cMessageE @6897
    _ZN4inet17TcpServerSocketIo17socketDataArrivedEPNS_9TcpSocketEPNS_6PacketEb @6898
    _ZN4inet17TcpSetDscpCommand12parsimUnpackEPN7omnetpp11cCommBufferE @6899
    _ZN4inet17TcpSetDscpCommand4copyERKS0_ @6900
    _ZN4inet17TcpSetDscpCommand7setDscpEs @6901
    _ZN4inet17TcpSetDscpCommandC1ERKS0_ @6902
    _ZN4inet17TcpSetDscpCommandC1Ev @6903
    _ZN4inet17TcpSetDscpCommandC2ERKS0_ @6904
    _ZN4inet17TcpSetDscpCommandC2Ev @6905
    _ZN4inet17TcpSetDscpCommandD0Ev @6906
    _ZN4inet17TcpSetDscpCommandD1Ev @6907
    _ZN4inet17TcpSetDscpCommandD2Ev @6908
    _ZN4inet17TcpSetDscpCommandaSERKS0_ @6909
    _ZN4inet17ThermometerFigure11addChildrenEv @6910
    _ZN4inet17ThermometerFigure11redrawTicksEv @6911
    _ZN4inet17ThermometerFigure11setMaxValueEd @6912
    _ZN4inet17ThermometerFigure11setMinValueEd @6913
    _ZN4inet17ThermometerFigure11setTickSizeEd @6914
    _ZN4inet17ThermometerFigure12setLabelFontERKN7omnetpp7cFigure4FontE @6915
    _ZN4inet17ThermometerFigure13setLabelColorERKN7omnetpp7cFigure5ColorE @6916
    _ZN4inet17ThermometerFigure14setLabelOffsetEi @6917
    _ZN4inet17ThermometerFigure15setMercuryColorERKN7omnetpp7cFigure5ColorE @6918
    _ZN4inet17ThermometerFigure15setTickGeometryEPN7omnetpp11cLineFigureEi @6919
    _ZN4inet17ThermometerFigure17setNumberGeometryEPN7omnetpp11cTextFigureEi @6920
    _ZN4inet17ThermometerFigure20getContainerGeometryERdS1_S1_S1_S1_ @6921
    _ZN4inet17ThermometerFigure30setMercuryAndContainerGeometryEv @6922
    _ZN4inet17ThermometerFigure5parseEPN7omnetpp9cPropertyE @6923
    _ZN4inet17ThermometerFigure6layoutEv @6924
    _ZN4inet17ThermometerFigure7refreshEv @6925
    _ZN4inet17ThermometerFigure8setLabelEPKc @6926
    _ZN4inet17ThermometerFigure8setValueEiN7omnetpp7SimTimeEd @6927
    _ZN4inet17ThermometerFigure9setBoundsERKN7omnetpp7cFigure9RectangleE @6928
    _ZN4inet17ThermometerFigureC1EPKc @6929
    _ZN4inet17ThermometerFigureC2EPKc @6930
    _ZN4inet17ThermometerFigureD0Ev @6931
    _ZN4inet17ThermometerFigureD1Ev @6932
    _ZN4inet17ThermometerFigureD2Ev @6933
    _ZN4inet17TunDestroyCommand12parsimUnpackEPN7omnetpp11cCommBufferE @6934
    _ZN4inet17TunDestroyCommand4copyERKS0_ @6935
    _ZN4inet17TunDestroyCommandC1ERKS0_ @6936
    _ZN4inet17TunDestroyCommandC1Ev @6937
    _ZN4inet17TunDestroyCommandC2ERKS0_ @6938
    _ZN4inet17TunDestroyCommandC2Ev @6939
    _ZN4inet17TunDestroyCommandD0Ev @6940
    _ZN4inet17TunDestroyCommandD1Ev @6941
    _ZN4inet17TunDestroyCommandD2Ev @6942
    _ZN4inet17TunDestroyCommandaSERKS0_ @6943
    _ZN4inet17UdpConnectCommand12parsimUnpackEPN7omnetpp11cCommBufferE @6944
    _ZN4inet17UdpConnectCommand13setRemoteAddrERKNS_9L3AddressE @6945
    _ZN4inet17UdpConnectCommand13setRemotePortEi @6946
    _ZN4inet17UdpConnectCommand4copyERKS0_ @6947
    _ZN4inet17UdpConnectCommandC1ERKS0_ @6948
    _ZN4inet17UdpConnectCommandC1Ev @6949
    _ZN4inet17UdpConnectCommandC2ERKS0_ @6950
    _ZN4inet17UdpConnectCommandC2Ev @6951
    _ZN4inet17UdpConnectCommandD0Ev @6952
    _ZN4inet17UdpConnectCommandD1Ev @6953
    _ZN4inet17UdpConnectCommandD2Ev @6954
    _ZN4inet17UdpConnectCommandaSERKS0_ @6955
    _ZN4inet17UdpDestroyCommand12parsimUnpackEPN7omnetpp11cCommBufferE @6956
    _ZN4inet17UdpDestroyCommand4copyERKS0_ @6957
    _ZN4inet17UdpDestroyCommandC1ERKS0_ @6958
    _ZN4inet17UdpDestroyCommandC1Ev @6959
    _ZN4inet17UdpDestroyCommandC2ERKS0_ @6960
    _ZN4inet17UdpDestroyCommandC2Ev @6961
    _ZN4inet17UdpDestroyCommandD0Ev @6962
    _ZN4inet17UdpDestroyCommandD1Ev @6963
    _ZN4inet17UdpDestroyCommandD2Ev @6964
    _ZN4inet17UdpDestroyCommandaSERKS0_ @6965
    _ZN4inet17UdpSetDscpCommand12parsimUnpackEPN7omnetpp11cCommBufferE @6966
    _ZN4inet17UdpSetDscpCommand4copyERKS0_ @6967
    _ZN4inet17UdpSetDscpCommand7setDscpEs @6968
    _ZN4inet17UdpSetDscpCommandC1ERKS0_ @6969
    _ZN4inet17UdpSetDscpCommandC1Ev @6970
    _ZN4inet17UdpSetDscpCommandC2ERKS0_ @6971
    _ZN4inet17UdpSetDscpCommandC2Ev @6972
    _ZN4inet17UdpSetDscpCommandD0Ev @6973
    _ZN4inet17UdpSetDscpCommandD1Ev @6974
    _ZN4inet17UdpSetDscpCommandD2Ev @6975
    _ZN4inet17UdpSetDscpCommandaSERKS0_ @6976
    _ZN4inet17UnitDiskPhyHeader12parsimUnpackEPN7omnetpp11cCommBufferE @6977
    _ZN4inet17UnitDiskPhyHeader18setPayloadProtocolEPKNS_8ProtocolE @6978
    _ZN4inet17UnitDiskPhyHeader4copyERKS0_ @6979
    _ZN4inet17UnitDiskPhyHeaderC1ERKS0_ @6980
    _ZN4inet17UnitDiskPhyHeaderC1Ev @6981
    _ZN4inet17UnitDiskPhyHeaderC2ERKS0_ @6982
    _ZN4inet17UnitDiskPhyHeaderC2Ev @6983
    _ZN4inet17UnitDiskPhyHeaderD0Ev @6984
    _ZN4inet17UnitDiskPhyHeaderD1Ev @6985
    _ZN4inet17UnitDiskPhyHeaderD2Ev @6986
    _ZN4inet17UnitDiskPhyHeaderaSERKS0_ @6987
    _ZN4inet17getContainingNodeEPKN7omnetpp7cModuleE @6988
    _ZN4inet17mrouteAddedSignalE @6989 DATA
    _ZN4inet17packetAddedSignalE @6990 DATA
    _ZN4inet17registerInterfaceERKNS_14InterfaceEntryEPN7omnetpp5cGateES5_ @6991
    _ZN4inet18BonnMotionMobility10initializeEi @6992
    _ZN4inet18BonnMotionMobility15computeMaxSpeedEv @6993
    _ZN4inet18BonnMotionMobility17setTargetPositionEv @6994
    _ZN4inet18BonnMotionMobility18setInitialPositionEv @6995
    _ZN4inet18BonnMotionMobility4moveEv @6996
    _ZN4inet18BonnMotionMobilityC1Ev @6997
    _ZN4inet18BonnMotionMobilityC2Ev @6998
    _ZN4inet18BonnMotionMobilityD0Ev @6999
    _ZN4inet18BonnMotionMobilityD1Ev @7000
    _ZN4inet18BonnMotionMobilityD2Ev @7001
    _ZN4inet18CsmaCaMacAckHeader12parsimUnpackEPN7omnetpp11cCommBufferE @7002
    _ZN4inet18CsmaCaMacAckHeader4copyERKS0_ @7003
    _ZN4inet18CsmaCaMacAckHeaderC1ERKS0_ @7004
    _ZN4inet18CsmaCaMacAckHeaderC1Ev @7005
    _ZN4inet18CsmaCaMacAckHeaderC2ERKS0_ @7006
    _ZN4inet18CsmaCaMacAckHeaderC2Ev @7007
    _ZN4inet18CsmaCaMacAckHeaderD0Ev @7008
    _ZN4inet18CsmaCaMacAckHeaderD1Ev @7009
    _ZN4inet18CsmaCaMacAckHeaderD2Ev @7010
    _ZN4inet18CsmaCaMacAckHeaderaSERKS0_ @7011
    _ZN4inet18EtherMacFullDuplex10initializeEi @7012
    _ZN4inet18EtherMacFullDuplex15beginSendFramesEv @7013
    _ZN4inet18EtherMacFullDuplex15initializeFlagsEv @7014
    _ZN4inet18EtherMacFullDuplex17handleEndTxPeriodEv @7015
    _ZN4inet18EtherMacFullDuplex17handleSelfMessageEPN7omnetpp8cMessageE @7016
    _ZN4inet18EtherMacFullDuplex17handleUpperPacketEPNS_6PacketE @7017
    _ZN4inet18EtherMacFullDuplex18handleEndIFGPeriodEv @7018
    _ZN4inet18EtherMacFullDuplex19handleMessageWhenUpEPN7omnetpp8cMessageE @7019
    _ZN4inet18EtherMacFullDuplex19processPauseCommandEi @7020
    _ZN4inet18EtherMacFullDuplex20handleEndPausePeriodEv @7021
    _ZN4inet18EtherMacFullDuplex20initializeStatisticsEv @7022
    _ZN4inet18EtherMacFullDuplex20scheduleEndIFGPeriodEv @7023
    _ZN4inet18EtherMacFullDuplex21processMsgFromNetworkEPNS_14EthernetSignalE @7024
    _ZN4inet18EtherMacFullDuplex22scheduleEndPausePeriodEi @7025
    _ZN4inet18EtherMacFullDuplex22startFrameTransmissionEv @7026
    _ZN4inet18EtherMacFullDuplex24processReceivedDataFrameEPNS_6PacketERKNS_12IntrusivePtrIKNS_17EthernetMacHeaderEEE @7027
    _ZN4inet18EtherMacFullDuplex6finishEv @7028
    _ZN4inet18EtherMacFullDuplexC1Ev @7029
    _ZN4inet18EtherMacFullDuplexC2Ev @7030
    _ZN4inet18EthernetPauseFrame12parsimUnpackEPN7omnetpp11cCommBufferE @7031
    _ZN4inet18EthernetPauseFrame12setPauseTimeEi @7032
    _ZN4inet18EthernetPauseFrame4copyERKS0_ @7033
    _ZN4inet18EthernetPauseFrameC1ERKS0_ @7034
    _ZN4inet18EthernetPauseFrameC1Ev @7035
    _ZN4inet18EthernetPauseFrameC2ERKS0_ @7036
    _ZN4inet18EthernetPauseFrameC2Ev @7037
    _ZN4inet18EthernetPauseFrameD0Ev @7038
    _ZN4inet18EthernetPauseFrameD1Ev @7039
    _ZN4inet18EthernetPauseFrameD2Ev @7040
    _ZN4inet18EthernetPauseFrameaSERKS0_ @7041
    _ZN4inet18GenerationIdOption12parsimUnpackEPN7omnetpp11cCommBufferE @7042
    _ZN4inet18GenerationIdOption15setGenerationIDEj @7043
    _ZN4inet18GenerationIdOption4copyERKS0_ @7044
    _ZN4inet18GenerationIdOptionC1ERKS0_ @7045
    _ZN4inet18GenerationIdOptionC1Ev @7046
    _ZN4inet18GenerationIdOptionC2ERKS0_ @7047
    _ZN4inet18GenerationIdOptionC2Ev @7048
    _ZN4inet18GenerationIdOptionD0Ev @7049
    _ZN4inet18GenerationIdOptionD1Ev @7050
    _ZN4inet18GenerationIdOptionD2Ev @7051
    _ZN4inet18GenerationIdOptionaSERKS0_ @7052
    _ZN4inet18GroupCountRecorder13receiveSignalEPN7omnetpp13cResultFilterERKNS1_7SimTimeEPKcPNS1_7cObjectE @7053
    _ZN4inet18GroupCountRecorder13receiveSignalEPN7omnetpp13cResultFilterERKNS1_7SimTimeEPNS1_7cObjectES8_ @7054
    _ZN4inet18GroupCountRecorder13receiveSignalEPN7omnetpp13cResultFilterERKNS1_7SimTimeES6_PNS1_7cObjectE @7055
    _ZN4inet18GroupCountRecorder13receiveSignalEPN7omnetpp13cResultFilterERKNS1_7SimTimeEbPNS1_7cObjectE @7056
    _ZN4inet18GroupCountRecorder13receiveSignalEPN7omnetpp13cResultFilterERKNS1_7SimTimeEdPNS1_7cObjectE @7057
    _ZN4inet18GroupCountRecorder13receiveSignalEPN7omnetpp13cResultFilterERKNS1_7SimTimeElPNS1_7cObjectE @7058
    _ZN4inet18GroupCountRecorder13receiveSignalEPN7omnetpp13cResultFilterERKNS1_7SimTimeEmPNS1_7cObjectE @7059
    _ZN4inet18GroupCountRecorder6finishEPN7omnetpp13cResultFilterE @7060
    _ZN4inet18GroupCountRecorder7collectENSt7__cxx1112basic_stringIcSt11char_traitsIcESaIcEEE @7061
    _ZN4inet18Icmpv6EchoReplyMsg12parsimUnpackEPN7omnetpp11cCommBufferE @7062
    _ZN4inet18Icmpv6EchoReplyMsg12setSeqNumberEi @7063
    _ZN4inet18Icmpv6EchoReplyMsg13setIdentifierEi @7064
    _ZN4inet18Icmpv6EchoReplyMsg4copyERKS0_ @7065
    _ZN4inet18Icmpv6EchoReplyMsg7setCodeEi @7066
    _ZN4inet18Icmpv6EchoReplyMsgC1ERKS0_ @7067
    _ZN4inet18Icmpv6EchoReplyMsgC1Ev @7068
    _ZN4inet18Icmpv6EchoReplyMsgC2ERKS0_ @7069
    _ZN4inet18Icmpv6EchoReplyMsgC2Ev @7070
    _ZN4inet18Icmpv6EchoReplyMsgD0Ev @7071
    _ZN4inet18Icmpv6EchoReplyMsgD1Ev @7072
    _ZN4inet18Icmpv6EchoReplyMsgD2Ev @7073
    _ZN4inet18Icmpv6EchoReplyMsgaSERKS0_ @7074
    _ZN4inet18IndexedImageFigure10setOpacityEd @7075
    _ZN4inet18IndexedImageFigure11addChildrenEv @7076
    _ZN4inet18IndexedImageFigure12setLabelFontERKN7omnetpp7cFigure4FontE @7077
    _ZN4inet18IndexedImageFigure12setTintColorERKN7omnetpp7cFigure5ColorE @7078
    _ZN4inet18IndexedImageFigure13setLabelColorERKN7omnetpp7cFigure5ColorE @7079
    _ZN4inet18IndexedImageFigure13setTintAmountEd @7080
    _ZN4inet18IndexedImageFigure14setLabelOffsetERKN7omnetpp7cFigure5PointE @7081
    _ZN4inet18IndexedImageFigure16setInterpolationEN7omnetpp7cFigure13InterpolationE @7082
    _ZN4inet18IndexedImageFigure5parseEPN7omnetpp9cPropertyE @7083
    _ZN4inet18IndexedImageFigure6setPosERKN7omnetpp7cFigure5PointE @7084
    _ZN4inet18IndexedImageFigure7refreshEv @7085
    _ZN4inet18IndexedImageFigure7setSizeERKN7omnetpp7cFigure5PointE @7086
    _ZN4inet18IndexedImageFigure8setLabelEPKc @7087
    _ZN4inet18IndexedImageFigure8setValueEiN7omnetpp7SimTimeEd @7088
    _ZN4inet18IndexedImageFigure9setAnchorEN7omnetpp7cFigure6AnchorE @7089
    _ZN4inet18IndexedImageFigure9setImagesERKSt6vectorINSt7__cxx1112basic_stringIcSt11char_traitsIcESaIcEEESaIS7_EE @7090
    _ZN4inet18IndexedImageFigureC1EPKc @7091
    _ZN4inet18IndexedImageFigureC2EPKc @7092
    _ZN4inet18Ipv4MulticastRoute14setInInterfaceEPNS_15IMulticastRoute11InInterfaceE @7093
    _ZN4inet18Ipv4MulticastRoute15addOutInterfaceEPNS_15IMulticastRoute12OutInterfaceE @7094
    _ZN4inet18Ipv4MulticastRoute18clearOutInterfacesEv @7095
    _ZN4inet18Ipv4MulticastRoute18removeOutInterfaceEPKNS_14InterfaceEntryE @7096
    _ZN4inet18Ipv4MulticastRoute18removeOutInterfaceEj @7097
    _ZN4inet18Ipv4MulticastRoute7changedEi @7098
    _ZN4inet18Ipv4MulticastRouteD0Ev @7099
    _ZN4inet18Ipv4MulticastRouteD1Ev @7100
    _ZN4inet18Ipv4MulticastRouteD2Ev @7101
    _ZN4inet18Ipv4OptionStreamId11setStreamIdEs @7102
    _ZN4inet18Ipv4OptionStreamId12parsimUnpackEPN7omnetpp11cCommBufferE @7103
    _ZN4inet18Ipv4OptionStreamId4copyERKS0_ @7104
    _ZN4inet18Ipv4OptionStreamIdC1ERKS0_ @7105
    _ZN4inet18Ipv4OptionStreamIdC1Ev @7106
    _ZN4inet18Ipv4OptionStreamIdC2ERKS0_ @7107
    _ZN4inet18Ipv4OptionStreamIdC2Ev @7108
    _ZN4inet18Ipv4OptionStreamIdD0Ev @7109
    _ZN4inet18Ipv4OptionStreamIdD1Ev @7110
    _ZN4inet18Ipv4OptionStreamIdD2Ev @7111
    _ZN4inet18Ipv4OptionStreamIdaSERKS0_ @7112
    _ZN4inet18Ipv4OptionsTagBase10dropOptionEy @7113
    _ZN4inet18Ipv4OptionsTagBase11eraseOptionEy @7114
    _ZN4inet18Ipv4OptionsTagBase12insertOptionEPNS_10Ipv4OptionE @7115
    _ZN4inet18Ipv4OptionsTagBase12insertOptionEyPNS_10Ipv4OptionE @7116
    _ZN4inet18Ipv4OptionsTagBase12parsimUnpackEPN7omnetpp11cCommBufferE @7117
    _ZN4inet18Ipv4OptionsTagBase18setOptionArraySizeEy @7118
    _ZN4inet18Ipv4OptionsTagBase4copyERKS0_ @7119
    _ZN4inet18Ipv4OptionsTagBase9setOptionEyPNS_10Ipv4OptionE @7120
    _ZN4inet18Ipv4OptionsTagBaseC1ERKS0_ @7121
    _ZN4inet18Ipv4OptionsTagBaseC1Ev @7122
    _ZN4inet18Ipv4OptionsTagBaseC2ERKS0_ @7123
    _ZN4inet18Ipv4OptionsTagBaseC2Ev @7124
    _ZN4inet18Ipv4OptionsTagBaseD0Ev @7125
    _ZN4inet18Ipv4OptionsTagBaseD1Ev @7126
    _ZN4inet18Ipv4OptionsTagBaseD2Ev @7127
    _ZN4inet18Ipv4OptionsTagBaseaSERKS0_ @7128
    _ZN4inet18Ipv6FragmentHeader12parsimUnpackEPN7omnetpp11cCommBufferE @7129
    _ZN4inet18Ipv6FragmentHeader16setMoreFragmentsEb @7130
    _ZN4inet18Ipv6FragmentHeader17setFragmentOffsetEt @7131
    _ZN4inet18Ipv6FragmentHeader17setIdentificationEj @7132
    _ZN4inet18Ipv6FragmentHeader4copyERKS0_ @7133
    _ZN4inet18Ipv6FragmentHeaderC1ERKS0_ @7134
    _ZN4inet18Ipv6FragmentHeaderC1Ev @7135
    _ZN4inet18Ipv6FragmentHeaderC2ERKS0_ @7136
    _ZN4inet18Ipv6FragmentHeaderC2Ev @7137
    _ZN4inet18Ipv6FragmentHeaderD0Ev @7138
    _ZN4inet18Ipv6FragmentHeaderD1Ev @7139
    _ZN4inet18Ipv6FragmentHeaderD2Ev @7140
    _ZN4inet18Ipv6FragmentHeaderaSERKS0_ @7141
    _ZN4inet18Ipv6NeighbourCache12addNeighbourERKNS_11Ipv6AddressEi @7142
    _ZN4inet18Ipv6NeighbourCache12addNeighbourERKNS_11Ipv6AddressEiNS_10MacAddressE @7143
    _ZN4inet18Ipv6NeighbourCache13lookupKeyAddrERNS0_3KeyE @7144
    _ZN4inet18Ipv6NeighbourCache20invalidateAllEntriesEv @7145
    _ZN4inet18Ipv6NeighbourCache31invalidateEntriesForInterfaceIDEi @7146
    _ZN4inet18Ipv6NeighbourCache6lookupERKNS_11Ipv6AddressEi @7147
    _ZN4inet18Ipv6NeighbourCache6removeERKNS_11Ipv6AddressEi @7148
    _ZN4inet18Ipv6NeighbourCache6removeESt17_Rb_tree_iteratorISt4pairIKNS0_3KeyENS0_9NeighbourEEE @7149
    _ZN4inet18Ipv6NeighbourCache9addRouterERKNS_11Ipv6AddressEiNS_10MacAddressEN7omnetpp7SimTimeEb @7150
    _ZN4inet18Ipv6NeighbourCache9stateNameENS0_17ReachabilityStateE @7151
    _ZN4inet18Ipv6NeighbourCacheC1ERN7omnetpp13cSimpleModuleE @7152
    _ZN4inet18Ipv6NeighbourCacheC2ERN7omnetpp13cSimpleModuleE @7153
    _ZN4inet18L2NodeConfigurator10initializeEi @7154
    _ZN4inet18L2NodeConfigurator11prepareNodeEv @7155
    _ZN4inet18L2NodeConfigurator13configureNodeEv @7156
    _ZN4inet18L2NodeConfigurator13receiveSignalEPN7omnetpp10cComponentEiPNS1_7cObjectES5_ @7157
    _ZN4inet18L2NodeConfigurator16prepareInterfaceEPNS_14InterfaceEntryE @7158
    _ZN4inet18L2NodeConfigurator20handleOperationStageEPNS_18LifecycleOperationEPNS_13IDoneCallbackE @7159
    _ZN4inet18L2NodeConfiguratorC1Ev @7160
    _ZN4inet18L2NodeConfiguratorC2Ev @7161
    _ZN4inet18MatrixCloudDelayer10initializeEi @7162
    _ZN4inet18MatrixCloudDelayer21calculateDropAndDelayEPKN7omnetpp8cMessageEiiRbRNS1_7SimTimeE @7163
    _ZN4inet18MatrixCloudDelayer21getOrCreateDescriptorEii @7164
    _ZN4inet18MatrixCloudDelayer31getPathOfConnectedNodeOnIfaceIDB5cxx11Ei @7165
    _ZN4inet18MatrixCloudDelayerD0Ev @7166
    _ZN4inet18MatrixCloudDelayerD1Ev @7167
    _ZN4inet18MatrixCloudDelayerD2Ev @7168
    _ZN4inet18Mipv6HaInformation11setReservedEt @7169
    _ZN4inet18Mipv6HaInformation12parsimUnpackEPN7omnetpp11cCommBufferE @7170
    _ZN4inet18Mipv6HaInformation20setHomeAgentLifetimeEt @7171
    _ZN4inet18Mipv6HaInformation22setHomeAgentPreferenceEt @7172
    _ZN4inet18Mipv6HaInformation4copyERKS0_ @7173
    _ZN4inet18Mipv6HaInformationC1ERKS0_ @7174
    _ZN4inet18Mipv6HaInformationC1Ev @7175
    _ZN4inet18Mipv6HaInformationC2ERKS0_ @7176
    _ZN4inet18Mipv6HaInformationC2Ev @7177
    _ZN4inet18Mipv6HaInformationD0Ev @7178
    _ZN4inet18Mipv6HaInformationD1Ev @7179
    _ZN4inet18Mipv6HaInformationD2Ev @7180
    _ZN4inet18Mipv6HaInformationaSERKS0_ @7181
    _ZN4inet18MovingMobilityBase10initializeEi @7182
    _ZN4inet18MovingMobilityBase13moveAndUpdateEv @7183
    _ZN4inet18MovingMobilityBase14scheduleUpdateEv @7184
    _ZN4inet18MovingMobilityBase17handleSelfMessageEPN7omnetpp8cMessageE @7185
    _ZN4inet18MovingMobilityBase18getCurrentPositionEv @7186
    _ZN4inet18MovingMobilityBase18getCurrentVelocityEv @7187
    _ZN4inet18MovingMobilityBase18initializePositionEv @7188
    _ZN4inet18MovingMobilityBase25getCurrentAngularPositionEv @7189
    _ZN4inet18MovingMobilityBase25getCurrentAngularVelocityEv @7190
    _ZN4inet18MovingMobilityBase6orientEv @7191
    _ZN4inet18MovingMobilityBaseC2Ev @7192
    _ZN4inet18MovingMobilityBaseD0Ev @7193
    _ZN4inet18MovingMobilityBaseD1Ev @7194
    _ZN4inet18MovingMobilityBaseD2Ev @7195
    _ZN4inet18NetworkProtocolInd12parsimUnpackEPN7omnetpp11cCommBufferE @7196
    _ZN4inet18NetworkProtocolInd24setNetworkProtocolHeaderERKNS_12IntrusivePtrIKNS_5ChunkEEE @7197
    _ZN4inet18NetworkProtocolInd4copyERKS0_ @7198
    _ZN4inet18NetworkProtocolIndC1ERKS0_ @7199
    _ZN4inet18NetworkProtocolIndC1Ev @7200
    _ZN4inet18NetworkProtocolIndC2ERKS0_ @7201
    _ZN4inet18NetworkProtocolIndC2Ev @7202
    _ZN4inet18NetworkProtocolIndD0Ev @7203
    _ZN4inet18NetworkProtocolIndD1Ev @7204
    _ZN4inet18NetworkProtocolIndD2Ev @7205
    _ZN4inet18NetworkProtocolIndaSERKS0_ @7206
    _ZN4inet18NetworkProtocolReq12parsimUnpackEPN7omnetpp11cCommBufferE @7207
    _ZN4inet18NetworkProtocolReq4copyERKS0_ @7208
    _ZN4inet18NetworkProtocolReqC1ERKS0_ @7209
    _ZN4inet18NetworkProtocolReqC1Ev @7210
    _ZN4inet18NetworkProtocolReqC2ERKS0_ @7211
    _ZN4inet18NetworkProtocolReqC2Ev @7212
    _ZN4inet18NetworkProtocolReqD0Ev @7213
    _ZN4inet18NetworkProtocolReqD1Ev @7214
    _ZN4inet18NetworkProtocolReqD2Ev @7215
    _ZN4inet18NetworkProtocolReqaSERKS0_ @7216
    _ZN4inet18RoutingTableParser10parseEntryEPcPKcRiS1_ @7217
    _ZN4inet18RoutingTableParser10skipBlanksEPcRi @7218
    _ZN4inet18RoutingTableParser10strcpywordEPcPKc @7219
    _ZN4inet18RoutingTableParser12parseRoutingEPc @7220
    _ZN4inet18RoutingTableParser15parseInterfacesEPc @7221
    _ZN4inet18RoutingTableParser18createFilteredFileEPcRiPKc @7222
    _ZN4inet18RoutingTableParser20parseMulticastGroupsEPcPNS_14InterfaceEntryE @7223
    _ZN4inet18RoutingTableParser24readRoutingTableFromFileEPKc @7224
    _ZN4inet18RoutingTableParser5streqEPKcS2_ @7225
    _ZN4inet18RsbRefreshTimerMsg12parsimUnpackEPN7omnetpp11cCommBufferE @7226
    _ZN4inet18RsbRefreshTimerMsg4copyERKS0_ @7227
    _ZN4inet18RsbRefreshTimerMsg5setIdEi @7228
    _ZN4inet18RsbRefreshTimerMsgC1EPKcs @7229
    _ZN4inet18RsbRefreshTimerMsgC1ERKS0_ @7230
    _ZN4inet18RsbRefreshTimerMsgC2EPKcs @7231
    _ZN4inet18RsbRefreshTimerMsgC2ERKS0_ @7232
    _ZN4inet18RsbRefreshTimerMsgD0Ev @7233
    _ZN4inet18RsbRefreshTimerMsgD1Ev @7234
    _ZN4inet18RsbRefreshTimerMsgD2Ev @7235
    _ZN4inet18RsbRefreshTimerMsgaSERKS0_ @7236
    _ZN4inet18SenderDescriptor_tC1Ev @7237
    _ZN4inet18SenderDescriptor_tC2Ev @7238
    _ZN4inet18SignalPowerTagBase12parsimUnpackEPN7omnetpp11cCommBufferE @7239
    _ZN4inet18SignalPowerTagBase4copyERKS0_ @7240
    _ZN4inet18SignalPowerTagBase8setPowerENS_5units5valueIdNS1_7composeINS3_INS3_INS1_5units1mENS3_INS4_2kgENS1_3powINS4_1sELin2ELi1EEEEEEES5_EENS7_IS8_Lin1ELi1EEEEEEE @7241
    _ZN4inet18SignalPowerTagBaseC1ERKS0_ @7242
    _ZN4inet18SignalPowerTagBaseC1Ev @7243
    _ZN4inet18SignalPowerTagBaseC2ERKS0_ @7244
    _ZN4inet18SignalPowerTagBaseC2Ev @7245
    _ZN4inet18SignalPowerTagBaseD0Ev @7246
    _ZN4inet18SignalPowerTagBaseD1Ev @7247
    _ZN4inet18SignalPowerTagBaseD2Ev @7248
    _ZN4inet18SignalPowerTagBaseaSERKS0_ @7249
    _ZN4inet18SimpleVoipReceiver10initializeEi @7250
    _ZN4inet18SimpleVoipReceiver13handleMessageEPN7omnetpp8cMessageE @7251
    _ZN4inet18SimpleVoipReceiver14startTalkspurtEPNS_6PacketE @7252
    _ZN4inet18SimpleVoipReceiver17evaluateTalkspurtEb @7253
    _ZN4inet18SimpleVoipReceiver17socketDataArrivedEPNS_9UdpSocketEPNS_6PacketE @7254
    _ZN4inet18SimpleVoipReceiver17voipMosRateSignalE @7255 DATA
    _ZN4inet18SimpleVoipReceiver18socketErrorArrivedEPNS_9UdpSocketEPNS_10IndicationE @7256
    _ZN4inet18SimpleVoipReceiver21voipPacketDelaySignalE @7257 DATA
    _ZN4inet18SimpleVoipReceiver22voipPlayoutDelaySignalE @7258 DATA
    _ZN4inet18SimpleVoipReceiver24voipPacketLossRateSignalE @7259 DATA
    _ZN4inet18SimpleVoipReceiver25voipPlayoutLossRateSignalE @7260 DATA
    _ZN4inet18SimpleVoipReceiver26voipTaildropLossRateSignalE @7261 DATA
    _ZN4inet18SimpleVoipReceiver6eModelEdd @7262
    _ZN4inet18SimpleVoipReceiver6finishEv @7263
    _ZN4inet18SimpleVoipReceiverC1Ev @7264
    _ZN4inet18SimpleVoipReceiverC2Ev @7265
    _ZN4inet18SimpleVoipReceiverD0Ev @7266
    _ZN4inet18SimpleVoipReceiverD1Ev @7267
    _ZN4inet18SimpleVoipReceiverD2Ev @7268
    _ZN4inet18StaticGridMobility18setInitialPositionEv @7269
    _ZN4inet18StationaryMobility10initializeEi @7270
    _ZN4inet18StationaryMobility36updateMobilityStateFromDisplayStringEv @7271
    _ZN4inet18UdpErrorIndication12parsimUnpackEPN7omnetpp11cCommBufferE @7272
    _ZN4inet18UdpErrorIndication4copyERKS0_ @7273
    _ZN4inet18UdpErrorIndicationC1ERKS0_ @7274
    _ZN4inet18UdpErrorIndicationC1Ev @7275
    _ZN4inet18UdpErrorIndicationC2ERKS0_ @7276
    _ZN4inet18UdpErrorIndicationC2Ev @7277
    _ZN4inet18UdpErrorIndicationD0Ev @7278
    _ZN4inet18UdpErrorIndicationD1Ev @7279
    _ZN4inet18UdpErrorIndicationD2Ev @7280
    _ZN4inet18UdpErrorIndicationaSERKS0_ @7281
    _ZN4inet18findContainingNodeEPKN7omnetpp7cModuleE @7282
    _ZN4inet18getNetworkProtocolEPNS_6PacketE @7283
    _ZN4inet18l2AssociatedSignalE @7284 DATA
    _ZN4inet18l2BeaconLostSignalE @7285 DATA
    _ZN4inet18packetPoppedSignalE @7286 DATA
    _ZN4inet18packetPushedSignalE @7287 DATA
    _ZN4inet18routeChangedSignalE @7288 DATA
    _ZN4inet18routeDeletedSignalE @7289 DATA
    _ZN4inet19BMacDataFrameHeader12parsimUnpackEPN7omnetpp11cCommBufferE @7290
    _ZN4inet19BMacDataFrameHeader13setSequenceIdEl @7291
    _ZN4inet19BMacDataFrameHeader18setNetworkProtocolEi @7292
    _ZN4inet19BMacDataFrameHeader4copyERKS0_ @7293
    _ZN4inet19BMacDataFrameHeaderC1ERKS0_ @7294
    _ZN4inet19BMacDataFrameHeaderC1Ev @7295
    _ZN4inet19BMacDataFrameHeaderC2ERKS0_ @7296
    _ZN4inet19BMacDataFrameHeaderC2Ev @7297
    _ZN4inet19BMacDataFrameHeaderD0Ev @7298
    _ZN4inet19BMacDataFrameHeaderD1Ev @7299
    _ZN4inet19BMacDataFrameHeaderD2Ev @7300
    _ZN4inet19BMacDataFrameHeaderaSERKS0_ @7301
    _ZN4inet19BonnMotionFileCache11getInstanceEv @7302
    _ZN4inet19BonnMotionFileCache14deleteInstanceEv @7303
    _ZN4inet19BonnMotionFileCache4instE @7304 DATA
    _ZN4inet19BonnMotionFileCache7getFileEPKc @7305
    _ZN4inet19BonnMotionFileCache9parseFileEPKcRNS_14BonnMotionFileE @7306
    _ZN4inet19CsmaCaMacDataHeader11setPriorityEi @7307
    _ZN4inet19CsmaCaMacDataHeader12parsimUnpackEPN7omnetpp11cCommBufferE @7308
    _ZN4inet19CsmaCaMacDataHeader18setNetworkProtocolEi @7309
    _ZN4inet19CsmaCaMacDataHeader4copyERKS0_ @7310
    _ZN4inet19CsmaCaMacDataHeaderC1ERKS0_ @7311
    _ZN4inet19CsmaCaMacDataHeaderC1Ev @7312
    _ZN4inet19CsmaCaMacDataHeaderC2ERKS0_ @7313
    _ZN4inet19CsmaCaMacDataHeaderC2Ev @7314
    _ZN4inet19CsmaCaMacDataHeaderD0Ev @7315
    _ZN4inet19CsmaCaMacDataHeaderD1Ev @7316
    _ZN4inet19CsmaCaMacDataHeaderD2Ev @7317
    _ZN4inet19CsmaCaMacDataHeaderaSERKS0_ @7318
    _ZN4inet19DispatchProtocolInd12parsimUnpackEPN7omnetpp11cCommBufferE @7319
    _ZN4inet19DispatchProtocolInd4copyERKS0_ @7320
    _ZN4inet19DispatchProtocolIndC1ERKS0_ @7321
    _ZN4inet19DispatchProtocolIndC1Ev @7322
    _ZN4inet19DispatchProtocolIndC2ERKS0_ @7323
    _ZN4inet19DispatchProtocolIndC2Ev @7324
    _ZN4inet19DispatchProtocolIndD0Ev @7325
    _ZN4inet19DispatchProtocolIndD1Ev @7326
    _ZN4inet19DispatchProtocolIndD2Ev @7327
    _ZN4inet19DispatchProtocolIndaSERKS0_ @7328
    _ZN4inet19DispatchProtocolReq12parsimUnpackEPN7omnetpp11cCommBufferE @7329
    _ZN4inet19DispatchProtocolReq19setServicePrimitiveENS_16ServicePrimitiveE @7330
    _ZN4inet19DispatchProtocolReq4copyERKS0_ @7331
    _ZN4inet19DispatchProtocolReqC1ERKS0_ @7332
    _ZN4inet19DispatchProtocolReqC1Ev @7333
    _ZN4inet19DispatchProtocolReqC2ERKS0_ @7334
    _ZN4inet19DispatchProtocolReqC2Ev @7335
    _ZN4inet19DispatchProtocolReqD0Ev @7336
    _ZN4inet19DispatchProtocolReqD1Ev @7337
    _ZN4inet19DispatchProtocolReqD2Ev @7338
    _ZN4inet19DispatchProtocolReqaSERKS0_ @7339
    _ZN4inet19ElapsedTimeRecorder6finishEPN7omnetpp13cResultFilterE @7340
    _ZN4inet19ElapsedTimeRecorderC1Ev @7341
    _ZN4inet19ElapsedTimeRecorderC2Ev @7342
    _ZN4inet19EncodedGroupAddressC1Ev @7343
    _ZN4inet19EncodedGroupAddressC2Ev @7344
    _ZN4inet19EthernetBindCommand11setProtocolEPNS_8ProtocolE @7345
    _ZN4inet19EthernetBindCommand12parsimUnpackEPN7omnetpp11cCommBufferE @7346
    _ZN4inet19EthernetBindCommand16setSourceAddressERKNS_10MacAddressE @7347
    _ZN4inet19EthernetBindCommand21setDestinationAddressERKNS_10MacAddressE @7348
    _ZN4inet19EthernetBindCommand4copyERKS0_ @7349
    _ZN4inet19EthernetBindCommand9setVlanIdEi @7350
    _ZN4inet19EthernetBindCommandC1ERKS0_ @7351
    _ZN4inet19EthernetBindCommandC1Ev @7352
    _ZN4inet19EthernetBindCommandC2ERKS0_ @7353
    _ZN4inet19EthernetBindCommandC2Ev @7354
    _ZN4inet19EthernetBindCommandD0Ev @7355
    _ZN4inet19EthernetBindCommandD1Ev @7356
    _ZN4inet19EthernetBindCommandD2Ev @7357
    _ZN4inet19EthernetBindCommandaSERKS0_ @7358
    _ZN4inet19EthernetCommandBase12parsimUnpackEPN7omnetpp11cCommBufferE @7359
    _ZN4inet19EthernetCommandBase4copyERKS0_ @7360
    _ZN4inet19EthernetCommandBaseC1ERKS0_ @7361
    _ZN4inet19EthernetCommandBaseC1Ev @7362
    _ZN4inet19EthernetCommandBaseC2ERKS0_ @7363
    _ZN4inet19EthernetCommandBaseC2Ev @7364
    _ZN4inet19EthernetCommandBaseD0Ev @7365
    _ZN4inet19EthernetCommandBaseD1Ev @7366
    _ZN4inet19EthernetCommandBaseD2Ev @7367
    _ZN4inet19EthernetCommandBaseaSERKS0_ @7368
    _ZN4inet19GaussMarkovMobility10initializeEi @7369
    _ZN4inet19GaussMarkovMobility17setTargetPositionEv @7370
    _ZN4inet19GaussMarkovMobility20preventBorderHuggingEv @7371
    _ZN4inet19GaussMarkovMobility4moveEv @7372
    _ZN4inet19GaussMarkovMobilityC1Ev @7373
    _ZN4inet19GaussMarkovMobilityC2Ev @7374
    _ZN4inet19Ieee80211SubtypeInd12parsimUnpackEPN7omnetpp11cCommBufferE @7375
    _ZN4inet19Ieee80211SubtypeInd4copyERKS0_ @7376
    _ZN4inet19Ieee80211SubtypeIndC1ERKS0_ @7377
    _ZN4inet19Ieee80211SubtypeIndC1Ev @7378
    _ZN4inet19Ieee80211SubtypeIndC2ERKS0_ @7379
    _ZN4inet19Ieee80211SubtypeIndC2Ev @7380
    _ZN4inet19Ieee80211SubtypeIndD0Ev @7381
    _ZN4inet19Ieee80211SubtypeIndD1Ev @7382
    _ZN4inet19Ieee80211SubtypeIndD2Ev @7383
    _ZN4inet19Ieee80211SubtypeIndaSERKS0_ @7384
    _ZN4inet19Ieee80211SubtypeReq12parsimUnpackEPN7omnetpp11cCommBufferE @7385
    _ZN4inet19Ieee80211SubtypeReq4copyERKS0_ @7386
    _ZN4inet19Ieee80211SubtypeReqC1ERKS0_ @7387
    _ZN4inet19Ieee80211SubtypeReqC1Ev @7388
    _ZN4inet19Ieee80211SubtypeReqC2ERKS0_ @7389
    _ZN4inet19Ieee80211SubtypeReqC2Ev @7390
    _ZN4inet19Ieee80211SubtypeReqD0Ev @7391
    _ZN4inet19Ieee80211SubtypeReqD1Ev @7392
    _ZN4inet19Ieee80211SubtypeReqD2Ev @7393
    _ZN4inet19Ieee80211SubtypeReqaSERKS0_ @7394
    _ZN4inet19Ieee802154MacHeader10setSrcAddrERKNS_10MacAddressE @7395
    _ZN4inet19Ieee802154MacHeader11setDestAddrERKNS_10MacAddressE @7396
    _ZN4inet19Ieee802154MacHeader12parsimUnpackEPN7omnetpp11cCommBufferE @7397
    _ZN4inet19Ieee802154MacHeader13setSequenceIdEl @7398
    _ZN4inet19Ieee802154MacHeader18setNetworkProtocolEi @7399
    _ZN4inet19Ieee802154MacHeader4copyERKS0_ @7400
    _ZN4inet19Ieee802154MacHeaderC1ERKS0_ @7401
    _ZN4inet19Ieee802154MacHeaderC1Ev @7402
    _ZN4inet19Ieee802154MacHeaderC2ERKS0_ @7403
    _ZN4inet19Ieee802154MacHeaderC2Ev @7404
    _ZN4inet19Ieee802154MacHeaderD0Ev @7405
    _ZN4inet19Ieee802154MacHeaderD1Ev @7406
    _ZN4inet19Ieee802154MacHeaderD2Ev @7407
    _ZN4inet19Ieee802154MacHeaderaSERKS0_ @7408
    _ZN4inet19Ieee802PauseCommand12parsimUnpackEPN7omnetpp11cCommBufferE @7409
    _ZN4inet19Ieee802PauseCommand13setPauseUnitsEi @7410
    _ZN4inet19Ieee802PauseCommand21setDestinationAddressERKNS_10MacAddressE @7411
    _ZN4inet19Ieee802PauseCommand4copyERKS0_ @7412
    _ZN4inet19Ieee802PauseCommandC1ERKS0_ @7413
    _ZN4inet19Ieee802PauseCommandC1Ev @7414
    _ZN4inet19Ieee802PauseCommandC2ERKS0_ @7415
    _ZN4inet19Ieee802PauseCommandC2Ev @7416
    _ZN4inet19Ieee802PauseCommandD0Ev @7417
    _ZN4inet19Ieee802PauseCommandD1Ev @7418
    _ZN4inet19Ieee802PauseCommandD2Ev @7419
    _ZN4inet19Ieee802PauseCommandaSERKS0_ @7420
    _ZN4inet19IndicatorTextFigure5parseEPN7omnetpp9cPropertyE @7421
    _ZN4inet19IndicatorTextFigure7refreshEv @7422
    _ZN4inet19IndicatorTextFigure8setValueEiN7omnetpp7SimTimeEd @7423
    _ZN4inet19Ipv4OptionTimestamp10setNextIdxEs @7424
    _ZN4inet19Ipv4OptionTimestamp11setOverflowEs @7425
    _ZN4inet19Ipv4OptionTimestamp12parsimUnpackEPN7omnetpp11cCommBufferE @7426
    _ZN4inet19Ipv4OptionTimestamp16setRecordAddressEyRKNS_11Ipv4AddressE @7427
    _ZN4inet19Ipv4OptionTimestamp18eraseRecordAddressEy @7428
    _ZN4inet19Ipv4OptionTimestamp18setRecordTimestampEyN7omnetpp7SimTimeE @7429
    _ZN4inet19Ipv4OptionTimestamp19insertRecordAddressERKNS_11Ipv4AddressE @7430
    _ZN4inet19Ipv4OptionTimestamp19insertRecordAddressEyRKNS_11Ipv4AddressE @7431
    _ZN4inet19Ipv4OptionTimestamp20eraseRecordTimestampEy @7432
    _ZN4inet19Ipv4OptionTimestamp21insertRecordTimestampEN7omnetpp7SimTimeE @7433
    _ZN4inet19Ipv4OptionTimestamp21insertRecordTimestampEyN7omnetpp7SimTimeE @7434
    _ZN4inet19Ipv4OptionTimestamp25setRecordAddressArraySizeEy @7435
    _ZN4inet19Ipv4OptionTimestamp27setRecordTimestampArraySizeEy @7436
    _ZN4inet19Ipv4OptionTimestamp4copyERKS0_ @7437
    _ZN4inet19Ipv4OptionTimestamp7setFlagENS_13TimestampFlagE @7438
    _ZN4inet19Ipv4OptionTimestampC1ERKS0_ @7439
    _ZN4inet19Ipv4OptionTimestampC1Ev @7440
    _ZN4inet19Ipv4OptionTimestampC2ERKS0_ @7441
    _ZN4inet19Ipv4OptionTimestampC2Ev @7442
    _ZN4inet19Ipv4OptionTimestampD0Ev @7443
    _ZN4inet19Ipv4OptionTimestampD1Ev @7444
    _ZN4inet19Ipv4OptionTimestampD2Ev @7445
    _ZN4inet19Ipv4OptionTimestampaSERKS0_ @7446
    _ZN4inet19Ipv6ExtensionHeader12parsimUnpackEPN7omnetpp11cCommBufferE @7447
    _ZN4inet19Ipv6ExtensionHeader13setByteLengthENS_5units5valueIxNS1_8intscaleINS1_5units1bELi1ELi8EEEEE @7448
    _ZN4inet19Ipv6ExtensionHeader16setExtensionTypeEs @7449
    _ZN4inet19Ipv6ExtensionHeader4copyERKS0_ @7450
    _ZN4inet19Ipv6ExtensionHeaderC1ERKS0_ @7451
    _ZN4inet19Ipv6ExtensionHeaderC1Ev @7452
    _ZN4inet19Ipv6ExtensionHeaderC2ERKS0_ @7453
    _ZN4inet19Ipv6ExtensionHeaderC2Ev @7454
    _ZN4inet19Ipv6ExtensionHeaderD0Ev @7455
    _ZN4inet19Ipv6ExtensionHeaderD1Ev @7456
    _ZN4inet19Ipv6ExtensionHeaderD2Ev @7457
    _ZN4inet19Ipv6ExtensionHeaderaSERKS0_ @7458
    _ZN4inet19L3SocketBindCommand11setProtocolEPKNS_8ProtocolE @7459
    _ZN4inet19L3SocketBindCommand12parsimUnpackEPN7omnetpp11cCommBufferE @7460
    _ZN4inet19L3SocketBindCommand15setLocalAddressERKNS_9L3AddressE @7461
    _ZN4inet19L3SocketBindCommand4copyERKS0_ @7462
    _ZN4inet19L3SocketBindCommandC1ERKS0_ @7463
    _ZN4inet19L3SocketBindCommandC1Ev @7464
    _ZN4inet19L3SocketBindCommandC2ERKS0_ @7465
    _ZN4inet19L3SocketBindCommandC2Ev @7466
    _ZN4inet19L3SocketBindCommandD0Ev @7467
    _ZN4inet19L3SocketBindCommandD1Ev @7468
    _ZN4inet19L3SocketBindCommandD2Ev @7469
    _ZN4inet19L3SocketBindCommandaSERKS0_ @7470
    _ZN4inet19L3SocketCommandBase12parsimUnpackEPN7omnetpp11cCommBufferE @7471
    _ZN4inet19L3SocketCommandBase4copyERKS0_ @7472
    _ZN4inet19L3SocketCommandBaseC1ERKS0_ @7473
    _ZN4inet19L3SocketCommandBaseC1Ev @7474
    _ZN4inet19L3SocketCommandBaseC2ERKS0_ @7475
    _ZN4inet19L3SocketCommandBaseC2Ev @7476
    _ZN4inet19L3SocketCommandBaseD0Ev @7477
    _ZN4inet19L3SocketCommandBaseD1Ev @7478
    _ZN4inet19L3SocketCommandBaseD2Ev @7479
    _ZN4inet19L3SocketCommandBaseaSERKS0_ @7480
    _ZN4inet19LMacDataFrameHeader12parsimUnpackEPN7omnetpp11cCommBufferE @7481
    _ZN4inet19LMacDataFrameHeader18setNetworkProtocolEi @7482
    _ZN4inet19LMacDataFrameHeader4copyERKS0_ @7483
    _ZN4inet19LMacDataFrameHeaderC1ERKS0_ @7484
    _ZN4inet19LMacDataFrameHeaderC1Ev @7485
    _ZN4inet19LMacDataFrameHeaderC2ERKS0_ @7486
    _ZN4inet19LMacDataFrameHeaderC2Ev @7487
    _ZN4inet19LMacDataFrameHeaderD0Ev @7488
    _ZN4inet19LMacDataFrameHeaderD1Ev @7489
    _ZN4inet19LMacDataFrameHeaderD2Ev @7490
    _ZN4inet19LMacDataFrameHeaderaSERKS0_ @7491
    _ZN4inet19LanPruneDelayOption12parsimUnpackEPN7omnetpp11cCommBufferE @7492
    _ZN4inet19LanPruneDelayOption19setOverrideIntervalEt @7493
    _ZN4inet19LanPruneDelayOption19setPropagationDelayEt @7494
    _ZN4inet19LanPruneDelayOption4copyERKS0_ @7495
    _ZN4inet19LanPruneDelayOption4setTEb @7496
    _ZN4inet19LanPruneDelayOptionC1ERKS0_ @7497
    _ZN4inet19LanPruneDelayOptionC1Ev @7498
    _ZN4inet19LanPruneDelayOptionC2ERKS0_ @7499
    _ZN4inet19LanPruneDelayOptionC2Ev @7500
    _ZN4inet19LanPruneDelayOptionD0Ev @7501
    _ZN4inet19LanPruneDelayOptionD1Ev @7502
    _ZN4inet19LanPruneDelayOptionD2Ev @7503
    _ZN4inet19LanPruneDelayOptionaSERKS0_ @7504
    _ZN4inet19LayeredProtocolBase17handleLowerPacketEPNS_6PacketE @7505
    _ZN4inet19LayeredProtocolBase17handleSelfMessageEPN7omnetpp8cMessageE @7506
    _ZN4inet19LayeredProtocolBase17handleUpperPacketEPNS_6PacketE @7507
    _ZN4inet19LayeredProtocolBase18handleLowerCommandEPN7omnetpp8cMessageE @7508
    _ZN4inet19LayeredProtocolBase18handleLowerMessageEPN7omnetpp8cMessageE @7509
    _ZN4inet19LayeredProtocolBase18handleUpperCommandEPN7omnetpp8cMessageE @7510
